TMS320C2000 Assembler PC v6.2.7 Thu Jul 02 08:31:30 2015

Tools Copyright (c) 1996-2014 Texas Instruments Incorporated
C:\Users\Tester\AppData\Local\Temp\0422811                           PAGE    1

       1              ;***************************************************************
       2              ;* TMS320C2000 C/C++ Codegen                         PC v6.2.7 *
       3              ;* Date/Time created: Thu Jul 02 08:31:29 2015                 *
       4              ;***************************************************************
       5                      .compiler_opts --diag_wrap=off --float_support=fpu32 --hll_source=on --mem_model:code=flat --mem_mode
       6        0002  FP      .set    XAR2
       7              
       8              $C$DW$CU        .dwtag  DW_TAG_compile_unit
       9                      .dwattr $C$DW$CU, DW_AT_name("../ConvertorCntrl/MotorCntrl.c")
      10                      .dwattr $C$DW$CU, DW_AT_producer("TMS320C2000 C/C++ Codegen PC v6.2.7 Copyright (c) 1996-2014 Texas I
      11                      .dwattr $C$DW$CU, DW_AT_TI_version(0x01)
      12                      .dwattr $C$DW$CU, DW_AT_comp_dir("D:\ActiveProject\EKT5\PKMT_NONBIOS\InvertorCntrl\ISPprg")
      13              
      14              $C$DW$1 .dwtag  DW_TAG_subprogram, DW_AT_name("setLedMode")
      15                      .dwattr $C$DW$1, DW_AT_TI_symbol_name("_setLedMode")
      16                      .dwattr $C$DW$1, DW_AT_declaration
      17                      .dwattr $C$DW$1, DW_AT_external
      18              $C$DW$2 .dwtag  DW_TAG_formal_parameter
      19                      .dwattr $C$DW$2, DW_AT_type(*$C$DW$T$5)
      20              $C$DW$3 .dwtag  DW_TAG_formal_parameter
      21                      .dwattr $C$DW$3, DW_AT_type(*$C$DW$T$5)
      22                      .dwendtag $C$DW$1
      23              
      24              
      25              $C$DW$4 .dwtag  DW_TAG_subprogram, DW_AT_name("setStepAmpl")
      26                      .dwattr $C$DW$4, DW_AT_TI_symbol_name("_setStepAmpl")
      27                      .dwattr $C$DW$4, DW_AT_declaration
      28                      .dwattr $C$DW$4, DW_AT_external
      29              $C$DW$5 .dwtag  DW_TAG_formal_parameter
      30                      .dwattr $C$DW$5, DW_AT_type(*$C$DW$T$16)
      31                      .dwendtag $C$DW$4
      32              
      33              
      34              $C$DW$6 .dwtag  DW_TAG_subprogram, DW_AT_name("setStepConer")
      35                      .dwattr $C$DW$6, DW_AT_TI_symbol_name("_setStepConer")
      36                      .dwattr $C$DW$6, DW_AT_declaration
      37                      .dwattr $C$DW$6, DW_AT_external
      38              $C$DW$7 .dwtag  DW_TAG_formal_parameter
      39                      .dwattr $C$DW$7, DW_AT_type(*$C$DW$T$16)
      40                      .dwendtag $C$DW$6
      41              
      42              
      43              $C$DW$8 .dwtag  DW_TAG_subprogram, DW_AT_name("cntrlIrCompensation")
      44                      .dwattr $C$DW$8, DW_AT_TI_symbol_name("_cntrlIrCompensation")
      45                      .dwattr $C$DW$8, DW_AT_declaration
      46                      .dwattr $C$DW$8, DW_AT_external
      47              
      48              $C$DW$9 .dwtag  DW_TAG_subprogram, DW_AT_name("stabilisationByUdc")
      49                      .dwattr $C$DW$9, DW_AT_TI_symbol_name("_stabilisationByUdc")
      50                      .dwattr $C$DW$9, DW_AT_declaration
      51                      .dwattr $C$DW$9, DW_AT_external
      52              $C$DW$10        .dwtag  DW_TAG_formal_parameter
      53                      .dwattr $C$DW$10, DW_AT_type(*$C$DW$T$21)
      54                      .dwendtag $C$DW$9
      55              
TMS320C2000 Assembler PC v6.2.7 Thu Jul 02 08:31:30 2015

Tools Copyright (c) 1996-2014 Texas Instruments Incorporated
C:\Users\Tester\AppData\Local\Temp\0422811                           PAGE    2

      56              
      57              $C$DW$11        .dwtag  DW_TAG_subprogram, DW_AT_name("rstDecelReg")
      58                      .dwattr $C$DW$11, DW_AT_TI_symbol_name("_rstDecelReg")
      59                      .dwattr $C$DW$11, DW_AT_declaration
      60                      .dwattr $C$DW$11, DW_AT_external
      61              
      62              $C$DW$12        .dwtag  DW_TAG_subprogram, DW_AT_name("getDecelTime")
      63                      .dwattr $C$DW$12, DW_AT_TI_symbol_name("_getDecelTime")
      64                      .dwattr $C$DW$12, DW_AT_type(*$C$DW$T$10)
      65                      .dwattr $C$DW$12, DW_AT_declaration
      66                      .dwattr $C$DW$12, DW_AT_external
      67              
      68              $C$DW$13        .dwtag  DW_TAG_subprogram, DW_AT_name("getRegister")
      69                      .dwattr $C$DW$13, DW_AT_TI_symbol_name("_getRegister")
      70                      .dwattr $C$DW$13, DW_AT_type(*$C$DW$T$10)
      71                      .dwattr $C$DW$13, DW_AT_declaration
      72                      .dwattr $C$DW$13, DW_AT_external
      73              $C$DW$14        .dwtag  DW_TAG_formal_parameter
      74                      .dwattr $C$DW$14, DW_AT_type(*$C$DW$T$5)
      75                      .dwendtag $C$DW$13
      76              
      77                      .global _cntDelayMC
      78 00000000       _cntDelayMC:    .usect  ".ebss",1,1,0
      79              $C$DW$15        .dwtag  DW_TAG_variable, DW_AT_name("cntDelayMC")
      80                      .dwattr $C$DW$15, DW_AT_TI_symbol_name("_cntDelayMC")
      81                      .dwattr $C$DW$15, DW_AT_location[DW_OP_addr _cntDelayMC]
      82                      .dwattr $C$DW$15, DW_AT_type(*$C$DW$T$47)
      83                      .dwattr $C$DW$15, DW_AT_external
      84                      .global _statusRun
      85 00000001       _statusRun:     .usect  ".ebss",1,1,0
      86              $C$DW$16        .dwtag  DW_TAG_variable, DW_AT_name("statusRun")
      87                      .dwattr $C$DW$16, DW_AT_TI_symbol_name("_statusRun")
      88                      .dwattr $C$DW$16, DW_AT_location[DW_OP_addr _statusRun]
      89                      .dwattr $C$DW$16, DW_AT_type(*$C$DW$T$39)
      90                      .dwattr $C$DW$16, DW_AT_external
      91              
      92              $C$DW$17        .dwtag  DW_TAG_subprogram, DW_AT_name("getAccelTime")
      93                      .dwattr $C$DW$17, DW_AT_TI_symbol_name("_getAccelTime")
      94                      .dwattr $C$DW$17, DW_AT_type(*$C$DW$T$10)
      95                      .dwattr $C$DW$17, DW_AT_declaration
      96                      .dwattr $C$DW$17, DW_AT_external
      97              
      98              $C$DW$18        .dwtag  DW_TAG_subprogram, DW_AT_name("testStatusConvertor")
      99                      .dwattr $C$DW$18, DW_AT_TI_symbol_name("_testStatusConvertor")
     100                      .dwattr $C$DW$18, DW_AT_type(*$C$DW$T$49)
     101                      .dwattr $C$DW$18, DW_AT_declaration
     102                      .dwattr $C$DW$18, DW_AT_external
     103              $C$DW$19        .dwtag  DW_TAG_formal_parameter
     104                      .dwattr $C$DW$19, DW_AT_type(*$C$DW$T$47)
     105                      .dwendtag $C$DW$18
     106              
     107              
     108              $C$DW$20        .dwtag  DW_TAG_subprogram, DW_AT_name("testOvervoltag")
     109                      .dwattr $C$DW$20, DW_AT_TI_symbol_name("_testOvervoltag")
     110                      .dwattr $C$DW$20, DW_AT_type(*$C$DW$T$49)
TMS320C2000 Assembler PC v6.2.7 Thu Jul 02 08:31:30 2015

Tools Copyright (c) 1996-2014 Texas Instruments Incorporated
C:\Users\Tester\AppData\Local\Temp\0422811                           PAGE    3

     111                      .dwattr $C$DW$20, DW_AT_declaration
     112                      .dwattr $C$DW$20, DW_AT_external
     113              
     114              $C$DW$21        .dwtag  DW_TAG_subprogram, DW_AT_name("DcDecelatration")
     115                      .dwattr $C$DW$21, DW_AT_TI_symbol_name("_DcDecelatration")
     116                      .dwattr $C$DW$21, DW_AT_type(*$C$DW$T$39)
     117                      .dwattr $C$DW$21, DW_AT_declaration
     118                      .dwattr $C$DW$21, DW_AT_external
     119              $C$DW$22        .dwtag  DW_TAG_formal_parameter
     120                      .dwattr $C$DW$22, DW_AT_type(*$C$DW$T$21)
     121              $C$DW$23        .dwtag  DW_TAG_formal_parameter
     122                      .dwattr $C$DW$23, DW_AT_type(*$C$DW$T$21)
     123                      .dwendtag $C$DW$21
     124              
     125              
     126              $C$DW$24        .dwtag  DW_TAG_subprogram, DW_AT_name("testOvercurrent")
     127                      .dwattr $C$DW$24, DW_AT_TI_symbol_name("_testOvercurrent")
     128                      .dwattr $C$DW$24, DW_AT_type(*$C$DW$T$49)
     129                      .dwattr $C$DW$24, DW_AT_declaration
     130                      .dwattr $C$DW$24, DW_AT_external
     131              
     132              $C$DW$25        .dwtag  DW_TAG_subprogram, DW_AT_name("getMainTask")
     133                      .dwattr $C$DW$25, DW_AT_TI_symbol_name("_getMainTask")
     134                      .dwattr $C$DW$25, DW_AT_type(*$C$DW$T$16)
     135                      .dwattr $C$DW$25, DW_AT_declaration
     136                      .dwattr $C$DW$25, DW_AT_external
     137              $C$DW$26        .dwtag  DW_TAG_formal_parameter
     138                      .dwattr $C$DW$26, DW_AT_type(*$C$DW$T$5)
     139                      .dwendtag $C$DW$25
     140              
     141              
     142              $C$DW$27        .dwtag  DW_TAG_subprogram, DW_AT_name("getAddedFrequency")
     143                      .dwattr $C$DW$27, DW_AT_TI_symbol_name("_getAddedFrequency")
     144                      .dwattr $C$DW$27, DW_AT_type(*$C$DW$T$16)
     145                      .dwattr $C$DW$27, DW_AT_declaration
     146                      .dwattr $C$DW$27, DW_AT_external
     147                      .global _mainTask
     148 00000002       _mainTask:      .usect  ".ebss",2,1,1
     149              $C$DW$28        .dwtag  DW_TAG_variable, DW_AT_name("mainTask")
     150                      .dwattr $C$DW$28, DW_AT_TI_symbol_name("_mainTask")
     151                      .dwattr $C$DW$28, DW_AT_location[DW_OP_addr _mainTask]
     152                      .dwattr $C$DW$28, DW_AT_type(*$C$DW$T$16)
     153                      .dwattr $C$DW$28, DW_AT_external
     154              
     155              $C$DW$29        .dwtag  DW_TAG_subprogram, DW_AT_name("getAddedVoltag")
     156                      .dwattr $C$DW$29, DW_AT_TI_symbol_name("_getAddedVoltag")
     157                      .dwattr $C$DW$29, DW_AT_type(*$C$DW$T$16)
     158                      .dwattr $C$DW$29, DW_AT_declaration
     159                      .dwattr $C$DW$29, DW_AT_external
     160                      .global _MaxInvertorFrequency
     161 00000004       _MaxInvertorFrequency:  .usect  ".ebss",2,1,1
     162              $C$DW$30        .dwtag  DW_TAG_variable, DW_AT_name("MaxInvertorFrequency")
     163                      .dwattr $C$DW$30, DW_AT_TI_symbol_name("_MaxInvertorFrequency")
     164                      .dwattr $C$DW$30, DW_AT_location[DW_OP_addr _MaxInvertorFrequency]
     165                      .dwattr $C$DW$30, DW_AT_type(*$C$DW$T$16)
TMS320C2000 Assembler PC v6.2.7 Thu Jul 02 08:31:30 2015

Tools Copyright (c) 1996-2014 Texas Instruments Incorporated
C:\Users\Tester\AppData\Local\Temp\0422811                           PAGE    4

     166                      .dwattr $C$DW$30, DW_AT_external
     167              
     168              $C$DW$31        .dwtag  DW_TAG_subprogram, DW_AT_name("getVoltagFromFrequency")
     169                      .dwattr $C$DW$31, DW_AT_TI_symbol_name("_getVoltagFromFrequency")
     170                      .dwattr $C$DW$31, DW_AT_type(*$C$DW$T$16)
     171                      .dwattr $C$DW$31, DW_AT_declaration
     172                      .dwattr $C$DW$31, DW_AT_external
     173              $C$DW$32        .dwtag  DW_TAG_formal_parameter
     174                      .dwattr $C$DW$32, DW_AT_type(*$C$DW$T$16)
     175                      .dwendtag $C$DW$31
     176              
     177              
     178              $C$DW$33        .dwtag  DW_TAG_subprogram, DW_AT_name("getOverloadFrequency")
     179                      .dwattr $C$DW$33, DW_AT_TI_symbol_name("_getOverloadFrequency")
     180                      .dwattr $C$DW$33, DW_AT_type(*$C$DW$T$16)
     181                      .dwattr $C$DW$33, DW_AT_declaration
     182                      .dwattr $C$DW$33, DW_AT_external
     183              
     184              $C$DW$34        .dwtag  DW_TAG_subprogram, DW_AT_name("getStepDecelCheng")
     185                      .dwattr $C$DW$34, DW_AT_TI_symbol_name("_getStepDecelCheng")
     186                      .dwattr $C$DW$34, DW_AT_type(*$C$DW$T$16)
     187                      .dwattr $C$DW$34, DW_AT_declaration
     188                      .dwattr $C$DW$34, DW_AT_external
     189              
     190              $C$DW$35        .dwtag  DW_TAG_subprogram, DW_AT_name("getOvervoltagFrequency")
     191                      .dwattr $C$DW$35, DW_AT_TI_symbol_name("_getOvervoltagFrequency")
     192                      .dwattr $C$DW$35, DW_AT_type(*$C$DW$T$16)
     193                      .dwattr $C$DW$35, DW_AT_declaration
     194                      .dwattr $C$DW$35, DW_AT_external
     195              
     196              $C$DW$36        .dwtag  DW_TAG_subprogram, DW_AT_name("scaleVoltagPwm")
     197                      .dwattr $C$DW$36, DW_AT_TI_symbol_name("_scaleVoltagPwm")
     198                      .dwattr $C$DW$36, DW_AT_type(*$C$DW$T$16)
     199                      .dwattr $C$DW$36, DW_AT_declaration
     200                      .dwattr $C$DW$36, DW_AT_external
     201              $C$DW$37        .dwtag  DW_TAG_formal_parameter
     202                      .dwattr $C$DW$37, DW_AT_type(*$C$DW$T$16)
     203                      .dwendtag $C$DW$36
     204              
     205              
     206              $C$DW$38        .dwtag  DW_TAG_subprogram, DW_AT_name("getStepAccelCheng")
     207                      .dwattr $C$DW$38, DW_AT_TI_symbol_name("_getStepAccelCheng")
     208                      .dwattr $C$DW$38, DW_AT_type(*$C$DW$T$16)
     209                      .dwattr $C$DW$38, DW_AT_declaration
     210                      .dwattr $C$DW$38, DW_AT_external
     211              ;       C:\ti\ccsv6\tools\compiler\c2000_6.2.7\bin\ac2000.exe -@C:\\Users\\Tester\\AppData\\Local\\Temp\\0422
     212 00000000               .sect   ".text"
     213                      .clink
     214                      .global _getStatusRun
     215              
     216              $C$DW$39        .dwtag  DW_TAG_subprogram, DW_AT_name("getStatusRun")
     217                      .dwattr $C$DW$39, DW_AT_low_pc(_getStatusRun)
     218                      .dwattr $C$DW$39, DW_AT_high_pc(0x00)
     219                      .dwattr $C$DW$39, DW_AT_TI_symbol_name("_getStatusRun")
     220                      .dwattr $C$DW$39, DW_AT_external
TMS320C2000 Assembler PC v6.2.7 Thu Jul 02 08:31:30 2015

Tools Copyright (c) 1996-2014 Texas Instruments Incorporated
C:\Users\Tester\AppData\Local\Temp\0422811                           PAGE    5

     221                      .dwattr $C$DW$39, DW_AT_type(*$C$DW$T$39)
     222                      .dwattr $C$DW$39, DW_AT_TI_begin_file("../ConvertorCntrl/MotorCntrl.c")
     223                      .dwattr $C$DW$39, DW_AT_TI_begin_line(0x18)
     224                      .dwattr $C$DW$39, DW_AT_TI_begin_column(0x07)
     225                      .dwattr $C$DW$39, DW_AT_TI_max_frame_size(-2)
     226                      .dwpsn  file "../ConvertorCntrl/MotorCntrl.c",line 24,column 25,is_stmt,address _getStatusRun
     227              
     228                      .dwfde $C$DW$CIE, _getStatusRun
     229              
     230              ;***************************************************************
     231              ;* FNAME: _getStatusRun                 FR SIZE:   0           *
     232              ;*                                                             *
     233              ;* FUNCTION ENVIRONMENT                                        *
     234              ;*                                                             *
     235              ;* FUNCTION PROPERTIES                                         *
     236              ;*                            0 Parameter,  0 Auto,  0 SOE     *
     237              ;***************************************************************
     238              
     239 00000000       _getStatusRun:
     240                      .dwcfi  cfa_offset, -2
     241                      .dwcfi  save_reg_to_mem, 26, 0
     242                      .dwcfi  save_reg_to_reg, 78, 26
     243                      .dwpsn  file "../ConvertorCntrl/MotorCntrl.c",line 25,column 2,is_stmt
     244 00000000 761F-         MOVW      DP,#_statusRun        ; [CPU_U] 
         00000001 0000 
     245 00000002 9201-         MOV       AL,@_statusRun        ; [CPU_] |25| 
     246                      .dwpsn  file "../ConvertorCntrl/MotorCntrl.c",line 26,column 1,is_stmt
     247              $C$DW$40        .dwtag  DW_TAG_TI_branch
     248                      .dwattr $C$DW$40, DW_AT_low_pc(0x00)
     249                      .dwattr $C$DW$40, DW_AT_TI_return
     250 00000003 0006          LRETR     ; [CPU_] 
     251                      ; return occurs ; [] 
     252                      .dwattr $C$DW$39, DW_AT_TI_end_file("../ConvertorCntrl/MotorCntrl.c")
     253                      .dwattr $C$DW$39, DW_AT_TI_end_line(0x1a)
     254                      .dwattr $C$DW$39, DW_AT_TI_end_column(0x01)
     255                      .dwendentry
     256                      .dwendtag $C$DW$39
     257              
     258 00000004               .sect   ".text"
     259                      .clink
     260                      .global _rstCntrlPwm
     261              
     262              $C$DW$41        .dwtag  DW_TAG_subprogram, DW_AT_name("rstCntrlPwm")
     263                      .dwattr $C$DW$41, DW_AT_low_pc(_rstCntrlPwm)
     264                      .dwattr $C$DW$41, DW_AT_high_pc(0x00)
     265                      .dwattr $C$DW$41, DW_AT_TI_symbol_name("_rstCntrlPwm")
     266                      .dwattr $C$DW$41, DW_AT_external
     267                      .dwattr $C$DW$41, DW_AT_TI_begin_file("../ConvertorCntrl/MotorCntrl.c")
     268                      .dwattr $C$DW$41, DW_AT_TI_begin_line(0x1c)
     269                      .dwattr $C$DW$41, DW_AT_TI_begin_column(0x06)
     270                      .dwattr $C$DW$41, DW_AT_TI_max_frame_size(-2)
     271                      .dwpsn  file "../ConvertorCntrl/MotorCntrl.c",line 28,column 23,is_stmt,address _rstCntrlPwm
     272              
     273                      .dwfde $C$DW$CIE, _rstCntrlPwm
     274              
TMS320C2000 Assembler PC v6.2.7 Thu Jul 02 08:31:30 2015

Tools Copyright (c) 1996-2014 Texas Instruments Incorporated
C:\Users\Tester\AppData\Local\Temp\0422811                           PAGE    6

     275              ;***************************************************************
     276              ;* FNAME: _rstCntrlPwm                  FR SIZE:   0           *
     277              ;*                                                             *
     278              ;* FUNCTION ENVIRONMENT                                        *
     279              ;*                                                             *
     280              ;* FUNCTION PROPERTIES                                         *
     281              ;*                            0 Parameter,  0 Auto,  0 SOE     *
     282              ;***************************************************************
     283              
     284 00000004       _rstCntrlPwm:
     285                      .dwcfi  cfa_offset, -2
     286                      .dwcfi  save_reg_to_mem, 26, 0
     287                      .dwcfi  save_reg_to_reg, 78, 26
     288                      .dwpsn  file "../ConvertorCntrl/MotorCntrl.c",line 29,column 2,is_stmt
     289 00000004 E590          ZERO      R0H                   ; [CPU_] |29| 
     290 00000005 761F-         MOVW      DP,#_mainTask         ; [CPU_U] 
         00000006 0000 
     291 00000007 E203-         MOV32     @_mainTask,R0H        ; [CPU_] |29| 
         00000008 0002 
     292                      .dwpsn  file "../ConvertorCntrl/MotorCntrl.c",line 30,column 2,is_stmt
     293 00000009 2B00-         MOV       @_cntDelayMC,#0       ; [CPU_] |30| 
     294                      .dwpsn  file "../ConvertorCntrl/MotorCntrl.c",line 31,column 2,is_stmt
     295 0000000a 9A6A          MOVB      AL,#106               ; [CPU_] |31| 
     296              $C$DW$42        .dwtag  DW_TAG_TI_branch
     297                      .dwattr $C$DW$42, DW_AT_low_pc(0x00)
     298                      .dwattr $C$DW$42, DW_AT_name("_getRegister")
     299                      .dwattr $C$DW$42, DW_AT_TI_call
     300 0000000b 7640!         LCR       #_getRegister         ; [CPU_] |31| 
         0000000c 0000 
     301                      ; call occurs [#_getRegister] ; [] |31| 
     302 0000000d 3B01          SETC      SXM                   ; [CPU_] 
     303 0000000e 85A9          MOV       ACC,AL                ; [CPU_] |31| 
     304 0000000f BDA9          MOV32     R0H,ACC               ; [CPU_] |31| 
         00000010 0F12 
     305 00000011 7700          NOP       ; [CPU_] 
     306 00000012 7700          NOP       ; [CPU_] 
     307 00000013 7700          NOP       ; [CPU_] 
     308 00000014 7700          NOP       ; [CPU_] 
     309 00000015 E689          I32TOF32  R0H,R0H               ; [CPU_] |31| 
         00000016 0000 
     310 00000017 761F-         MOVW      DP,#_MaxInvertorFrequency ; [CPU_U] 
         00000018 0000 
     311 00000019 E203-         MOV32     @_MaxInvertorFrequency,R0H ; [CPU_] |31| 
         0000001a 0004 
     312                      .dwpsn  file "../ConvertorCntrl/MotorCntrl.c",line 32,column 2,is_stmt
     313 0000001b E802          MOVIZ     R1H,#16672            ; [CPU_] |32| 
         0000001c 0901 
     314              $C$DW$43        .dwtag  DW_TAG_TI_branch
     315                      .dwattr $C$DW$43, DW_AT_low_pc(0x00)
     316                      .dwattr $C$DW$43, DW_AT_name("FS$$DIV")
     317                      .dwattr $C$DW$43, DW_AT_TI_call
     318 0000001d 7640!         LCR       #FS$$DIV              ; [CPU_] |32| 
         0000001e 0000 
     319                      ; call occurs [#FS$$DIV] ; [] |32| 
     320 0000001f 761F-         MOVW      DP,#_MaxInvertorFrequency ; [CPU_U] 
TMS320C2000 Assembler PC v6.2.7 Thu Jul 02 08:31:30 2015

Tools Copyright (c) 1996-2014 Texas Instruments Incorporated
C:\Users\Tester\AppData\Local\Temp\0422811                           PAGE    7

         00000020 0000 
     321 00000021 E203-         MOV32     @_MaxInvertorFrequency,R0H ; [CPU_] |32| 
         00000022 0004 
     322                      .dwpsn  file "../ConvertorCntrl/MotorCntrl.c",line 33,column 2,is_stmt
     323 00000023 2B01-         MOV       @_statusRun,#0        ; [CPU_] |33| 
     324                      .dwpsn  file "../ConvertorCntrl/MotorCntrl.c",line 34,column 1,is_stmt
     325              $C$DW$44        .dwtag  DW_TAG_TI_branch
     326                      .dwattr $C$DW$44, DW_AT_low_pc(0x00)
     327                      .dwattr $C$DW$44, DW_AT_TI_return
     328 00000024 0006          LRETR     ; [CPU_] 
     329                      ; return occurs ; [] 
     330                      .dwattr $C$DW$41, DW_AT_TI_end_file("../ConvertorCntrl/MotorCntrl.c")
     331                      .dwattr $C$DW$41, DW_AT_TI_end_line(0x22)
     332                      .dwattr $C$DW$41, DW_AT_TI_end_column(0x01)
     333                      .dwendentry
     334                      .dwendtag $C$DW$41
     335              
     336 00000025               .sect   ".text"
     337                      .clink
     338                      .global _cntrlInvOutParam
     339              
     340              $C$DW$45        .dwtag  DW_TAG_subprogram, DW_AT_name("cntrlInvOutParam")
     341                      .dwattr $C$DW$45, DW_AT_low_pc(_cntrlInvOutParam)
     342                      .dwattr $C$DW$45, DW_AT_high_pc(0x00)
     343                      .dwattr $C$DW$45, DW_AT_TI_symbol_name("_cntrlInvOutParam")
     344                      .dwattr $C$DW$45, DW_AT_external
     345                      .dwattr $C$DW$45, DW_AT_TI_begin_file("../ConvertorCntrl/MotorCntrl.c")
     346                      .dwattr $C$DW$45, DW_AT_TI_begin_line(0x24)
     347                      .dwattr $C$DW$45, DW_AT_TI_begin_column(0x06)
     348                      .dwattr $C$DW$45, DW_AT_TI_max_frame_size(-6)
     349                      .dwpsn  file "../ConvertorCntrl/MotorCntrl.c",line 36,column 84,is_stmt,address _cntrlInvOutParam
     350              
     351                      .dwfde $C$DW$CIE, _cntrlInvOutParam
     352              $C$DW$46        .dwtag  DW_TAG_formal_parameter, DW_AT_name("taskF")
     353                      .dwattr $C$DW$46, DW_AT_TI_symbol_name("_taskF")
     354                      .dwattr $C$DW$46, DW_AT_type(*$C$DW$T$21)
     355                      .dwattr $C$DW$46, DW_AT_location[DW_OP_reg12]
     356              $C$DW$47        .dwtag  DW_TAG_formal_parameter, DW_AT_name("taskV")
     357                      .dwattr $C$DW$47, DW_AT_TI_symbol_name("_taskV")
     358                      .dwattr $C$DW$47, DW_AT_type(*$C$DW$T$21)
     359                      .dwattr $C$DW$47, DW_AT_location[DW_OP_reg14]
     360              $C$DW$48        .dwtag  DW_TAG_formal_parameter, DW_AT_name("currentF")
     361                      .dwattr $C$DW$48, DW_AT_TI_symbol_name("_currentF")
     362                      .dwattr $C$DW$48, DW_AT_type(*$C$DW$T$21)
     363                      .dwattr $C$DW$48, DW_AT_location[DW_OP_breg20 -8]
     364              $C$DW$49        .dwtag  DW_TAG_formal_parameter, DW_AT_name("currentV")
     365                      .dwattr $C$DW$49, DW_AT_TI_symbol_name("_currentV")
     366                      .dwattr $C$DW$49, DW_AT_type(*$C$DW$T$21)
     367                      .dwattr $C$DW$49, DW_AT_location[DW_OP_breg20 -10]
     368              
     369              ;***************************************************************
     370              ;* FNAME: _cntrlInvOutParam             FR SIZE:   4           *
     371              ;*                                                             *
     372              ;* FUNCTION ENVIRONMENT                                        *
     373              ;*                                                             *
TMS320C2000 Assembler PC v6.2.7 Thu Jul 02 08:31:30 2015

Tools Copyright (c) 1996-2014 Texas Instruments Incorporated
C:\Users\Tester\AppData\Local\Temp\0422811                           PAGE    8

     374              ;* FUNCTION PROPERTIES                                         *
     375              ;*                            0 Parameter,  4 Auto,  0 SOE     *
     376              ;***************************************************************
     377              
     378 00000025       _cntrlInvOutParam:
     379                      .dwcfi  cfa_offset, -2
     380                      .dwcfi  save_reg_to_mem, 26, 0
     381                      .dwcfi  save_reg_to_reg, 78, 26
     382 00000025 FE04          ADDB      SP,#4                 ; [CPU_U] 
     383                      .dwcfi  cfa_offset, -6
     384              $C$DW$50        .dwtag  DW_TAG_variable, DW_AT_name("taskF")
     385                      .dwattr $C$DW$50, DW_AT_TI_symbol_name("_taskF")
     386                      .dwattr $C$DW$50, DW_AT_type(*$C$DW$T$21)
     387                      .dwattr $C$DW$50, DW_AT_location[DW_OP_breg20 -2]
     388              $C$DW$51        .dwtag  DW_TAG_variable, DW_AT_name("taskV")
     389                      .dwattr $C$DW$51, DW_AT_TI_symbol_name("_taskV")
     390                      .dwattr $C$DW$51, DW_AT_type(*$C$DW$T$21)
     391                      .dwattr $C$DW$51, DW_AT_location[DW_OP_breg20 -4]
     392 00000026 A044          MOVL      *-SP[4],XAR5          ; [CPU_] |36| 
     393 00000027 A842          MOVL      *-SP[2],XAR4          ; [CPU_] |36| 
     394                      .dwpsn  file "../ConvertorCntrl/MotorCntrl.c",line 37,column 2,is_stmt
     395              $C$DW$52        .dwtag  DW_TAG_TI_branch
     396                      .dwattr $C$DW$52, DW_AT_low_pc(0x00)
     397                      .dwattr $C$DW$52, DW_AT_name("_cntrlIrCompensation")
     398                      .dwattr $C$DW$52, DW_AT_TI_call
     399 00000028 7640!         LCR       #_cntrlIrCompensation ; [CPU_] |37| 
         00000029 0000 
     400                      ; call occurs [#_cntrlIrCompensation] ; [] |37| 
     401                      .dwpsn  file "../ConvertorCntrl/MotorCntrl.c",line 38,column 2,is_stmt
     402 0000002a 8A42          MOVL      XAR4,*-SP[2]          ; [CPU_] |38| 
     403 0000002b E2AF          MOV32     R0H,*+XAR4[0]         ; [CPU_] |38| 
         0000002c 00C4 
     404 0000002d 8A48          MOVL      XAR4,*-SP[8]          ; [CPU_] |38| 
     405              $C$DW$53        .dwtag  DW_TAG_TI_branch
     406                      .dwattr $C$DW$53, DW_AT_low_pc(0x00)
     407                      .dwattr $C$DW$53, DW_AT_name("_getMotorFrequency")
     408                      .dwattr $C$DW$53, DW_AT_TI_call
     409 0000002e 7640'         LCR       #_getMotorFrequency   ; [CPU_] |38| 
         0000002f 013B 
     410                      ; call occurs [#_getMotorFrequency] ; [] |38| 
     411                      .dwpsn  file "../ConvertorCntrl/MotorCntrl.c",line 39,column 2,is_stmt
     412 00000030 8A48          MOVL      XAR4,*-SP[8]          ; [CPU_] |39| 
     413 00000031 8342          MOVL      XAR5,*-SP[2]          ; [CPU_] |39| 
     414 00000032 E2AF          MOV32     R1H,*+XAR4[0]         ; [CPU_] |39| 
         00000033 01C4 
     415 00000034 8A44          MOVL      XAR4,*-SP[4]          ; [CPU_] |39| 
     416 00000035 E2AF          MOV32     R0H,*+XAR5[0]         ; [CPU_] |39| 
         00000036 00C5 
     417 00000037 834A          MOVL      XAR5,*-SP[10]         ; [CPU_] |39| 
     418              $C$DW$54        .dwtag  DW_TAG_TI_branch
     419                      .dwattr $C$DW$54, DW_AT_low_pc(0x00)
     420                      .dwattr $C$DW$54, DW_AT_name("_getMotorVoltag")
     421                      .dwattr $C$DW$54, DW_AT_TI_call
     422 00000038 7640'         LCR       #_getMotorVoltag      ; [CPU_] |39| 
         00000039 018C 
TMS320C2000 Assembler PC v6.2.7 Thu Jul 02 08:31:30 2015

Tools Copyright (c) 1996-2014 Texas Instruments Incorporated
C:\Users\Tester\AppData\Local\Temp\0422811                           PAGE    9

     423                      ; call occurs [#_getMotorVoltag] ; [] |39| 
     424                      .dwpsn  file "../ConvertorCntrl/MotorCntrl.c",line 40,column 2,is_stmt
     425 0000003a 8A4A          MOVL      XAR4,*-SP[10]         ; [CPU_] |40| 
     426 0000003b E2AF          MOV32     R0H,*+XAR4[0]         ; [CPU_] |40| 
         0000003c 00C4 
     427              $C$DW$55        .dwtag  DW_TAG_TI_branch
     428                      .dwattr $C$DW$55, DW_AT_low_pc(0x00)
     429                      .dwattr $C$DW$55, DW_AT_name("_setStepAmpl")
     430                      .dwattr $C$DW$55, DW_AT_TI_call
     431 0000003d 7640!         LCR       #_setStepAmpl         ; [CPU_] |40| 
         0000003e 0000 
     432                      ; call occurs [#_setStepAmpl] ; [] |40| 
     433                      .dwpsn  file "../ConvertorCntrl/MotorCntrl.c",line 41,column 2,is_stmt
     434 0000003f 8A48          MOVL      XAR4,*-SP[8]          ; [CPU_] |41| 
     435 00000040 E2AF          MOV32     R0H,*+XAR4[0]         ; [CPU_] |41| 
         00000041 00C4 
     436              $C$DW$56        .dwtag  DW_TAG_TI_branch
     437                      .dwattr $C$DW$56, DW_AT_low_pc(0x00)
     438                      .dwattr $C$DW$56, DW_AT_name("_setStepConer")
     439                      .dwattr $C$DW$56, DW_AT_TI_call
     440 00000042 7640!         LCR       #_setStepConer        ; [CPU_] |41| 
         00000043 0000 
     441                      ; call occurs [#_setStepConer] ; [] |41| 
     442                      .dwpsn  file "../ConvertorCntrl/MotorCntrl.c",line 42,column 1,is_stmt
     443 00000044 FE84          SUBB      SP,#4                 ; [CPU_U] 
     444                      .dwcfi  cfa_offset, -2
     445              $C$DW$57        .dwtag  DW_TAG_TI_branch
     446                      .dwattr $C$DW$57, DW_AT_low_pc(0x00)
     447                      .dwattr $C$DW$57, DW_AT_TI_return
     448 00000045 0006          LRETR     ; [CPU_] 
     449                      ; return occurs ; [] 
     450                      .dwattr $C$DW$45, DW_AT_TI_end_file("../ConvertorCntrl/MotorCntrl.c")
     451                      .dwattr $C$DW$45, DW_AT_TI_end_line(0x2a)
     452                      .dwattr $C$DW$45, DW_AT_TI_end_column(0x01)
     453                      .dwendentry
     454                      .dwendtag $C$DW$45
     455              
     456 00000046               .sect   ".text"
     457                      .clink
     458                      .global _cntrlMotorCntrlPause
     459              
     460              $C$DW$58        .dwtag  DW_TAG_subprogram, DW_AT_name("cntrlMotorCntrlPause")
     461                      .dwattr $C$DW$58, DW_AT_low_pc(_cntrlMotorCntrlPause)
     462                      .dwattr $C$DW$58, DW_AT_high_pc(0x00)
     463                      .dwattr $C$DW$58, DW_AT_TI_symbol_name("_cntrlMotorCntrlPause")
     464                      .dwattr $C$DW$58, DW_AT_external
     465                      .dwattr $C$DW$58, DW_AT_TI_begin_file("../ConvertorCntrl/MotorCntrl.c")
     466                      .dwattr $C$DW$58, DW_AT_TI_begin_line(0x2c)
     467                      .dwattr $C$DW$58, DW_AT_TI_begin_column(0x06)
     468                      .dwattr $C$DW$58, DW_AT_TI_max_frame_size(-10)
     469                      .dwpsn  file "../ConvertorCntrl/MotorCntrl.c",line 44,column 88,is_stmt,address _cntrlMotorCntrlPause
     470              
     471                      .dwfde $C$DW$CIE, _cntrlMotorCntrlPause
     472              $C$DW$59        .dwtag  DW_TAG_formal_parameter, DW_AT_name("taskF")
     473                      .dwattr $C$DW$59, DW_AT_TI_symbol_name("_taskF")
TMS320C2000 Assembler PC v6.2.7 Thu Jul 02 08:31:30 2015

Tools Copyright (c) 1996-2014 Texas Instruments Incorporated
C:\Users\Tester\AppData\Local\Temp\0422811                           PAGE   10

     474                      .dwattr $C$DW$59, DW_AT_type(*$C$DW$T$21)
     475                      .dwattr $C$DW$59, DW_AT_location[DW_OP_reg12]
     476              $C$DW$60        .dwtag  DW_TAG_formal_parameter, DW_AT_name("taskV")
     477                      .dwattr $C$DW$60, DW_AT_TI_symbol_name("_taskV")
     478                      .dwattr $C$DW$60, DW_AT_type(*$C$DW$T$21)
     479                      .dwattr $C$DW$60, DW_AT_location[DW_OP_reg14]
     480              $C$DW$61        .dwtag  DW_TAG_formal_parameter, DW_AT_name("currentF")
     481                      .dwattr $C$DW$61, DW_AT_TI_symbol_name("_currentF")
     482                      .dwattr $C$DW$61, DW_AT_type(*$C$DW$T$21)
     483                      .dwattr $C$DW$61, DW_AT_location[DW_OP_breg20 -12]
     484              $C$DW$62        .dwtag  DW_TAG_formal_parameter, DW_AT_name("currentV")
     485                      .dwattr $C$DW$62, DW_AT_TI_symbol_name("_currentV")
     486                      .dwattr $C$DW$62, DW_AT_type(*$C$DW$T$21)
     487                      .dwattr $C$DW$62, DW_AT_location[DW_OP_breg20 -14]
     488              
     489              ;***************************************************************
     490              ;* FNAME: _cntrlMotorCntrlPause         FR SIZE:   8           *
     491              ;*                                                             *
     492              ;* FUNCTION ENVIRONMENT                                        *
     493              ;*                                                             *
     494              ;* FUNCTION PROPERTIES                                         *
     495              ;*                            4 Parameter,  4 Auto,  0 SOE     *
     496              ;***************************************************************
     497              
     498 00000046       _cntrlMotorCntrlPause:
     499                      .dwcfi  cfa_offset, -2
     500                      .dwcfi  save_reg_to_mem, 26, 0
     501                      .dwcfi  save_reg_to_reg, 78, 26
     502 00000046 FE08          ADDB      SP,#8                 ; [CPU_U] 
     503                      .dwcfi  cfa_offset, -10
     504              $C$DW$63        .dwtag  DW_TAG_variable, DW_AT_name("taskF")
     505                      .dwattr $C$DW$63, DW_AT_TI_symbol_name("_taskF")
     506                      .dwattr $C$DW$63, DW_AT_type(*$C$DW$T$21)
     507                      .dwattr $C$DW$63, DW_AT_location[DW_OP_breg20 -6]
     508              $C$DW$64        .dwtag  DW_TAG_variable, DW_AT_name("taskV")
     509                      .dwattr $C$DW$64, DW_AT_TI_symbol_name("_taskV")
     510                      .dwattr $C$DW$64, DW_AT_type(*$C$DW$T$21)
     511                      .dwattr $C$DW$64, DW_AT_location[DW_OP_breg20 -8]
     512 00000047 A048          MOVL      *-SP[8],XAR5          ; [CPU_] |44| 
     513 00000048 A846          MOVL      *-SP[6],XAR4          ; [CPU_] |44| 
     514                      .dwpsn  file "../ConvertorCntrl/MotorCntrl.c",line 45,column 2,is_stmt
     515 00000049 6F14          B         $C$L4,UNC             ; [CPU_] |45| 
     516                      ; branch occurs ; [] |45| 
     517 0000004a       $C$L1:    
     518                      .dwpsn  file "../ConvertorCntrl/MotorCntrl.c",line 47,column 4,is_stmt
     519 0000004a 2B01-         MOV       @_statusRun,#0        ; [CPU_] |47| 
     520 0000004b       $C$L2:    
     521                      .dwpsn  file "../ConvertorCntrl/MotorCntrl.c",line 51,column 4,is_stmt
     522              $C$DW$65        .dwtag  DW_TAG_TI_branch
     523                      .dwattr $C$DW$65, DW_AT_low_pc(0x00)
     524                      .dwattr $C$DW$65, DW_AT_name("_rstDecelReg")
     525                      .dwattr $C$DW$65, DW_AT_TI_call
     526 0000004b 7640!         LCR       #_rstDecelReg         ; [CPU_] |51| 
         0000004c 0000 
     527                      ; call occurs [#_rstDecelReg] ; [] |51| 
TMS320C2000 Assembler PC v6.2.7 Thu Jul 02 08:31:30 2015

Tools Copyright (c) 1996-2014 Texas Instruments Incorporated
C:\Users\Tester\AppData\Local\Temp\0422811                           PAGE   11

     528                      .dwpsn  file "../ConvertorCntrl/MotorCntrl.c",line 52,column 4,is_stmt
     529 0000004d 8A46          MOVL      XAR4,*-SP[6]          ; [CPU_] |52| 
     530 0000004e 834C          MOVL      XAR5,*-SP[12]         ; [CPU_] |52| 
     531 0000004f 761F-         MOVW      DP,#_mainTask         ; [CPU_U] 
         00000050 0000 
     532 00000051 E2AF-         MOV32     R0H,@_mainTask        ; [CPU_] |52| 
         00000052 0002 
     533              $C$DW$66        .dwtag  DW_TAG_TI_branch
     534                      .dwattr $C$DW$66, DW_AT_low_pc(0x00)
     535                      .dwattr $C$DW$66, DW_AT_name("_AccelarationPause")
     536                      .dwattr $C$DW$66, DW_AT_TI_call
     537 00000053 7640'         LCR       #_AccelarationPause   ; [CPU_] |52| 
         00000054 02FE 
     538                      ; call occurs [#_AccelarationPause] ; [] |52| 
     539                      .dwpsn  file "../ConvertorCntrl/MotorCntrl.c",line 53,column 4,is_stmt
     540 00000055 6F1A          B         $C$L6,UNC             ; [CPU_] |53| 
     541                      ; branch occurs ; [] |53| 
     542 00000056       $C$L3:    
     543                      .dwpsn  file "../ConvertorCntrl/MotorCntrl.c",line 57,column 4,is_stmt
     544 00000056 8A46          MOVL      XAR4,*-SP[6]          ; [CPU_] |57| 
     545 00000057 834C          MOVL      XAR5,*-SP[12]         ; [CPU_] |57| 
     546 00000058 E2AF-         MOV32     R0H,@_mainTask        ; [CPU_] |57| 
         00000059 0002 
     547              $C$DW$67        .dwtag  DW_TAG_TI_branch
     548                      .dwattr $C$DW$67, DW_AT_low_pc(0x00)
     549                      .dwattr $C$DW$67, DW_AT_name("_DecelarationPause")
     550                      .dwattr $C$DW$67, DW_AT_TI_call
     551 0000005a 7640'         LCR       #_DecelarationPause   ; [CPU_] |57| 
         0000005b 033C 
     552                      ; call occurs [#_DecelarationPause] ; [] |57| 
     553                      .dwpsn  file "../ConvertorCntrl/MotorCntrl.c",line 58,column 4,is_stmt
     554 0000005c 6F13          B         $C$L6,UNC             ; [CPU_] |58| 
     555                      ; branch occurs ; [] |58| 
     556 0000005d       $C$L4:    
     557                      .dwpsn  file "../ConvertorCntrl/MotorCntrl.c",line 45,column 2,is_stmt
     558 0000005d 761F-         MOVW      DP,#_statusRun        ; [CPU_U] 
         0000005e 0000 
     559 0000005f 9201-         MOV       AL,@_statusRun        ; [CPU_] |45| 
     560 00000060 620A          B         $C$L5,GT              ; [CPU_] |45| 
     561                      ; branchcc occurs ; [] |45| 
     562 00000061 5200          CMPB      AL,#0                 ; [CPU_] |45| 
     563 00000062 ECE9          BF        $C$L2,EQ              ; [CPU_] |45| 
     564                      ; branchcc occurs ; [] |45| 
     565 00000063 1BA9          CMP       AL,#-2                ; [CPU_] |45| 
         00000064 FFFE 
     566 00000065 ECF1          BF        $C$L3,EQ              ; [CPU_] |45| 
     567                      ; branchcc occurs ; [] |45| 
     568 00000066 1BA9          CMP       AL,#-1                ; [CPU_] |45| 
         00000067 FFFF 
     569 00000068 ECEE          BF        $C$L3,EQ              ; [CPU_] |45| 
     570                      ; branchcc occurs ; [] |45| 
     571 00000069 6FE1          B         $C$L1,UNC             ; [CPU_] |45| 
     572                      ; branch occurs ; [] |45| 
     573 0000006a       $C$L5:    
     574 0000006a 5201          CMPB      AL,#1                 ; [CPU_] |45| 
TMS320C2000 Assembler PC v6.2.7 Thu Jul 02 08:31:30 2015

Tools Copyright (c) 1996-2014 Texas Instruments Incorporated
C:\Users\Tester\AppData\Local\Temp\0422811                           PAGE   12

     575 0000006b ECE0          BF        $C$L2,EQ              ; [CPU_] |45| 
     576                      ; branchcc occurs ; [] |45| 
     577 0000006c 5202          CMPB      AL,#2                 ; [CPU_] |45| 
     578 0000006d ECDE          BF        $C$L2,EQ              ; [CPU_] |45| 
     579                      ; branchcc occurs ; [] |45| 
     580 0000006e 6FDC          B         $C$L1,UNC             ; [CPU_] |45| 
     581                      ; branch occurs ; [] |45| 
     582 0000006f       $C$L6:    
     583                      .dwpsn  file "../ConvertorCntrl/MotorCntrl.c",line 61,column 2,is_stmt
     584 0000006f 064C          MOVL      ACC,*-SP[12]          ; [CPU_] |61| 
     585 00000070 1E42          MOVL      *-SP[2],ACC           ; [CPU_] |61| 
     586 00000071 064E          MOVL      ACC,*-SP[14]          ; [CPU_] |61| 
     587 00000072 1E44          MOVL      *-SP[4],ACC           ; [CPU_] |61| 
     588 00000073 8A46          MOVL      XAR4,*-SP[6]          ; [CPU_] |61| 
     589 00000074 8348          MOVL      XAR5,*-SP[8]          ; [CPU_] |61| 
     590              $C$DW$68        .dwtag  DW_TAG_TI_branch
     591                      .dwattr $C$DW$68, DW_AT_low_pc(0x00)
     592                      .dwattr $C$DW$68, DW_AT_name("_cntrlInvOutParam")
     593                      .dwattr $C$DW$68, DW_AT_TI_call
     594 00000075 7640'         LCR       #_cntrlInvOutParam    ; [CPU_] |61| 
         00000076 0025 
     595                      ; call occurs [#_cntrlInvOutParam] ; [] |61| 
     596                      .dwpsn  file "../ConvertorCntrl/MotorCntrl.c",line 62,column 1,is_stmt
     597 00000077 FE88          SUBB      SP,#8                 ; [CPU_U] 
     598                      .dwcfi  cfa_offset, -2
     599              $C$DW$69        .dwtag  DW_TAG_TI_branch
     600                      .dwattr $C$DW$69, DW_AT_low_pc(0x00)
     601                      .dwattr $C$DW$69, DW_AT_TI_return
     602 00000078 0006          LRETR     ; [CPU_] 
     603                      ; return occurs ; [] 
     604                      .dwattr $C$DW$58, DW_AT_TI_end_file("../ConvertorCntrl/MotorCntrl.c")
     605                      .dwattr $C$DW$58, DW_AT_TI_end_line(0x3e)
     606                      .dwattr $C$DW$58, DW_AT_TI_end_column(0x01)
     607                      .dwendentry
     608                      .dwendtag $C$DW$58
     609              
     610 00000079               .sect   ".text"
     611                      .clink
     612                      .global _controlPwm
     613              
     614              $C$DW$70        .dwtag  DW_TAG_subprogram, DW_AT_name("controlPwm")
     615                      .dwattr $C$DW$70, DW_AT_low_pc(_controlPwm)
     616                      .dwattr $C$DW$70, DW_AT_high_pc(0x00)
     617                      .dwattr $C$DW$70, DW_AT_TI_symbol_name("_controlPwm")
     618                      .dwattr $C$DW$70, DW_AT_external
     619                      .dwattr $C$DW$70, DW_AT_type(*$C$DW$T$47)
     620                      .dwattr $C$DW$70, DW_AT_TI_begin_file("../ConvertorCntrl/MotorCntrl.c")
     621                      .dwattr $C$DW$70, DW_AT_TI_begin_line(0x40)
     622                      .dwattr $C$DW$70, DW_AT_TI_begin_column(0x08)
     623                      .dwattr $C$DW$70, DW_AT_TI_max_frame_size(-14)
     624                      .dwpsn  file "../ConvertorCntrl/MotorCntrl.c",line 64,column 80,is_stmt,address _controlPwm
     625              
     626                      .dwfde $C$DW$CIE, _controlPwm
     627              $C$DW$71        .dwtag  DW_TAG_formal_parameter, DW_AT_name("taskF")
     628                      .dwattr $C$DW$71, DW_AT_TI_symbol_name("_taskF")
TMS320C2000 Assembler PC v6.2.7 Thu Jul 02 08:31:30 2015

Tools Copyright (c) 1996-2014 Texas Instruments Incorporated
C:\Users\Tester\AppData\Local\Temp\0422811                           PAGE   13

     629                      .dwattr $C$DW$71, DW_AT_type(*$C$DW$T$21)
     630                      .dwattr $C$DW$71, DW_AT_location[DW_OP_reg12]
     631              $C$DW$72        .dwtag  DW_TAG_formal_parameter, DW_AT_name("taskV")
     632                      .dwattr $C$DW$72, DW_AT_TI_symbol_name("_taskV")
     633                      .dwattr $C$DW$72, DW_AT_type(*$C$DW$T$21)
     634                      .dwattr $C$DW$72, DW_AT_location[DW_OP_reg14]
     635              $C$DW$73        .dwtag  DW_TAG_formal_parameter, DW_AT_name("currentF")
     636                      .dwattr $C$DW$73, DW_AT_TI_symbol_name("_currentF")
     637                      .dwattr $C$DW$73, DW_AT_type(*$C$DW$T$21)
     638                      .dwattr $C$DW$73, DW_AT_location[DW_OP_breg20 -16]
     639              $C$DW$74        .dwtag  DW_TAG_formal_parameter, DW_AT_name("currentV")
     640                      .dwattr $C$DW$74, DW_AT_TI_symbol_name("_currentV")
     641                      .dwattr $C$DW$74, DW_AT_type(*$C$DW$T$21)
     642                      .dwattr $C$DW$74, DW_AT_location[DW_OP_breg20 -18]
     643              
     644              ;***************************************************************
     645              ;* FNAME: _controlPwm                   FR SIZE:  12           *
     646              ;*                                                             *
     647              ;* FUNCTION ENVIRONMENT                                        *
     648              ;*                                                             *
     649              ;* FUNCTION PROPERTIES                                         *
     650              ;*                            4 Parameter,  8 Auto,  0 SOE     *
     651              ;***************************************************************
     652              
     653 00000079       _controlPwm:
     654                      .dwcfi  cfa_offset, -2
     655                      .dwcfi  save_reg_to_mem, 26, 0
     656                      .dwcfi  save_reg_to_reg, 78, 26
     657 00000079 FE0C          ADDB      SP,#12                ; [CPU_U] 
     658                      .dwcfi  cfa_offset, -14
     659              $C$DW$75        .dwtag  DW_TAG_variable, DW_AT_name("taskF")
     660                      .dwattr $C$DW$75, DW_AT_TI_symbol_name("_taskF")
     661                      .dwattr $C$DW$75, DW_AT_type(*$C$DW$T$21)
     662                      .dwattr $C$DW$75, DW_AT_location[DW_OP_breg20 -6]
     663              $C$DW$76        .dwtag  DW_TAG_variable, DW_AT_name("taskV")
     664                      .dwattr $C$DW$76, DW_AT_TI_symbol_name("_taskV")
     665                      .dwattr $C$DW$76, DW_AT_type(*$C$DW$T$21)
     666                      .dwattr $C$DW$76, DW_AT_location[DW_OP_breg20 -8]
     667              $C$DW$77        .dwtag  DW_TAG_variable, DW_AT_name("tmp")
     668                      .dwattr $C$DW$77, DW_AT_TI_symbol_name("_tmp")
     669                      .dwattr $C$DW$77, DW_AT_type(*$C$DW$T$39)
     670                      .dwattr $C$DW$77, DW_AT_location[DW_OP_breg20 -9]
     671              $C$DW$78        .dwtag  DW_TAG_variable, DW_AT_name("newTask")
     672                      .dwattr $C$DW$78, DW_AT_TI_symbol_name("_newTask")
     673                      .dwattr $C$DW$78, DW_AT_type(*$C$DW$T$16)
     674                      .dwattr $C$DW$78, DW_AT_location[DW_OP_breg20 -12]
     675 0000007a A048          MOVL      *-SP[8],XAR5          ; [CPU_] |64| 
     676 0000007b A846          MOVL      *-SP[6],XAR4          ; [CPU_] |64| 
     677                      .dwpsn  file "../ConvertorCntrl/MotorCntrl.c",line 67,column 2,is_stmt
     678 0000007c 761F-         MOVW      DP,#_cntDelayMC       ; [CPU_U] 
         0000007d 0000 
     679 0000007e 9200-         MOV       AL,@_cntDelayMC       ; [CPU_] |67| 
     680 0000007f EC0C          BF        $C$L7,EQ              ; [CPU_] |67| 
     681                      ; branchcc occurs ; [] |67| 
     682                      .dwpsn  file "../ConvertorCntrl/MotorCntrl.c",line 68,column 3,is_stmt
TMS320C2000 Assembler PC v6.2.7 Thu Jul 02 08:31:30 2015

Tools Copyright (c) 1996-2014 Texas Instruments Incorporated
C:\Users\Tester\AppData\Local\Temp\0422811                           PAGE   14

     683 00000080 0B00-         DEC       @_cntDelayMC          ; [CPU_] |68| 
     684                      .dwpsn  file "../ConvertorCntrl/MotorCntrl.c",line 69,column 3,is_stmt
     685 00000081 0650          MOVL      ACC,*-SP[16]          ; [CPU_] |69| 
     686 00000082 1E42          MOVL      *-SP[2],ACC           ; [CPU_] |69| 
     687 00000083 0652          MOVL      ACC,*-SP[18]          ; [CPU_] |69| 
     688 00000084 1E44          MOVL      *-SP[4],ACC           ; [CPU_] |69| 
     689 00000085 8A46          MOVL      XAR4,*-SP[6]          ; [CPU_] |69| 
     690 00000086 8348          MOVL      XAR5,*-SP[8]          ; [CPU_] |69| 
     691              $C$DW$79        .dwtag  DW_TAG_TI_branch
     692                      .dwattr $C$DW$79, DW_AT_low_pc(0x00)
     693                      .dwattr $C$DW$79, DW_AT_name("_cntrlMotorCntrlPause")
     694                      .dwattr $C$DW$79, DW_AT_TI_call
     695 00000087 7640'         LCR       #_cntrlMotorCntrlPause ; [CPU_] |69| 
         00000088 0046 
     696                      ; call occurs [#_cntrlMotorCntrlPause] ; [] |69| 
     697                      .dwpsn  file "../ConvertorCntrl/MotorCntrl.c",line 70,column 2,is_stmt
     698 00000089 FFEF          B         $C$L17,UNC            ; [CPU_] |70| 
         0000008a 00AF 
     699                      ; branch occurs ; [] |70| 
     700 0000008b       $C$L7:    
     701                      .dwpsn  file "../ConvertorCntrl/MotorCntrl.c",line 71,column 3,is_stmt
     702 0000008b 9A04          MOVB      AL,#4                 ; [CPU_] |71| 
     703              $C$DW$80        .dwtag  DW_TAG_TI_branch
     704                      .dwattr $C$DW$80, DW_AT_low_pc(0x00)
     705                      .dwattr $C$DW$80, DW_AT_name("_testStatusConvertor")
     706                      .dwattr $C$DW$80, DW_AT_TI_call
     707 0000008c 7640!         LCR       #_testStatusConvertor ; [CPU_] |71| 
         0000008d 0000 
     708                      ; call occurs [#_testStatusConvertor] ; [] |71| 
     709 0000008e 5200          CMPB      AL,#0                 ; [CPU_] |71| 
     710 0000008f EC07          BF        $C$L8,EQ              ; [CPU_] |71| 
     711                      ; branchcc occurs ; [] |71| 
     712                      .dwpsn  file "../ConvertorCntrl/MotorCntrl.c",line 72,column 4,is_stmt
     713 00000090 9A01          MOVB      AL,#1                 ; [CPU_] |72| 
     714              $C$DW$81        .dwtag  DW_TAG_TI_branch
     715                      .dwattr $C$DW$81, DW_AT_low_pc(0x00)
     716                      .dwattr $C$DW$81, DW_AT_name("_getMainTask")
     717                      .dwattr $C$DW$81, DW_AT_TI_call
     718 00000091 7640!         LCR       #_getMainTask         ; [CPU_] |72| 
         00000092 0000 
     719                      ; call occurs [#_getMainTask] ; [] |72| 
     720 00000093 E203          MOV32     *-SP[12],R0H          ; [CPU_] |72| 
         00000094 004C 
     721 00000095 6F0F          B         $C$L9,UNC             ; [CPU_] |72| 
     722                      ; branch occurs ; [] |72| 
     723 00000096       $C$L8:    
     724                      .dwpsn  file "../ConvertorCntrl/MotorCntrl.c",line 74,column 4,is_stmt
     725 00000096 9A00          MOVB      AL,#0                 ; [CPU_] |74| 
     726              $C$DW$82        .dwtag  DW_TAG_TI_branch
     727                      .dwattr $C$DW$82, DW_AT_low_pc(0x00)
     728                      .dwattr $C$DW$82, DW_AT_name("_getMainTask")
     729                      .dwattr $C$DW$82, DW_AT_TI_call
     730 00000097 7640!         LCR       #_getMainTask         ; [CPU_] |74| 
         00000098 0000 
     731                      ; call occurs [#_getMainTask] ; [] |74| 
TMS320C2000 Assembler PC v6.2.7 Thu Jul 02 08:31:30 2015

Tools Copyright (c) 1996-2014 Texas Instruments Incorporated
C:\Users\Tester\AppData\Local\Temp\0422811                           PAGE   15

     732 00000099 E203          MOV32     *-SP[12],R0H          ; [CPU_] |74| 
         0000009a 004C 
     733                      .dwpsn  file "../ConvertorCntrl/MotorCntrl.c",line 75,column 4,is_stmt
     734 0000009b 8A50          MOVL      XAR4,*-SP[16]         ; [CPU_] |75| 
     735 0000009c E2AF          MOV32     R0H,*+XAR4[0]         ; [CPU_] |75| 
         0000009d 00C4 
     736 0000009e E5A0          CMPF32    R0H,#0                ; [CPU_] |75| 
     737 0000009f AD14          MOVST0    ZF, NF                ; [CPU_] |75| 
     738 000000a0 6004          B         $C$L9,NEQ             ; [CPU_] |75| 
     739                      ; branchcc occurs ; [] |75| 
     740                      .dwpsn  file "../ConvertorCntrl/MotorCntrl.c",line 76,column 5,is_stmt
     741 000000a1 9A0D          MOVB      AL,#13                ; [CPU_] |76| 
     742 000000a2 FFEF          B         $C$L18,UNC            ; [CPU_] |76| 
         000000a3 0097 
     743                      ; branch occurs ; [] |76| 
     744 000000a4       $C$L9:    
     745                      .dwpsn  file "../ConvertorCntrl/MotorCntrl.c",line 79,column 3,is_stmt
     746 000000a4 761F-         MOVW      DP,#_mainTask         ; [CPU_U] 
         000000a5 0000 
     747 000000a6 E2AF          MOV32     R1H,*-SP[12]          ; [CPU_] |79| 
         000000a7 014C 
     748 000000a8 E2AF-         MOV32     R0H,@_mainTask        ; [CPU_] |79| 
         000000a9 0002 
     749 000000aa E694          CMPF32    R1H,R0H               ; [CPU_] |79| 
         000000ab 0001 
     750 000000ac AD14          MOVST0    ZF, NF                ; [CPU_] |79| 
     751 000000ad 6107          B         $C$L10,EQ             ; [CPU_] |79| 
     752                      ; branchcc occurs ; [] |79| 
     753                      .dwpsn  file "../ConvertorCntrl/MotorCntrl.c",line 80,column 4,is_stmt
     754 000000ae 064C          MOVL      ACC,*-SP[12]          ; [CPU_] |80| 
     755 000000af 1E02-         MOVL      @_mainTask,ACC        ; [CPU_] |80| 
     756                      .dwpsn  file "../ConvertorCntrl/MotorCntrl.c",line 81,column 4,is_stmt
     757 000000b0 8A50          MOVL      XAR4,*-SP[16]         ; [CPU_] |81| 
     758 000000b1 8346          MOVL      XAR5,*-SP[6]          ; [CPU_] |81| 
     759 000000b2 06C4          MOVL      ACC,*+XAR4[0]         ; [CPU_] |81| 
     760 000000b3 1EC5          MOVL      *+XAR5[0],ACC         ; [CPU_] |81| 
     761 000000b4       $C$L10:    
     762                      .dwpsn  file "../ConvertorCntrl/MotorCntrl.c",line 84,column 3,is_stmt
     763 000000b4 E2AF-         MOV32     R0H,@_mainTask        ; [CPU_] |84| 
         000000b5 0002 
     764 000000b6 E5A0          CMPF32    R0H,#0                ; [CPU_] |84| 
     765 000000b7 AD14          MOVST0    ZF, NF                ; [CPU_] |84| 
     766 000000b8 615A          B         $C$L15,EQ             ; [CPU_] |84| 
     767                      ; branchcc occurs ; [] |84| 
     768                      .dwpsn  file "../ConvertorCntrl/MotorCntrl.c",line 85,column 4,is_stmt
     769 000000b9 E5A0          CMPF32    R0H,#0                ; [CPU_] |85| 
     770 000000ba AD14          MOVST0    ZF, NF                ; [CPU_] |85| 
     771 000000bb 6528          B         $C$L12,LEQ            ; [CPU_] |85| 
     772                      ; branchcc occurs ; [] |85| 
     773                      .dwpsn  file "../ConvertorCntrl/MotorCntrl.c",line 88,column 5,is_stmt
     774 000000bc 8A46          MOVL      XAR4,*-SP[6]          ; [CPU_] |88| 
     775 000000bd E2AF          MOV32     R0H,*+XAR4[0]         ; [CPU_] |88| 
         000000be 00C4 
     776 000000bf E5A0          CMPF32    R0H,#0                ; [CPU_] |88| 
     777 000000c0 AD14          MOVST0    ZF, NF                ; [CPU_] |88| 
TMS320C2000 Assembler PC v6.2.7 Thu Jul 02 08:31:30 2015

Tools Copyright (c) 1996-2014 Texas Instruments Incorporated
C:\Users\Tester\AppData\Local\Temp\0422811                           PAGE   16

     778 000000c1 6416          B         $C$L11,LT             ; [CPU_] |88| 
     779                      ; branchcc occurs ; [] |88| 
     780 000000c2 8A46          MOVL      XAR4,*-SP[6]          ; [CPU_] |88| 
     781 000000c3 E2AF-         MOV32     R1H,@_mainTask        ; [CPU_] |88| 
         000000c4 0102 
     782 000000c5 E2AF          MOV32     R0H,*+XAR4[0]         ; [CPU_] |88| 
         000000c6 00C4 
     783 000000c7 E694          CMPF32    R1H,R0H               ; [CPU_] |88| 
         000000c8 0001 
     784 000000c9 AD14          MOVST0    ZF, NF                ; [CPU_] |88| 
     785 000000ca 640D          B         $C$L11,LT             ; [CPU_] |88| 
     786                      ; branchcc occurs ; [] |88| 
     787                      .dwpsn  file "../ConvertorCntrl/MotorCntrl.c",line 90,column 6,is_stmt
     788 000000cb 8A46          MOVL      XAR4,*-SP[6]          ; [CPU_] |90| 
     789 000000cc 8350          MOVL      XAR5,*-SP[16]         ; [CPU_] |90| 
     790 000000cd E2AF-         MOV32     R0H,@_mainTask        ; [CPU_] |90| 
         000000ce 0002 
     791              $C$DW$83        .dwtag  DW_TAG_TI_branch
     792                      .dwattr $C$DW$83, DW_AT_low_pc(0x00)
     793                      .dwattr $C$DW$83, DW_AT_name("_Accelaration")
     794                      .dwattr $C$DW$83, DW_AT_TI_call
     795 000000cf 7640'         LCR       #_Accelaration        ; [CPU_] |90| 
         000000d0 01C2 
     796                      ; call occurs [#_Accelaration] ; [] |90| 
     797                      .dwpsn  file "../ConvertorCntrl/MotorCntrl.c",line 91,column 6,is_stmt
     798              $C$DW$84        .dwtag  DW_TAG_TI_branch
     799                      .dwattr $C$DW$84, DW_AT_low_pc(0x00)
     800                      .dwattr $C$DW$84, DW_AT_name("_getAccelTime")
     801                      .dwattr $C$DW$84, DW_AT_TI_call
     802 000000d1 7640!         LCR       #_getAccelTime        ; [CPU_] |91| 
         000000d2 0000 
     803                      ; call occurs [#_getAccelTime] ; [] |91| 
     804 000000d3 761F-         MOVW      DP,#_cntDelayMC       ; [CPU_U] 
         000000d4 0000 
     805 000000d5 9600-         MOV       @_cntDelayMC,AL       ; [CPU_] |91| 
     806                      .dwpsn  file "../ConvertorCntrl/MotorCntrl.c",line 92,column 5,is_stmt
     807 000000d6 6F33          B         $C$L14,UNC            ; [CPU_] |92| 
     808                      ; branch occurs ; [] |92| 
     809 000000d7       $C$L11:    
     810                      .dwpsn  file "../ConvertorCntrl/MotorCntrl.c",line 93,column 6,is_stmt
     811 000000d7 8A46          MOVL      XAR4,*-SP[6]          ; [CPU_] |93| 
     812 000000d8 8350          MOVL      XAR5,*-SP[16]         ; [CPU_] |93| 
     813 000000d9 E2AF-         MOV32     R0H,@_mainTask        ; [CPU_] |93| 
         000000da 0002 
     814              $C$DW$85        .dwtag  DW_TAG_TI_branch
     815                      .dwattr $C$DW$85, DW_AT_low_pc(0x00)
     816                      .dwattr $C$DW$85, DW_AT_name("_Decelaration")
     817                      .dwattr $C$DW$85, DW_AT_TI_call
     818 000000db 7640'         LCR       #_Decelaration        ; [CPU_] |93| 
         000000dc 0299 
     819                      ; call occurs [#_Decelaration] ; [] |93| 
     820                      .dwpsn  file "../ConvertorCntrl/MotorCntrl.c",line 94,column 6,is_stmt
     821              $C$DW$86        .dwtag  DW_TAG_TI_branch
     822                      .dwattr $C$DW$86, DW_AT_low_pc(0x00)
     823                      .dwattr $C$DW$86, DW_AT_name("_getDecelTime")
TMS320C2000 Assembler PC v6.2.7 Thu Jul 02 08:31:30 2015

Tools Copyright (c) 1996-2014 Texas Instruments Incorporated
C:\Users\Tester\AppData\Local\Temp\0422811                           PAGE   17

     824                      .dwattr $C$DW$86, DW_AT_TI_call
     825 000000dd 7640!         LCR       #_getDecelTime        ; [CPU_] |94| 
         000000de 0000 
     826                      ; call occurs [#_getDecelTime] ; [] |94| 
     827 000000df 761F-         MOVW      DP,#_cntDelayMC       ; [CPU_U] 
         000000e0 0000 
     828 000000e1 9600-         MOV       @_cntDelayMC,AL       ; [CPU_] |94| 
     829                      .dwpsn  file "../ConvertorCntrl/MotorCntrl.c",line 97,column 4,is_stmt
     830 000000e2 6F27          B         $C$L14,UNC            ; [CPU_] |97| 
     831                      ; branch occurs ; [] |97| 
     832 000000e3       $C$L12:    
     833                      .dwpsn  file "../ConvertorCntrl/MotorCntrl.c",line 98,column 5,is_stmt
     834 000000e3 8A46          MOVL      XAR4,*-SP[6]          ; [CPU_] |98| 
     835 000000e4 E2AF          MOV32     R0H,*+XAR4[0]         ; [CPU_] |98| 
         000000e5 00C4 
     836 000000e6 E5A0          CMPF32    R0H,#0                ; [CPU_] |98| 
     837 000000e7 AD14          MOVST0    ZF, NF                ; [CPU_] |98| 
     838 000000e8 6216          B         $C$L13,GT             ; [CPU_] |98| 
     839                      ; branchcc occurs ; [] |98| 
     840 000000e9 8A46          MOVL      XAR4,*-SP[6]          ; [CPU_] |98| 
     841 000000ea E2AF-         MOV32     R1H,@_mainTask        ; [CPU_] |98| 
         000000eb 0102 
     842 000000ec E2AF          MOV32     R0H,*+XAR4[0]         ; [CPU_] |98| 
         000000ed 00C4 
     843 000000ee E694          CMPF32    R1H,R0H               ; [CPU_] |98| 
         000000ef 0001 
     844 000000f0 AD14          MOVST0    ZF, NF                ; [CPU_] |98| 
     845 000000f1 620D          B         $C$L13,GT             ; [CPU_] |98| 
     846                      ; branchcc occurs ; [] |98| 
     847                      .dwpsn  file "../ConvertorCntrl/MotorCntrl.c",line 100,column 6,is_stmt
     848 000000f2 8A46          MOVL      XAR4,*-SP[6]          ; [CPU_] |100| 
     849 000000f3 8350          MOVL      XAR5,*-SP[16]         ; [CPU_] |100| 
     850 000000f4 E2AF-         MOV32     R0H,@_mainTask        ; [CPU_] |100| 
         000000f5 0002 
     851              $C$DW$87        .dwtag  DW_TAG_TI_branch
     852                      .dwattr $C$DW$87, DW_AT_low_pc(0x00)
     853                      .dwattr $C$DW$87, DW_AT_name("_Accelaration")
     854                      .dwattr $C$DW$87, DW_AT_TI_call
     855 000000f6 7640'         LCR       #_Accelaration        ; [CPU_] |100| 
         000000f7 01C2 
     856                      ; call occurs [#_Accelaration] ; [] |100| 
     857                      .dwpsn  file "../ConvertorCntrl/MotorCntrl.c",line 101,column 6,is_stmt
     858              $C$DW$88        .dwtag  DW_TAG_TI_branch
     859                      .dwattr $C$DW$88, DW_AT_low_pc(0x00)
     860                      .dwattr $C$DW$88, DW_AT_name("_getAccelTime")
     861                      .dwattr $C$DW$88, DW_AT_TI_call
     862 000000f8 7640!         LCR       #_getAccelTime        ; [CPU_] |101| 
         000000f9 0000 
     863                      ; call occurs [#_getAccelTime] ; [] |101| 
     864 000000fa 761F-         MOVW      DP,#_cntDelayMC       ; [CPU_U] 
         000000fb 0000 
     865 000000fc 9600-         MOV       @_cntDelayMC,AL       ; [CPU_] |101| 
     866                      .dwpsn  file "../ConvertorCntrl/MotorCntrl.c",line 102,column 5,is_stmt
     867 000000fd 6F0C          B         $C$L14,UNC            ; [CPU_] |102| 
     868                      ; branch occurs ; [] |102| 
TMS320C2000 Assembler PC v6.2.7 Thu Jul 02 08:31:30 2015

Tools Copyright (c) 1996-2014 Texas Instruments Incorporated
C:\Users\Tester\AppData\Local\Temp\0422811                           PAGE   18

     869 000000fe       $C$L13:    
     870                      .dwpsn  file "../ConvertorCntrl/MotorCntrl.c",line 103,column 6,is_stmt
     871 000000fe 8A46          MOVL      XAR4,*-SP[6]          ; [CPU_] |103| 
     872 000000ff 8350          MOVL      XAR5,*-SP[16]         ; [CPU_] |103| 
     873 00000100 E2AF-         MOV32     R0H,@_mainTask        ; [CPU_] |103| 
         00000101 0002 
     874              $C$DW$89        .dwtag  DW_TAG_TI_branch
     875                      .dwattr $C$DW$89, DW_AT_low_pc(0x00)
     876                      .dwattr $C$DW$89, DW_AT_name("_Decelaration")
     877                      .dwattr $C$DW$89, DW_AT_TI_call
     878 00000102 7640'         LCR       #_Decelaration        ; [CPU_] |103| 
         00000103 0299 
     879                      ; call occurs [#_Decelaration] ; [] |103| 
     880                      .dwpsn  file "../ConvertorCntrl/MotorCntrl.c",line 104,column 6,is_stmt
     881              $C$DW$90        .dwtag  DW_TAG_TI_branch
     882                      .dwattr $C$DW$90, DW_AT_low_pc(0x00)
     883                      .dwattr $C$DW$90, DW_AT_name("_getDecelTime")
     884                      .dwattr $C$DW$90, DW_AT_TI_call
     885 00000104 7640!         LCR       #_getDecelTime        ; [CPU_] |104| 
         00000105 0000 
     886                      ; call occurs [#_getDecelTime] ; [] |104| 
     887 00000106 761F-         MOVW      DP,#_cntDelayMC       ; [CPU_U] 
         00000107 0000 
     888 00000108 9600-         MOV       @_cntDelayMC,AL       ; [CPU_] |104| 
     889 00000109       $C$L14:    
     890                      .dwpsn  file "../ConvertorCntrl/MotorCntrl.c",line 107,column 4,is_stmt
     891 00000109 0650          MOVL      ACC,*-SP[16]          ; [CPU_] |107| 
     892 0000010a 1E42          MOVL      *-SP[2],ACC           ; [CPU_] |107| 
     893 0000010b 0652          MOVL      ACC,*-SP[18]          ; [CPU_] |107| 
     894 0000010c 1E44          MOVL      *-SP[4],ACC           ; [CPU_] |107| 
     895 0000010d 8A46          MOVL      XAR4,*-SP[6]          ; [CPU_] |107| 
     896 0000010e 8348          MOVL      XAR5,*-SP[8]          ; [CPU_] |107| 
     897              $C$DW$91        .dwtag  DW_TAG_TI_branch
     898                      .dwattr $C$DW$91, DW_AT_low_pc(0x00)
     899                      .dwattr $C$DW$91, DW_AT_name("_cntrlInvOutParam")
     900                      .dwattr $C$DW$91, DW_AT_TI_call
     901 0000010f 7640'         LCR       #_cntrlInvOutParam    ; [CPU_] |107| 
         00000110 0025 
     902                      ; call occurs [#_cntrlInvOutParam] ; [] |107| 
     903                      .dwpsn  file "../ConvertorCntrl/MotorCntrl.c",line 108,column 3,is_stmt
     904 00000111 6F27          B         $C$L17,UNC            ; [CPU_] |108| 
     905                      ; branch occurs ; [] |108| 
     906 00000112       $C$L15:    
     907                      .dwpsn  file "../ConvertorCntrl/MotorCntrl.c",line 109,column 4,is_stmt
     908 00000112 8A46          MOVL      XAR4,*-SP[6]          ; [CPU_] |109| 
     909 00000113 8352          MOVL      XAR5,*-SP[18]         ; [CPU_] |109| 
     910              $C$DW$92        .dwtag  DW_TAG_TI_branch
     911                      .dwattr $C$DW$92, DW_AT_low_pc(0x00)
     912                      .dwattr $C$DW$92, DW_AT_name("_DcDecelatration")
     913                      .dwattr $C$DW$92, DW_AT_TI_call
     914 00000114 7640!         LCR       #_DcDecelatration     ; [CPU_] |109| 
         00000115 0000 
     915                      ; call occurs [#_DcDecelatration] ; [] |109| 
     916 00000116 9649          MOV       *-SP[9],AL            ; [CPU_] |109| 
     917                      .dwpsn  file "../ConvertorCntrl/MotorCntrl.c",line 110,column 4,is_stmt
TMS320C2000 Assembler PC v6.2.7 Thu Jul 02 08:31:30 2015

Tools Copyright (c) 1996-2014 Texas Instruments Incorporated
C:\Users\Tester\AppData\Local\Temp\0422811                           PAGE   19

     918 00000117 5200          CMPB      AL,#0                 ; [CPU_] |110| 
     919 00000118 ED0F          BF        $C$L16,NEQ            ; [CPU_] |110| 
     920                      ; branchcc occurs ; [] |110| 
     921                      .dwpsn  file "../ConvertorCntrl/MotorCntrl.c",line 111,column 5,is_stmt
     922 00000119 8A46          MOVL      XAR4,*-SP[6]          ; [CPU_] |111| 
     923 0000011a E590          ZERO      R0H                   ; [CPU_] |111| 
     924 0000011b E203          MOV32     *+XAR4[0],R0H         ; [CPU_] |111| 
         0000011c 00C4 
     925                      .dwpsn  file "../ConvertorCntrl/MotorCntrl.c",line 112,column 5,is_stmt
     926 0000011d 8A48          MOVL      XAR4,*-SP[8]          ; [CPU_] |112| 
     927 0000011e E203          MOV32     *+XAR4[0],R0H         ; [CPU_] |112| 
         0000011f 00C4 
     928                      .dwpsn  file "../ConvertorCntrl/MotorCntrl.c",line 113,column 5,is_stmt
     929 00000120 8A50          MOVL      XAR4,*-SP[16]         ; [CPU_] |113| 
     930 00000121 E203          MOV32     *+XAR4[0],R0H         ; [CPU_] |113| 
         00000122 00C4 
     931                      .dwpsn  file "../ConvertorCntrl/MotorCntrl.c",line 114,column 5,is_stmt
     932 00000123 8A52          MOVL      XAR4,*-SP[18]         ; [CPU_] |114| 
     933 00000124 E203          MOV32     *+XAR4[0],R0H         ; [CPU_] |114| 
         00000125 00C4 
     934                      .dwpsn  file "../ConvertorCntrl/MotorCntrl.c",line 115,column 4,is_stmt
     935 00000126 6F12          B         $C$L17,UNC            ; [CPU_] |115| 
     936                      ; branch occurs ; [] |115| 
     937 00000127       $C$L16:    
     938                      .dwpsn  file "../ConvertorCntrl/MotorCntrl.c",line 116,column 5,is_stmt
     939              $C$DW$93        .dwtag  DW_TAG_TI_branch
     940                      .dwattr $C$DW$93, DW_AT_low_pc(0x00)
     941                      .dwattr $C$DW$93, DW_AT_name("_getDecelTime")
     942                      .dwattr $C$DW$93, DW_AT_TI_call
     943 00000127 7640!         LCR       #_getDecelTime        ; [CPU_] |116| 
         00000128 0000 
     944                      ; call occurs [#_getDecelTime] ; [] |116| 
     945 00000129 761F-         MOVW      DP,#_cntDelayMC       ; [CPU_U] 
         0000012a 0000 
     946 0000012b 9600-         MOV       @_cntDelayMC,AL       ; [CPU_] |116| 
     947                      .dwpsn  file "../ConvertorCntrl/MotorCntrl.c",line 117,column 5,is_stmt
     948 0000012c 8A46          MOVL      XAR4,*-SP[6]          ; [CPU_] |117| 
     949 0000012d 8350          MOVL      XAR5,*-SP[16]         ; [CPU_] |117| 
     950              $C$DW$94        .dwtag  DW_TAG_TI_branch
     951                      .dwattr $C$DW$94, DW_AT_low_pc(0x00)
     952                      .dwattr $C$DW$94, DW_AT_name("_DecelarationStop")
     953                      .dwattr $C$DW$94, DW_AT_TI_call
     954 0000012e 7640'         LCR       #_DecelarationStop    ; [CPU_] |117| 
         0000012f 0243 
     955                      ; call occurs [#_DecelarationStop] ; [] |117| 
     956                      .dwpsn  file "../ConvertorCntrl/MotorCntrl.c",line 118,column 5,is_stmt
     957 00000130 0650          MOVL      ACC,*-SP[16]          ; [CPU_] |118| 
     958 00000131 1E42          MOVL      *-SP[2],ACC           ; [CPU_] |118| 
     959 00000132 0652          MOVL      ACC,*-SP[18]          ; [CPU_] |118| 
     960 00000133 1E44          MOVL      *-SP[4],ACC           ; [CPU_] |118| 
     961 00000134 8A46          MOVL      XAR4,*-SP[6]          ; [CPU_] |118| 
     962 00000135 8348          MOVL      XAR5,*-SP[8]          ; [CPU_] |118| 
     963              $C$DW$95        .dwtag  DW_TAG_TI_branch
     964                      .dwattr $C$DW$95, DW_AT_low_pc(0x00)
     965                      .dwattr $C$DW$95, DW_AT_name("_cntrlInvOutParam")
TMS320C2000 Assembler PC v6.2.7 Thu Jul 02 08:31:30 2015

Tools Copyright (c) 1996-2014 Texas Instruments Incorporated
C:\Users\Tester\AppData\Local\Temp\0422811                           PAGE   20

     966                      .dwattr $C$DW$95, DW_AT_TI_call
     967 00000136 7640'         LCR       #_cntrlInvOutParam    ; [CPU_] |118| 
         00000137 0025 
     968                      ; call occurs [#_cntrlInvOutParam] ; [] |118| 
     969 00000138       $C$L17:    
     970                      .dwpsn  file "../ConvertorCntrl/MotorCntrl.c",line 123,column 2,is_stmt
     971 00000138 9A0C          MOVB      AL,#12                ; [CPU_] |123| 
     972 00000139       $C$L18:    
     973                      .dwpsn  file "../ConvertorCntrl/MotorCntrl.c",line 124,column 1,is_stmt
     974 00000139 FE8C          SUBB      SP,#12                ; [CPU_U] 
     975                      .dwcfi  cfa_offset, -2
     976              $C$DW$96        .dwtag  DW_TAG_TI_branch
     977                      .dwattr $C$DW$96, DW_AT_low_pc(0x00)
     978                      .dwattr $C$DW$96, DW_AT_TI_return
     979 0000013a 0006          LRETR     ; [CPU_] 
     980                      ; return occurs ; [] 
     981                      .dwattr $C$DW$70, DW_AT_TI_end_file("../ConvertorCntrl/MotorCntrl.c")
     982                      .dwattr $C$DW$70, DW_AT_TI_end_line(0x7c)
     983                      .dwattr $C$DW$70, DW_AT_TI_end_column(0x01)
     984                      .dwendentry
     985                      .dwendtag $C$DW$70
     986              
     987 0000013b               .sect   ".text"
     988                      .clink
     989                      .global _getMotorFrequency
     990              
     991              $C$DW$97        .dwtag  DW_TAG_subprogram, DW_AT_name("getMotorFrequency")
     992                      .dwattr $C$DW$97, DW_AT_low_pc(_getMotorFrequency)
     993                      .dwattr $C$DW$97, DW_AT_high_pc(0x00)
     994                      .dwattr $C$DW$97, DW_AT_TI_symbol_name("_getMotorFrequency")
     995                      .dwattr $C$DW$97, DW_AT_external
     996                      .dwattr $C$DW$97, DW_AT_TI_begin_file("../ConvertorCntrl/MotorCntrl.c")
     997                      .dwattr $C$DW$97, DW_AT_TI_begin_line(0x7e)
     998                      .dwattr $C$DW$97, DW_AT_TI_begin_column(0x06)
     999                      .dwattr $C$DW$97, DW_AT_TI_max_frame_size(-10)
    1000                      .dwpsn  file "../ConvertorCntrl/MotorCntrl.c",line 126,column 53,is_stmt,address _getMotorFrequency
    1001              
    1002                      .dwfde $C$DW$CIE, _getMotorFrequency
    1003              $C$DW$98        .dwtag  DW_TAG_formal_parameter, DW_AT_name("task")
    1004                      .dwattr $C$DW$98, DW_AT_TI_symbol_name("_task")
    1005                      .dwattr $C$DW$98, DW_AT_type(*$C$DW$T$16)
    1006                      .dwattr $C$DW$98, DW_AT_location[DW_OP_regx 0x2b]
    1007              $C$DW$99        .dwtag  DW_TAG_formal_parameter, DW_AT_name("frequency")
    1008                      .dwattr $C$DW$99, DW_AT_TI_symbol_name("_frequency")
    1009                      .dwattr $C$DW$99, DW_AT_type(*$C$DW$T$21)
    1010                      .dwattr $C$DW$99, DW_AT_location[DW_OP_reg12]
    1011              
    1012              ;***************************************************************
    1013              ;* FNAME: _getMotorFrequency            FR SIZE:   8           *
    1014              ;*                                                             *
    1015              ;* FUNCTION ENVIRONMENT                                        *
    1016              ;*                                                             *
    1017              ;* FUNCTION PROPERTIES                                         *
    1018              ;*                            2 Parameter,  6 Auto,  0 SOE     *
    1019              ;***************************************************************
TMS320C2000 Assembler PC v6.2.7 Thu Jul 02 08:31:30 2015

Tools Copyright (c) 1996-2014 Texas Instruments Incorporated
C:\Users\Tester\AppData\Local\Temp\0422811                           PAGE   21

    1020              
    1021 0000013b       _getMotorFrequency:
    1022                      .dwcfi  cfa_offset, -2
    1023                      .dwcfi  save_reg_to_mem, 26, 0
    1024                      .dwcfi  save_reg_to_reg, 78, 26
    1025 0000013b FE08          ADDB      SP,#8                 ; [CPU_U] 
    1026                      .dwcfi  cfa_offset, -10
    1027              $C$DW$100       .dwtag  DW_TAG_variable, DW_AT_name("task")
    1028                      .dwattr $C$DW$100, DW_AT_TI_symbol_name("_task")
    1029                      .dwattr $C$DW$100, DW_AT_type(*$C$DW$T$16)
    1030                      .dwattr $C$DW$100, DW_AT_location[DW_OP_breg20 -4]
    1031              $C$DW$101       .dwtag  DW_TAG_variable, DW_AT_name("frequency")
    1032                      .dwattr $C$DW$101, DW_AT_TI_symbol_name("_frequency")
    1033                      .dwattr $C$DW$101, DW_AT_type(*$C$DW$T$21)
    1034                      .dwattr $C$DW$101, DW_AT_location[DW_OP_breg20 -6]
    1035              $C$DW$102       .dwtag  DW_TAG_variable, DW_AT_name("tmp")
    1036                      .dwattr $C$DW$102, DW_AT_TI_symbol_name("_tmp")
    1037                      .dwattr $C$DW$102, DW_AT_type(*$C$DW$T$16)
    1038                      .dwattr $C$DW$102, DW_AT_location[DW_OP_breg20 -8]
    1039 0000013c A846          MOVL      *-SP[6],XAR4          ; [CPU_] |126| 
    1040 0000013d E203          MOV32     *-SP[4],R0H           ; [CPU_] |126| 
         0000013e 0044 
    1041                      .dwpsn  file "../ConvertorCntrl/MotorCntrl.c",line 128,column 2,is_stmt
    1042 0000013f 8A46          MOVL      XAR4,*-SP[6]          ; [CPU_] |128| 
    1043 00000140 06C4          MOVL      ACC,*+XAR4[0]         ; [CPU_] |128| 
    1044 00000141 1E48          MOVL      *-SP[8],ACC           ; [CPU_] |128| 
    1045                      .dwpsn  file "../ConvertorCntrl/MotorCntrl.c",line 129,column 2,is_stmt
    1046 00000142 761F-         MOVW      DP,#_statusRun        ; [CPU_U] 
         00000143 0000 
    1047 00000144 9201-         MOV       AL,@_statusRun        ; [CPU_] |129| 
    1048 00000145 ED3A          BF        $C$L20,NEQ            ; [CPU_] |129| 
    1049                      ; branchcc occurs ; [] |129| 
    1050                      .dwpsn  file "../ConvertorCntrl/MotorCntrl.c",line 130,column 3,is_stmt
    1051 00000146 E5A0          CMPF32    R0H,#0                ; [CPU_] |130| 
    1052 00000147 AD14          MOVST0    ZF, NF                ; [CPU_] |130| 
    1053 00000148 6517          B         $C$L19,LEQ            ; [CPU_] |130| 
    1054                      ; branchcc occurs ; [] |130| 
    1055                      .dwpsn  file "../ConvertorCntrl/MotorCntrl.c",line 131,column 4,is_stmt
    1056              $C$DW$103       .dwtag  DW_TAG_TI_branch
    1057                      .dwattr $C$DW$103, DW_AT_low_pc(0x00)
    1058                      .dwattr $C$DW$103, DW_AT_name("_getAddedFrequency")
    1059                      .dwattr $C$DW$103, DW_AT_TI_call
    1060 00000149 7640!         LCR       #_getAddedFrequency   ; [CPU_] |131| 
         0000014a 0000 
    1061                      ; call occurs [#_getAddedFrequency] ; [] |131| 
    1062 0000014b E2AF          MOV32     R1H,*-SP[8]           ; [CPU_] |131| 
         0000014c 0148 
    1063 0000014d E710          ADDF32    R0H,R0H,R1H           ; [CPU_] |131| 
         0000014e 0040 
    1064 0000014f 7700          NOP       ; [CPU_] 
    1065 00000150 E203          MOV32     *-SP[8],R0H           ; [CPU_] |131| 
         00000151 0048 
    1066                      .dwpsn  file "../ConvertorCntrl/MotorCntrl.c",line 132,column 4,is_stmt
    1067 00000152 761F-         MOVW      DP,#_MaxInvertorFrequency ; [CPU_U] 
         00000153 0000 
TMS320C2000 Assembler PC v6.2.7 Thu Jul 02 08:31:30 2015

Tools Copyright (c) 1996-2014 Texas Instruments Incorporated
C:\Users\Tester\AppData\Local\Temp\0422811                           PAGE   22

    1068 00000154 E2AF          MOV32     R1H,*-SP[8]           ; [CPU_] |132| 
         00000155 0148 
    1069 00000156 E2AF-         MOV32     R0H,@_MaxInvertorFrequency ; [CPU_] |132| 
         00000157 0004 
    1070 00000158 E694          CMPF32    R1H,R0H               ; [CPU_] |132| 
         00000159 0001 
    1071 0000015a AD14          MOVST0    ZF, NF                ; [CPU_] |132| 
    1072 0000015b 6524          B         $C$L20,LEQ            ; [CPU_] |132| 
    1073                      ; branchcc occurs ; [] |132| 
    1074                      .dwpsn  file "../ConvertorCntrl/MotorCntrl.c",line 133,column 5,is_stmt
    1075 0000015c 0604-         MOVL      ACC,@_MaxInvertorFrequency ; [CPU_] |133| 
    1076 0000015d 1E48          MOVL      *-SP[8],ACC           ; [CPU_] |133| 
    1077                      .dwpsn  file "../ConvertorCntrl/MotorCntrl.c",line 135,column 3,is_stmt
    1078 0000015e 6F21          B         $C$L20,UNC            ; [CPU_] |135| 
    1079                      ; branch occurs ; [] |135| 
    1080 0000015f       $C$L19:    
    1081                      .dwpsn  file "../ConvertorCntrl/MotorCntrl.c",line 136,column 4,is_stmt
    1082 0000015f E2AF          MOV32     R0H,*-SP[8]           ; [CPU_] |136| 
         00000160 0048 
    1083 00000161 E5A0          CMPF32    R0H,#0                ; [CPU_] |136| 
    1084 00000162 AD14          MOVST0    ZF, NF                ; [CPU_] |136| 
    1085 00000163 611C          B         $C$L20,EQ             ; [CPU_] |136| 
    1086                      ; branchcc occurs ; [] |136| 
    1087                      .dwpsn  file "../ConvertorCntrl/MotorCntrl.c",line 137,column 5,is_stmt
    1088              $C$DW$104       .dwtag  DW_TAG_TI_branch
    1089                      .dwattr $C$DW$104, DW_AT_low_pc(0x00)
    1090                      .dwattr $C$DW$104, DW_AT_name("_getAddedFrequency")
    1091                      .dwattr $C$DW$104, DW_AT_TI_call
    1092 00000164 7640!         LCR       #_getAddedFrequency   ; [CPU_] |137| 
         00000165 0000 
    1093                      ; call occurs [#_getAddedFrequency] ; [] |137| 
    1094 00000166 E2AF          MOV32     R1H,*-SP[8]           ; [CPU_] |137| 
         00000167 0148 
    1095 00000168 E720          SUBF32    R0H,R1H,R0H           ; [CPU_] |137| 
         00000169 0008 
    1096 0000016a 7700          NOP       ; [CPU_] 
    1097 0000016b E203          MOV32     *-SP[8],R0H           ; [CPU_] |137| 
         0000016c 0048 
    1098                      .dwpsn  file "../ConvertorCntrl/MotorCntrl.c",line 138,column 5,is_stmt
    1099 0000016d 761F-         MOVW      DP,#_MaxInvertorFrequency ; [CPU_U] 
         0000016e 0000 
    1100 0000016f E2AF          MOV32     R1H,*-SP[8]           ; [CPU_] |138| 
         00000170 0148 
    1101 00000171 E2AF-         MOV32     R0H,@_MaxInvertorFrequency ; [CPU_] |138| 
         00000172 0004 
    1102 00000173 E6AF          NEGF32    R0H,R0H               ; [CPU_] |138| 
         00000174 0000 
    1103 00000175 E694          CMPF32    R1H,R0H               ; [CPU_] |138| 
         00000176 0001 
    1104 00000177 AD14          MOVST0    ZF, NF                ; [CPU_] |138| 
    1105 00000178 6307          B         $C$L20,GEQ            ; [CPU_] |138| 
    1106                      ; branchcc occurs ; [] |138| 
    1107                      .dwpsn  file "../ConvertorCntrl/MotorCntrl.c",line 139,column 6,is_stmt
    1108 00000179 E2AF-         MOV32     R0H,@_MaxInvertorFrequency ; [CPU_] |139| 
         0000017a 0004 
TMS320C2000 Assembler PC v6.2.7 Thu Jul 02 08:31:30 2015

Tools Copyright (c) 1996-2014 Texas Instruments Incorporated
C:\Users\Tester\AppData\Local\Temp\0422811                           PAGE   23

    1109 0000017b E6AF          NEGF32    R0H,R0H               ; [CPU_] |139| 
         0000017c 0000 
    1110 0000017d E203          MOV32     *-SP[8],R0H           ; [CPU_] |139| 
         0000017e 0048 
    1111 0000017f       $C$L20:    
    1112                      .dwpsn  file "../ConvertorCntrl/MotorCntrl.c",line 143,column 2,is_stmt
    1113 0000017f 8A46          MOVL      XAR4,*-SP[6]          ; [CPU_] |143| 
    1114 00000180 0648          MOVL      ACC,*-SP[8]           ; [CPU_] |143| 
    1115 00000181 1EC4          MOVL      *+XAR4[0],ACC         ; [CPU_] |143| 
    1116                      .dwpsn  file "../ConvertorCntrl/MotorCntrl.c",line 144,column 1,is_stmt
    1117 00000182 FE88          SUBB      SP,#8                 ; [CPU_U] 
    1118                      .dwcfi  cfa_offset, -2
    1119              $C$DW$105       .dwtag  DW_TAG_TI_branch
    1120                      .dwattr $C$DW$105, DW_AT_low_pc(0x00)
    1121                      .dwattr $C$DW$105, DW_AT_TI_return
    1122 00000183 0006          LRETR     ; [CPU_] 
    1123                      ; return occurs ; [] 
    1124                      .dwattr $C$DW$97, DW_AT_TI_end_file("../ConvertorCntrl/MotorCntrl.c")
    1125                      .dwattr $C$DW$97, DW_AT_TI_end_line(0x90)
    1126                      .dwattr $C$DW$97, DW_AT_TI_end_column(0x01)
    1127                      .dwendentry
    1128                      .dwendtag $C$DW$97
    1129              
    1130 00000184               .sect   ".text"
    1131                      .clink
    1132                      .global _getCorrectionVoltag
    1133              
    1134              $C$DW$106       .dwtag  DW_TAG_subprogram, DW_AT_name("getCorrectionVoltag")
    1135                      .dwattr $C$DW$106, DW_AT_low_pc(_getCorrectionVoltag)
    1136                      .dwattr $C$DW$106, DW_AT_high_pc(0x00)
    1137                      .dwattr $C$DW$106, DW_AT_TI_symbol_name("_getCorrectionVoltag")
    1138                      .dwattr $C$DW$106, DW_AT_external
    1139                      .dwattr $C$DW$106, DW_AT_type(*$C$DW$T$16)
    1140                      .dwattr $C$DW$106, DW_AT_TI_begin_file("../ConvertorCntrl/MotorCntrl.c")
    1141                      .dwattr $C$DW$106, DW_AT_TI_begin_line(0x92)
    1142                      .dwattr $C$DW$106, DW_AT_TI_begin_column(0x07)
    1143                      .dwattr $C$DW$106, DW_AT_TI_max_frame_size(-6)
    1144                      .dwpsn  file "../ConvertorCntrl/MotorCntrl.c",line 146,column 38,is_stmt,address _getCorrectionVoltag
    1145              
    1146                      .dwfde $C$DW$CIE, _getCorrectionVoltag
    1147              $C$DW$107       .dwtag  DW_TAG_formal_parameter, DW_AT_name("freq")
    1148                      .dwattr $C$DW$107, DW_AT_TI_symbol_name("_freq")
    1149                      .dwattr $C$DW$107, DW_AT_type(*$C$DW$T$16)
    1150                      .dwattr $C$DW$107, DW_AT_location[DW_OP_regx 0x2b]
    1151              
    1152              ;***************************************************************
    1153              ;* FNAME: _getCorrectionVoltag          FR SIZE:   4           *
    1154              ;*                                                             *
    1155              ;* FUNCTION ENVIRONMENT                                        *
    1156              ;*                                                             *
    1157              ;* FUNCTION PROPERTIES                                         *
    1158              ;*                            0 Parameter,  4 Auto,  0 SOE     *
    1159              ;***************************************************************
    1160              
    1161 00000184       _getCorrectionVoltag:
TMS320C2000 Assembler PC v6.2.7 Thu Jul 02 08:31:30 2015

Tools Copyright (c) 1996-2014 Texas Instruments Incorporated
C:\Users\Tester\AppData\Local\Temp\0422811                           PAGE   24

    1162                      .dwcfi  cfa_offset, -2
    1163                      .dwcfi  save_reg_to_mem, 26, 0
    1164                      .dwcfi  save_reg_to_reg, 78, 26
    1165 00000184 FE04          ADDB      SP,#4                 ; [CPU_U] 
    1166                      .dwcfi  cfa_offset, -6
    1167              $C$DW$108       .dwtag  DW_TAG_variable, DW_AT_name("freq")
    1168                      .dwattr $C$DW$108, DW_AT_TI_symbol_name("_freq")
    1169                      .dwattr $C$DW$108, DW_AT_type(*$C$DW$T$16)
    1170                      .dwattr $C$DW$108, DW_AT_location[DW_OP_breg20 -2]
    1171              $C$DW$109       .dwtag  DW_TAG_variable, DW_AT_name("tmp")
    1172                      .dwattr $C$DW$109, DW_AT_TI_symbol_name("_tmp")
    1173                      .dwattr $C$DW$109, DW_AT_type(*$C$DW$T$16)
    1174                      .dwattr $C$DW$109, DW_AT_location[DW_OP_breg20 -4]
    1175 00000185 E203          MOV32     *-SP[2],R0H           ; [CPU_] |146| 
         00000186 0042 
    1176                      .dwpsn  file "../ConvertorCntrl/MotorCntrl.c",line 147,column 12,is_stmt
    1177 00000187 E590          ZERO      R0H                   ; [CPU_] |147| 
    1178 00000188 E203          MOV32     *-SP[4],R0H           ; [CPU_] |147| 
         00000189 0044 
    1179                      .dwpsn  file "../ConvertorCntrl/MotorCntrl.c",line 151,column 2,is_stmt
    1180                      .dwpsn  file "../ConvertorCntrl/MotorCntrl.c",line 152,column 1,is_stmt
    1181 0000018a FE84          SUBB      SP,#4                 ; [CPU_U] 
    1182                      .dwcfi  cfa_offset, -2
    1183              $C$DW$110       .dwtag  DW_TAG_TI_branch
    1184                      .dwattr $C$DW$110, DW_AT_low_pc(0x00)
    1185                      .dwattr $C$DW$110, DW_AT_TI_return
    1186 0000018b 0006          LRETR     ; [CPU_] 
    1187                      ; return occurs ; [] 
    1188                      .dwattr $C$DW$106, DW_AT_TI_end_file("../ConvertorCntrl/MotorCntrl.c")
    1189                      .dwattr $C$DW$106, DW_AT_TI_end_line(0x98)
    1190                      .dwattr $C$DW$106, DW_AT_TI_end_column(0x01)
    1191                      .dwendentry
    1192                      .dwendtag $C$DW$106
    1193              
    1194 0000018c               .sect   ".text"
    1195                      .clink
    1196                      .global _getMotorVoltag
    1197              
    1198              $C$DW$111       .dwtag  DW_TAG_subprogram, DW_AT_name("getMotorVoltag")
    1199                      .dwattr $C$DW$111, DW_AT_low_pc(_getMotorVoltag)
    1200                      .dwattr $C$DW$111, DW_AT_high_pc(0x00)
    1201                      .dwattr $C$DW$111, DW_AT_TI_symbol_name("_getMotorVoltag")
    1202                      .dwattr $C$DW$111, DW_AT_external
    1203                      .dwattr $C$DW$111, DW_AT_TI_begin_file("../ConvertorCntrl/MotorCntrl.c")
    1204                      .dwattr $C$DW$111, DW_AT_TI_begin_line(0x9a)
    1205                      .dwattr $C$DW$111, DW_AT_TI_begin_column(0x06)
    1206                      .dwattr $C$DW$111, DW_AT_TI_max_frame_size(-14)
    1207                      .dwpsn  file "../ConvertorCntrl/MotorCntrl.c",line 155,column 52,is_stmt,address _getMotorVoltag
    1208              
    1209                      .dwfde $C$DW$CIE, _getMotorVoltag
    1210              $C$DW$112       .dwtag  DW_TAG_formal_parameter, DW_AT_name("frequencyInv")
    1211                      .dwattr $C$DW$112, DW_AT_TI_symbol_name("_frequencyInv")
    1212                      .dwattr $C$DW$112, DW_AT_type(*$C$DW$T$16)
    1213                      .dwattr $C$DW$112, DW_AT_location[DW_OP_regx 0x2b]
    1214              $C$DW$113       .dwtag  DW_TAG_formal_parameter, DW_AT_name("frequencyMotor")
TMS320C2000 Assembler PC v6.2.7 Thu Jul 02 08:31:30 2015

Tools Copyright (c) 1996-2014 Texas Instruments Incorporated
C:\Users\Tester\AppData\Local\Temp\0422811                           PAGE   25

    1215                      .dwattr $C$DW$113, DW_AT_TI_symbol_name("_frequencyMotor")
    1216                      .dwattr $C$DW$113, DW_AT_type(*$C$DW$T$16)
    1217                      .dwattr $C$DW$113, DW_AT_location[DW_OP_regx 0x2f]
    1218              $C$DW$114       .dwtag  DW_TAG_formal_parameter, DW_AT_name("voltagInv")
    1219                      .dwattr $C$DW$114, DW_AT_TI_symbol_name("_voltagInv")
    1220                      .dwattr $C$DW$114, DW_AT_type(*$C$DW$T$21)
    1221                      .dwattr $C$DW$114, DW_AT_location[DW_OP_reg12]
    1222              $C$DW$115       .dwtag  DW_TAG_formal_parameter, DW_AT_name("voltagMotor")
    1223                      .dwattr $C$DW$115, DW_AT_TI_symbol_name("_voltagMotor")
    1224                      .dwattr $C$DW$115, DW_AT_type(*$C$DW$T$21)
    1225                      .dwattr $C$DW$115, DW_AT_location[DW_OP_reg14]
    1226              
    1227              ;***************************************************************
    1228              ;* FNAME: _getMotorVoltag               FR SIZE:  12           *
    1229              ;*                                                             *
    1230              ;* FUNCTION ENVIRONMENT                                        *
    1231              ;*                                                             *
    1232              ;* FUNCTION PROPERTIES                                         *
    1233              ;*                            2 Parameter, 10 Auto,  0 SOE     *
    1234              ;***************************************************************
    1235              
    1236 0000018c       _getMotorVoltag:
    1237                      .dwcfi  cfa_offset, -2
    1238                      .dwcfi  save_reg_to_mem, 26, 0
    1239                      .dwcfi  save_reg_to_reg, 78, 26
    1240 0000018c FE0C          ADDB      SP,#12                ; [CPU_U] 
    1241                      .dwcfi  cfa_offset, -14
    1242              $C$DW$116       .dwtag  DW_TAG_variable, DW_AT_name("frequencyInv")
    1243                      .dwattr $C$DW$116, DW_AT_TI_symbol_name("_frequencyInv")
    1244                      .dwattr $C$DW$116, DW_AT_type(*$C$DW$T$16)
    1245                      .dwattr $C$DW$116, DW_AT_location[DW_OP_breg20 -4]
    1246              $C$DW$117       .dwtag  DW_TAG_variable, DW_AT_name("frequencyMotor")
    1247                      .dwattr $C$DW$117, DW_AT_TI_symbol_name("_frequencyMotor")
    1248                      .dwattr $C$DW$117, DW_AT_type(*$C$DW$T$16)
    1249                      .dwattr $C$DW$117, DW_AT_location[DW_OP_breg20 -6]
    1250              $C$DW$118       .dwtag  DW_TAG_variable, DW_AT_name("voltagInv")
    1251                      .dwattr $C$DW$118, DW_AT_TI_symbol_name("_voltagInv")
    1252                      .dwattr $C$DW$118, DW_AT_type(*$C$DW$T$21)
    1253                      .dwattr $C$DW$118, DW_AT_location[DW_OP_breg20 -8]
    1254              $C$DW$119       .dwtag  DW_TAG_variable, DW_AT_name("voltagMotor")
    1255                      .dwattr $C$DW$119, DW_AT_TI_symbol_name("_voltagMotor")
    1256                      .dwattr $C$DW$119, DW_AT_type(*$C$DW$T$21)
    1257                      .dwattr $C$DW$119, DW_AT_location[DW_OP_breg20 -10]
    1258              $C$DW$120       .dwtag  DW_TAG_variable, DW_AT_name("tmp")
    1259                      .dwattr $C$DW$120, DW_AT_TI_symbol_name("_tmp")
    1260                      .dwattr $C$DW$120, DW_AT_type(*$C$DW$T$16)
    1261                      .dwattr $C$DW$120, DW_AT_location[DW_OP_breg20 -12]
    1262 0000018d A04A          MOVL      *-SP[10],XAR5         ; [CPU_] |155| 
    1263 0000018e A848          MOVL      *-SP[8],XAR4          ; [CPU_] |155| 
    1264 0000018f E203          MOV32     *-SP[6],R1H           ; [CPU_] |155| 
         00000190 0146 
    1265 00000191 E203          MOV32     *-SP[4],R0H           ; [CPU_] |155| 
         00000192 0044 
    1266                      .dwpsn  file "../ConvertorCntrl/MotorCntrl.c",line 157,column 2,is_stmt
    1267 00000193 E2AF          MOV32     R0H,*-SP[6]           ; [CPU_] |157| 
TMS320C2000 Assembler PC v6.2.7 Thu Jul 02 08:31:30 2015

Tools Copyright (c) 1996-2014 Texas Instruments Incorporated
C:\Users\Tester\AppData\Local\Temp\0422811                           PAGE   26

         00000194 0046 
    1268              $C$DW$121       .dwtag  DW_TAG_TI_branch
    1269                      .dwattr $C$DW$121, DW_AT_low_pc(0x00)
    1270                      .dwattr $C$DW$121, DW_AT_name("_getVoltagFromFrequency")
    1271                      .dwattr $C$DW$121, DW_AT_TI_call
    1272 00000195 7640!         LCR       #_getVoltagFromFrequency ; [CPU_] |157| 
         00000196 0000 
    1273                      ; call occurs [#_getVoltagFromFrequency] ; [] |157| 
    1274 00000197 E203          MOV32     *-SP[12],R0H          ; [CPU_] |157| 
         00000198 004C 
    1275                      .dwpsn  file "../ConvertorCntrl/MotorCntrl.c",line 158,column 2,is_stmt
    1276 00000199 8A48          MOVL      XAR4,*-SP[8]          ; [CPU_] |158| 
    1277 0000019a 064C          MOVL      ACC,*-SP[12]          ; [CPU_] |158| 
    1278 0000019b 1EC4          MOVL      *+XAR4[0],ACC         ; [CPU_] |158| 
    1279                      .dwpsn  file "../ConvertorCntrl/MotorCntrl.c",line 160,column 2,is_stmt
    1280 0000019c E2AF          MOV32     R0H,*-SP[6]           ; [CPU_] |160| 
         0000019d 0046 
    1281 0000019e E5A0          CMPF32    R0H,#0                ; [CPU_] |160| 
    1282 0000019f AD14          MOVST0    ZF, NF                ; [CPU_] |160| 
    1283 000001a0 610A          B         $C$L21,EQ             ; [CPU_] |160| 
    1284                      ; branchcc occurs ; [] |160| 
    1285                      .dwpsn  file "../ConvertorCntrl/MotorCntrl.c",line 161,column 3,is_stmt
    1286              $C$DW$122       .dwtag  DW_TAG_TI_branch
    1287                      .dwattr $C$DW$122, DW_AT_low_pc(0x00)
    1288                      .dwattr $C$DW$122, DW_AT_name("_getAddedVoltag")
    1289                      .dwattr $C$DW$122, DW_AT_TI_call
    1290 000001a1 7640!         LCR       #_getAddedVoltag      ; [CPU_] |161| 
         000001a2 0000 
    1291                      ; call occurs [#_getAddedVoltag] ; [] |161| 
    1292 000001a3 E2AF          MOV32     R1H,*-SP[12]          ; [CPU_] |161| 
         000001a4 014C 
    1293 000001a5 E710          ADDF32    R0H,R0H,R1H           ; [CPU_] |161| 
         000001a6 0040 
    1294 000001a7 7700          NOP       ; [CPU_] 
    1295 000001a8 E203          MOV32     *-SP[12],R0H          ; [CPU_] |161| 
         000001a9 004C 
    1296 000001aa       $C$L21:    
    1297                      .dwpsn  file "../ConvertorCntrl/MotorCntrl.c",line 163,column 2,is_stmt
    1298 000001aa E2AF          MOV32     R0H,*-SP[6]           ; [CPU_] |163| 
         000001ab 0046 
    1299              $C$DW$123       .dwtag  DW_TAG_TI_branch
    1300                      .dwattr $C$DW$123, DW_AT_low_pc(0x00)
    1301                      .dwattr $C$DW$123, DW_AT_name("_getCorrectionVoltag")
    1302                      .dwattr $C$DW$123, DW_AT_TI_call
    1303 000001ac 7640'         LCR       #_getCorrectionVoltag ; [CPU_] |163| 
         000001ad 0184 
    1304                      ; call occurs [#_getCorrectionVoltag] ; [] |163| 
    1305 000001ae E2AF          MOV32     R1H,*-SP[12]          ; [CPU_] |163| 
         000001af 014C 
    1306 000001b0 E710          ADDF32    R0H,R0H,R1H           ; [CPU_] |163| 
         000001b1 0040 
    1307 000001b2 7700          NOP       ; [CPU_] 
    1308 000001b3 E203          MOV32     *-SP[12],R0H          ; [CPU_] |163| 
         000001b4 004C 
    1309                      .dwpsn  file "../ConvertorCntrl/MotorCntrl.c",line 164,column 2,is_stmt
TMS320C2000 Assembler PC v6.2.7 Thu Jul 02 08:31:30 2015

Tools Copyright (c) 1996-2014 Texas Instruments Incorporated
C:\Users\Tester\AppData\Local\Temp\0422811                           PAGE   27

    1310              $C$DW$124       .dwtag  DW_TAG_TI_branch
    1311                      .dwattr $C$DW$124, DW_AT_low_pc(0x00)
    1312                      .dwattr $C$DW$124, DW_AT_name("_scaleVoltagPwm")
    1313                      .dwattr $C$DW$124, DW_AT_TI_call
    1314 000001b5 7640!         LCR       #_scaleVoltagPwm      ; [CPU_] |164| 
         000001b6 0000 
    1315                      ; call occurs [#_scaleVoltagPwm] ; [] |164| 
    1316 000001b7 E203          MOV32     *-SP[12],R0H          ; [CPU_] |164| 
         000001b8 004C 
    1317                      .dwpsn  file "../ConvertorCntrl/MotorCntrl.c",line 165,column 2,is_stmt
    1318 000001b9 5CAD          MOVZ      AR4,SP                ; [CPU_U] |165| 
    1319 000001ba DC8C          SUBB      XAR4,#12              ; [CPU_U] |165| 
    1320              $C$DW$125       .dwtag  DW_TAG_TI_branch
    1321                      .dwattr $C$DW$125, DW_AT_low_pc(0x00)
    1322                      .dwattr $C$DW$125, DW_AT_name("_stabilisationByUdc")
    1323                      .dwattr $C$DW$125, DW_AT_TI_call
    1324 000001bb 7640!         LCR       #_stabilisationByUdc  ; [CPU_] |165| 
         000001bc 0000 
    1325                      ; call occurs [#_stabilisationByUdc] ; [] |165| 
    1326                      .dwpsn  file "../ConvertorCntrl/MotorCntrl.c",line 168,column 2,is_stmt
    1327 000001bd 8A4A          MOVL      XAR4,*-SP[10]         ; [CPU_] |168| 
    1328 000001be 064C          MOVL      ACC,*-SP[12]          ; [CPU_] |168| 
    1329 000001bf 1EC4          MOVL      *+XAR4[0],ACC         ; [CPU_] |168| 
    1330                      .dwpsn  file "../ConvertorCntrl/MotorCntrl.c",line 169,column 1,is_stmt
    1331 000001c0 FE8C          SUBB      SP,#12                ; [CPU_U] 
    1332                      .dwcfi  cfa_offset, -2
    1333              $C$DW$126       .dwtag  DW_TAG_TI_branch
    1334                      .dwattr $C$DW$126, DW_AT_low_pc(0x00)
    1335                      .dwattr $C$DW$126, DW_AT_TI_return
    1336 000001c1 0006          LRETR     ; [CPU_] 
    1337                      ; return occurs ; [] 
    1338                      .dwattr $C$DW$111, DW_AT_TI_end_file("../ConvertorCntrl/MotorCntrl.c")
    1339                      .dwattr $C$DW$111, DW_AT_TI_end_line(0xa9)
    1340                      .dwattr $C$DW$111, DW_AT_TI_end_column(0x01)
    1341                      .dwendentry
    1342                      .dwendtag $C$DW$111
    1343              
    1344 000001c2               .sect   ".text"
    1345                      .clink
    1346                      .global _Accelaration
    1347              
    1348              $C$DW$127       .dwtag  DW_TAG_subprogram, DW_AT_name("Accelaration")
    1349                      .dwattr $C$DW$127, DW_AT_low_pc(_Accelaration)
    1350                      .dwattr $C$DW$127, DW_AT_high_pc(0x00)
    1351                      .dwattr $C$DW$127, DW_AT_TI_symbol_name("_Accelaration")
    1352                      .dwattr $C$DW$127, DW_AT_external
    1353                      .dwattr $C$DW$127, DW_AT_TI_begin_file("../ConvertorCntrl/MotorCntrl.c")
    1354                      .dwattr $C$DW$127, DW_AT_TI_begin_line(0xab)
    1355                      .dwattr $C$DW$127, DW_AT_TI_begin_column(0x06)
    1356                      .dwattr $C$DW$127, DW_AT_TI_max_frame_size(-14)
    1357                      .dwpsn  file "../ConvertorCntrl/MotorCntrl.c",line 171,column 65,is_stmt,address _Accelaration
    1358              
    1359                      .dwfde $C$DW$CIE, _Accelaration
    1360              $C$DW$128       .dwtag  DW_TAG_formal_parameter, DW_AT_name("task")
    1361                      .dwattr $C$DW$128, DW_AT_TI_symbol_name("_task")
TMS320C2000 Assembler PC v6.2.7 Thu Jul 02 08:31:30 2015

Tools Copyright (c) 1996-2014 Texas Instruments Incorporated
C:\Users\Tester\AppData\Local\Temp\0422811                           PAGE   28

    1362                      .dwattr $C$DW$128, DW_AT_type(*$C$DW$T$16)
    1363                      .dwattr $C$DW$128, DW_AT_location[DW_OP_regx 0x2b]
    1364              $C$DW$129       .dwtag  DW_TAG_formal_parameter, DW_AT_name("freqTask")
    1365                      .dwattr $C$DW$129, DW_AT_TI_symbol_name("_freqTask")
    1366                      .dwattr $C$DW$129, DW_AT_type(*$C$DW$T$21)
    1367                      .dwattr $C$DW$129, DW_AT_location[DW_OP_reg12]
    1368              $C$DW$130       .dwtag  DW_TAG_formal_parameter, DW_AT_name("freqMotor")
    1369                      .dwattr $C$DW$130, DW_AT_TI_symbol_name("_freqMotor")
    1370                      .dwattr $C$DW$130, DW_AT_type(*$C$DW$T$21)
    1371                      .dwattr $C$DW$130, DW_AT_location[DW_OP_reg14]
    1372              
    1373              ;***************************************************************
    1374              ;* FNAME: _Accelaration                 FR SIZE:  12           *
    1375              ;*                                                             *
    1376              ;* FUNCTION ENVIRONMENT                                        *
    1377              ;*                                                             *
    1378              ;* FUNCTION PROPERTIES                                         *
    1379              ;*                            2 Parameter, 10 Auto,  0 SOE     *
    1380              ;***************************************************************
    1381              
    1382 000001c2       _Accelaration:
    1383                      .dwcfi  cfa_offset, -2
    1384                      .dwcfi  save_reg_to_mem, 26, 0
    1385                      .dwcfi  save_reg_to_reg, 78, 26
    1386 000001c2 FE0C          ADDB      SP,#12                ; [CPU_U] 
    1387                      .dwcfi  cfa_offset, -14
    1388              $C$DW$131       .dwtag  DW_TAG_variable, DW_AT_name("task")
    1389                      .dwattr $C$DW$131, DW_AT_TI_symbol_name("_task")
    1390                      .dwattr $C$DW$131, DW_AT_type(*$C$DW$T$16)
    1391                      .dwattr $C$DW$131, DW_AT_location[DW_OP_breg20 -4]
    1392              $C$DW$132       .dwtag  DW_TAG_variable, DW_AT_name("freqTask")
    1393                      .dwattr $C$DW$132, DW_AT_TI_symbol_name("_freqTask")
    1394                      .dwattr $C$DW$132, DW_AT_type(*$C$DW$T$21)
    1395                      .dwattr $C$DW$132, DW_AT_location[DW_OP_breg20 -6]
    1396              $C$DW$133       .dwtag  DW_TAG_variable, DW_AT_name("freqMotor")
    1397                      .dwattr $C$DW$133, DW_AT_TI_symbol_name("_freqMotor")
    1398                      .dwattr $C$DW$133, DW_AT_type(*$C$DW$T$21)
    1399                      .dwattr $C$DW$133, DW_AT_location[DW_OP_breg20 -8]
    1400              $C$DW$134       .dwtag  DW_TAG_variable, DW_AT_name("stepCheng")
    1401                      .dwattr $C$DW$134, DW_AT_TI_symbol_name("_stepCheng")
    1402                      .dwattr $C$DW$134, DW_AT_type(*$C$DW$T$16)
    1403                      .dwattr $C$DW$134, DW_AT_location[DW_OP_breg20 -10]
    1404              $C$DW$135       .dwtag  DW_TAG_variable, DW_AT_name("tmp")
    1405                      .dwattr $C$DW$135, DW_AT_TI_symbol_name("_tmp")
    1406                      .dwattr $C$DW$135, DW_AT_type(*$C$DW$T$16)
    1407                      .dwattr $C$DW$135, DW_AT_location[DW_OP_breg20 -12]
    1408 000001c3 A048          MOVL      *-SP[8],XAR5          ; [CPU_] |171| 
    1409 000001c4 A846          MOVL      *-SP[6],XAR4          ; [CPU_] |171| 
    1410 000001c5 E203          MOV32     *-SP[4],R0H           ; [CPU_] |171| 
         000001c6 0044 
    1411                      .dwpsn  file "../ConvertorCntrl/MotorCntrl.c",line 174,column 2,is_stmt
    1412              $C$DW$136       .dwtag  DW_TAG_TI_branch
    1413                      .dwattr $C$DW$136, DW_AT_low_pc(0x00)
    1414                      .dwattr $C$DW$136, DW_AT_name("_getStepAccelCheng")
    1415                      .dwattr $C$DW$136, DW_AT_TI_call
TMS320C2000 Assembler PC v6.2.7 Thu Jul 02 08:31:30 2015

Tools Copyright (c) 1996-2014 Texas Instruments Incorporated
C:\Users\Tester\AppData\Local\Temp\0422811                           PAGE   29

    1416 000001c7 7640!         LCR       #_getStepAccelCheng   ; [CPU_] |174| 
         000001c8 0000 
    1417                      ; call occurs [#_getStepAccelCheng] ; [] |174| 
    1418 000001c9 E203          MOV32     *-SP[10],R0H          ; [CPU_] |174| 
         000001ca 004A 
    1419                      .dwpsn  file "../ConvertorCntrl/MotorCntrl.c",line 175,column 2,is_stmt
    1420 000001cb 8A46          MOVL      XAR4,*-SP[6]          ; [CPU_] |175| 
    1421 000001cc 06C4          MOVL      ACC,*+XAR4[0]         ; [CPU_] |175| 
    1422 000001cd 1E4C          MOVL      *-SP[12],ACC          ; [CPU_] |175| 
    1423                      .dwpsn  file "../ConvertorCntrl/MotorCntrl.c",line 176,column 2,is_stmt
    1424              $C$DW$137       .dwtag  DW_TAG_TI_branch
    1425                      .dwattr $C$DW$137, DW_AT_low_pc(0x00)
    1426                      .dwattr $C$DW$137, DW_AT_name("_testOvercurrent")
    1427                      .dwattr $C$DW$137, DW_AT_TI_call
    1428 000001ce 7640!         LCR       #_testOvercurrent     ; [CPU_] |176| 
         000001cf 0000 
    1429                      ; call occurs [#_testOvercurrent] ; [] |176| 
    1430 000001d0 5200          CMPB      AL,#0                 ; [CPU_] |176| 
    1431 000001d1 ED66          BF        $C$L28,NEQ            ; [CPU_] |176| 
    1432                      ; branchcc occurs ; [] |176| 
    1433                      .dwpsn  file "../ConvertorCntrl/MotorCntrl.c",line 177,column 3,is_stmt
    1434 000001d2 761F-         MOVW      DP,#_statusRun        ; [CPU_U] 
         000001d3 0000 
    1435 000001d4 1B01-         CMP       @_statusRun,#-2       ; [CPU_] |177| 
         000001d5 FFFE 
    1436 000001d6 EC4A          BF        $C$L25,EQ             ; [CPU_] |177| 
    1437                      ; branchcc occurs ; [] |177| 
    1438 000001d7 9201-         MOV       AL,@_statusRun        ; [CPU_] |177| 
    1439 000001d8 5202          CMPB      AL,#2                 ; [CPU_] |177| 
    1440 000001d9 EC47          BF        $C$L25,EQ             ; [CPU_] |177| 
    1441                      ; branchcc occurs ; [] |177| 
    1442                      .dwpsn  file "../ConvertorCntrl/MotorCntrl.c",line 178,column 4,is_stmt
    1443 000001da E2AF          MOV32     R0H,*-SP[12]          ; [CPU_] |178| 
         000001db 004C 
    1444 000001dc E5A0          CMPF32    R0H,#0                ; [CPU_] |178| 
    1445 000001dd AD14          MOVST0    ZF, NF                ; [CPU_] |178| 
    1446 000001de 612A          B         $C$L23,EQ             ; [CPU_] |178| 
    1447                      ; branchcc occurs ; [] |178| 
    1448                      .dwpsn  file "../ConvertorCntrl/MotorCntrl.c",line 179,column 5,is_stmt
    1449 000001df E5A0          CMPF32    R0H,#0                ; [CPU_] |179| 
    1450 000001e0 AD14          MOVST0    ZF, NF                ; [CPU_] |179| 
    1451 000001e1 6513          B         $C$L22,LEQ            ; [CPU_] |179| 
    1452                      ; branchcc occurs ; [] |179| 
    1453                      .dwpsn  file "../ConvertorCntrl/MotorCntrl.c",line 180,column 6,is_stmt
    1454 000001e2 E2AF          MOV32     R1H,*-SP[10]          ; [CPU_] |180| 
         000001e3 014A 
    1455 000001e4 E710          ADDF32    R0H,R0H,R1H           ; [CPU_] |180| 
         000001e5 0040 
    1456 000001e6 7700          NOP       ; [CPU_] 
    1457 000001e7 E203          MOV32     *-SP[12],R0H          ; [CPU_] |180| 
         000001e8 004C 
    1458                      .dwpsn  file "../ConvertorCntrl/MotorCntrl.c",line 181,column 6,is_stmt
    1459 000001e9 E2AF          MOV32     R0H,*-SP[4]           ; [CPU_] |181| 
         000001ea 0044 
    1460 000001eb E2AF          MOV32     R1H,*-SP[12]          ; [CPU_] |181| 
TMS320C2000 Assembler PC v6.2.7 Thu Jul 02 08:31:30 2015

Tools Copyright (c) 1996-2014 Texas Instruments Incorporated
C:\Users\Tester\AppData\Local\Temp\0422811                           PAGE   30

         000001ec 014C 
    1461 000001ed E694          CMPF32    R1H,R0H               ; [CPU_] |181| 
         000001ee 0001 
    1462 000001ef AD14          MOVST0    ZF, NF                ; [CPU_] |181| 
    1463 000001f0 6530          B         $C$L25,LEQ            ; [CPU_] |181| 
    1464                      ; branchcc occurs ; [] |181| 
    1465                      .dwpsn  file "../ConvertorCntrl/MotorCntrl.c",line 182,column 7,is_stmt
    1466 000001f1 0644          MOVL      ACC,*-SP[4]           ; [CPU_] |182| 
    1467 000001f2 1E4C          MOVL      *-SP[12],ACC          ; [CPU_] |182| 
    1468                      .dwpsn  file "../ConvertorCntrl/MotorCntrl.c",line 184,column 5,is_stmt
    1469 000001f3 6F2D          B         $C$L25,UNC            ; [CPU_] |184| 
    1470                      ; branch occurs ; [] |184| 
    1471 000001f4       $C$L22:    
    1472                      .dwpsn  file "../ConvertorCntrl/MotorCntrl.c",line 185,column 6,is_stmt
    1473 000001f4 E2AF          MOV32     R0H,*-SP[10]          ; [CPU_] |185| 
         000001f5 004A 
    1474 000001f6 E2AF          MOV32     R1H,*-SP[12]          ; [CPU_] |185| 
         000001f7 014C 
    1475 000001f8 E720          SUBF32    R0H,R1H,R0H           ; [CPU_] |185| 
         000001f9 0008 
    1476 000001fa 7700          NOP       ; [CPU_] 
    1477 000001fb E203          MOV32     *-SP[12],R0H          ; [CPU_] |185| 
         000001fc 004C 
    1478                      .dwpsn  file "../ConvertorCntrl/MotorCntrl.c",line 186,column 6,is_stmt
    1479 000001fd E2AF          MOV32     R0H,*-SP[4]           ; [CPU_] |186| 
         000001fe 0044 
    1480 000001ff E2AF          MOV32     R1H,*-SP[12]          ; [CPU_] |186| 
         00000200 014C 
    1481 00000201 E694          CMPF32    R1H,R0H               ; [CPU_] |186| 
         00000202 0001 
    1482 00000203 AD14          MOVST0    ZF, NF                ; [CPU_] |186| 
    1483 00000204 631C          B         $C$L25,GEQ            ; [CPU_] |186| 
    1484                      ; branchcc occurs ; [] |186| 
    1485                      .dwpsn  file "../ConvertorCntrl/MotorCntrl.c",line 187,column 7,is_stmt
    1486 00000205 0644          MOVL      ACC,*-SP[4]           ; [CPU_] |187| 
    1487 00000206 1E4C          MOVL      *-SP[12],ACC          ; [CPU_] |187| 
    1488                      .dwpsn  file "../ConvertorCntrl/MotorCntrl.c",line 190,column 4,is_stmt
    1489 00000207 6F19          B         $C$L25,UNC            ; [CPU_] |190| 
    1490                      ; branch occurs ; [] |190| 
    1491 00000208       $C$L23:    
    1492                      .dwpsn  file "../ConvertorCntrl/MotorCntrl.c",line 191,column 5,is_stmt
    1493 00000208 E2AF          MOV32     R0H,*-SP[4]           ; [CPU_] |191| 
         00000209 0044 
    1494 0000020a E5A0          CMPF32    R0H,#0                ; [CPU_] |191| 
    1495 0000020b AD14          MOVST0    ZF, NF                ; [CPU_] |191| 
    1496 0000020c 650B          B         $C$L24,LEQ            ; [CPU_] |191| 
    1497                      ; branchcc occurs ; [] |191| 
    1498                      .dwpsn  file "../ConvertorCntrl/MotorCntrl.c",line 192,column 6,is_stmt
    1499 0000020d E2AF          MOV32     R0H,*-SP[12]          ; [CPU_] |192| 
         0000020e 004C 
    1500 0000020f E2AF          MOV32     R1H,*-SP[10]          ; [CPU_] |192| 
         00000210 014A 
    1501 00000211 E710          ADDF32    R0H,R0H,R1H           ; [CPU_] |192| 
         00000212 0040 
    1502 00000213 7700          NOP       ; [CPU_] 
TMS320C2000 Assembler PC v6.2.7 Thu Jul 02 08:31:30 2015

Tools Copyright (c) 1996-2014 Texas Instruments Incorporated
C:\Users\Tester\AppData\Local\Temp\0422811                           PAGE   31

    1503 00000214 E203          MOV32     *-SP[12],R0H          ; [CPU_] |192| 
         00000215 004C 
    1504                      .dwpsn  file "../ConvertorCntrl/MotorCntrl.c",line 193,column 5,is_stmt
    1505 00000216 6F0A          B         $C$L25,UNC            ; [CPU_] |193| 
    1506                      ; branch occurs ; [] |193| 
    1507 00000217       $C$L24:    
    1508                      .dwpsn  file "../ConvertorCntrl/MotorCntrl.c",line 194,column 6,is_stmt
    1509 00000217 E2AF          MOV32     R0H,*-SP[10]          ; [CPU_] |194| 
         00000218 004A 
    1510 00000219 E2AF          MOV32     R1H,*-SP[12]          ; [CPU_] |194| 
         0000021a 014C 
    1511 0000021b E720          SUBF32    R0H,R1H,R0H           ; [CPU_] |194| 
         0000021c 0008 
    1512 0000021d 7700          NOP       ; [CPU_] 
    1513 0000021e E203          MOV32     *-SP[12],R0H          ; [CPU_] |194| 
         0000021f 004C 
    1514 00000220       $C$L25:    
    1515                      .dwpsn  file "../ConvertorCntrl/MotorCntrl.c",line 198,column 3,is_stmt
    1516 00000220 E2AF          MOV32     R0H,*-SP[4]           ; [CPU_] |198| 
         00000221 0044 
    1517 00000222 E2AF          MOV32     R1H,*-SP[12]          ; [CPU_] |198| 
         00000223 014C 
    1518 00000224 E694          CMPF32    R1H,R0H               ; [CPU_] |198| 
         00000225 0001 
    1519 00000226 AD14          MOVST0    ZF, NF                ; [CPU_] |198| 
    1520 00000227 6003          B         $C$L26,NEQ            ; [CPU_] |198| 
    1521                      ; branchcc occurs ; [] |198| 
    1522                      .dwpsn  file "../ConvertorCntrl/MotorCntrl.c",line 199,column 4,is_stmt
    1523 00000228 2B01-         MOV       @_statusRun,#0        ; [CPU_] |199| 
    1524 00000229 6F03          B         $C$L27,UNC            ; [CPU_] |199| 
    1525                      ; branch occurs ; [] |199| 
    1526 0000022a       $C$L26:    
    1527                      .dwpsn  file "../ConvertorCntrl/MotorCntrl.c",line 201,column 4,is_stmt
    1528 0000022a 56BF-         MOVB      @_statusRun,#1,UNC    ; [CPU_] |201| 
         0000022b 0101 
    1529 0000022c       $C$L27:    
    1530                      .dwpsn  file "../ConvertorCntrl/MotorCntrl.c",line 203,column 3,is_stmt
    1531 0000022c 8A46          MOVL      XAR4,*-SP[6]          ; [CPU_] |203| 
    1532 0000022d 064C          MOVL      ACC,*-SP[12]          ; [CPU_] |203| 
    1533 0000022e 1EC4          MOVL      *+XAR4[0],ACC         ; [CPU_] |203| 
    1534                      .dwpsn  file "../ConvertorCntrl/MotorCntrl.c",line 204,column 3,is_stmt
    1535 0000022f 8A48          MOVL      XAR4,*-SP[8]          ; [CPU_] |204| 
    1536 00000230 064C          MOVL      ACC,*-SP[12]          ; [CPU_] |204| 
    1537 00000231 1EC4          MOVL      *+XAR4[0],ACC         ; [CPU_] |204| 
    1538                      .dwpsn  file "../ConvertorCntrl/MotorCntrl.c",line 205,column 3,is_stmt
    1539 00000232 9A00          MOVB      AL,#0                 ; [CPU_] |205| 
    1540 00000233 9B00          MOVB      AH,#0                 ; [CPU_] |205| 
    1541              $C$DW$138       .dwtag  DW_TAG_TI_branch
    1542                      .dwattr $C$DW$138, DW_AT_low_pc(0x00)
    1543                      .dwattr $C$DW$138, DW_AT_name("_setLedMode")
    1544                      .dwattr $C$DW$138, DW_AT_TI_call
    1545 00000234 7640!         LCR       #_setLedMode          ; [CPU_] |205| 
         00000235 0000 
    1546                      ; call occurs [#_setLedMode] ; [] |205| 
    1547                      .dwpsn  file "../ConvertorCntrl/MotorCntrl.c",line 206,column 2,is_stmt
TMS320C2000 Assembler PC v6.2.7 Thu Jul 02 08:31:30 2015

Tools Copyright (c) 1996-2014 Texas Instruments Incorporated
C:\Users\Tester\AppData\Local\Temp\0422811                           PAGE   32

    1548 00000236 6F0B          B         $C$L29,UNC            ; [CPU_] |206| 
    1549                      ; branch occurs ; [] |206| 
    1550 00000237       $C$L28:    
    1551                      .dwpsn  file "../ConvertorCntrl/MotorCntrl.c",line 207,column 3,is_stmt
    1552 00000237 E2AF          MOV32     R0H,*-SP[4]           ; [CPU_] |207| 
         00000238 0044 
    1553 00000239 8A46          MOVL      XAR4,*-SP[6]          ; [CPU_] |207| 
    1554 0000023a 8348          MOVL      XAR5,*-SP[8]          ; [CPU_] |207| 
    1555              $C$DW$139       .dwtag  DW_TAG_TI_branch
    1556                      .dwattr $C$DW$139, DW_AT_low_pc(0x00)
    1557                      .dwattr $C$DW$139, DW_AT_name("_AccelarationPause")
    1558                      .dwattr $C$DW$139, DW_AT_TI_call
    1559 0000023b 7640'         LCR       #_AccelarationPause   ; [CPU_] |207| 
         0000023c 02FE 
    1560                      ; call occurs [#_AccelarationPause] ; [] |207| 
    1561                      .dwpsn  file "../ConvertorCntrl/MotorCntrl.c",line 208,column 3,is_stmt
    1562 0000023d 9A00          MOVB      AL,#0                 ; [CPU_] |208| 
    1563 0000023e 9B01          MOVB      AH,#1                 ; [CPU_] |208| 
    1564              $C$DW$140       .dwtag  DW_TAG_TI_branch
    1565                      .dwattr $C$DW$140, DW_AT_low_pc(0x00)
    1566                      .dwattr $C$DW$140, DW_AT_name("_setLedMode")
    1567                      .dwattr $C$DW$140, DW_AT_TI_call
    1568 0000023f 7640!         LCR       #_setLedMode          ; [CPU_] |208| 
         00000240 0000 
    1569                      ; call occurs [#_setLedMode] ; [] |208| 
    1570                      .dwpsn  file "../ConvertorCntrl/MotorCntrl.c",line 210,column 1,is_stmt
    1571 00000241       $C$L29:    
    1572 00000241 FE8C          SUBB      SP,#12                ; [CPU_U] 
    1573                      .dwcfi  cfa_offset, -2
    1574              $C$DW$141       .dwtag  DW_TAG_TI_branch
    1575                      .dwattr $C$DW$141, DW_AT_low_pc(0x00)
    1576                      .dwattr $C$DW$141, DW_AT_TI_return
    1577 00000242 0006          LRETR     ; [CPU_] 
    1578                      ; return occurs ; [] 
    1579                      .dwattr $C$DW$127, DW_AT_TI_end_file("../ConvertorCntrl/MotorCntrl.c")
    1580                      .dwattr $C$DW$127, DW_AT_TI_end_line(0xd2)
    1581                      .dwattr $C$DW$127, DW_AT_TI_end_column(0x01)
    1582                      .dwendentry
    1583                      .dwendtag $C$DW$127
    1584              
    1585 00000243               .sect   ".text"
    1586                      .clink
    1587                      .global _DecelarationStop
    1588              
    1589              $C$DW$142       .dwtag  DW_TAG_subprogram, DW_AT_name("DecelarationStop")
    1590                      .dwattr $C$DW$142, DW_AT_low_pc(_DecelarationStop)
    1591                      .dwattr $C$DW$142, DW_AT_high_pc(0x00)
    1592                      .dwattr $C$DW$142, DW_AT_TI_symbol_name("_DecelarationStop")
    1593                      .dwattr $C$DW$142, DW_AT_external
    1594                      .dwattr $C$DW$142, DW_AT_TI_begin_file("../ConvertorCntrl/MotorCntrl.c")
    1595                      .dwattr $C$DW$142, DW_AT_TI_begin_line(0xd4)
    1596                      .dwattr $C$DW$142, DW_AT_TI_begin_column(0x06)
    1597                      .dwattr $C$DW$142, DW_AT_TI_max_frame_size(-12)
    1598                      .dwpsn  file "../ConvertorCntrl/MotorCntrl.c",line 212,column 57,is_stmt,address _DecelarationStop
    1599              
TMS320C2000 Assembler PC v6.2.7 Thu Jul 02 08:31:30 2015

Tools Copyright (c) 1996-2014 Texas Instruments Incorporated
C:\Users\Tester\AppData\Local\Temp\0422811                           PAGE   33

    1600                      .dwfde $C$DW$CIE, _DecelarationStop
    1601              $C$DW$143       .dwtag  DW_TAG_formal_parameter, DW_AT_name("freqTask")
    1602                      .dwattr $C$DW$143, DW_AT_TI_symbol_name("_freqTask")
    1603                      .dwattr $C$DW$143, DW_AT_type(*$C$DW$T$21)
    1604                      .dwattr $C$DW$143, DW_AT_location[DW_OP_reg12]
    1605              $C$DW$144       .dwtag  DW_TAG_formal_parameter, DW_AT_name("freqMotor")
    1606                      .dwattr $C$DW$144, DW_AT_TI_symbol_name("_freqMotor")
    1607                      .dwattr $C$DW$144, DW_AT_type(*$C$DW$T$21)
    1608                      .dwattr $C$DW$144, DW_AT_location[DW_OP_reg14]
    1609              
    1610              ;***************************************************************
    1611              ;* FNAME: _DecelarationStop             FR SIZE:  10           *
    1612              ;*                                                             *
    1613              ;* FUNCTION ENVIRONMENT                                        *
    1614              ;*                                                             *
    1615              ;* FUNCTION PROPERTIES                                         *
    1616              ;*                            2 Parameter,  8 Auto,  0 SOE     *
    1617              ;***************************************************************
    1618              
    1619 00000243       _DecelarationStop:
    1620                      .dwcfi  cfa_offset, -2
    1621                      .dwcfi  save_reg_to_mem, 26, 0
    1622                      .dwcfi  save_reg_to_reg, 78, 26
    1623 00000243 FE0A          ADDB      SP,#10                ; [CPU_U] 
    1624                      .dwcfi  cfa_offset, -12
    1625              $C$DW$145       .dwtag  DW_TAG_variable, DW_AT_name("freqTask")
    1626                      .dwattr $C$DW$145, DW_AT_TI_symbol_name("_freqTask")
    1627                      .dwattr $C$DW$145, DW_AT_type(*$C$DW$T$21)
    1628                      .dwattr $C$DW$145, DW_AT_location[DW_OP_breg20 -4]
    1629              $C$DW$146       .dwtag  DW_TAG_variable, DW_AT_name("freqMotor")
    1630                      .dwattr $C$DW$146, DW_AT_TI_symbol_name("_freqMotor")
    1631                      .dwattr $C$DW$146, DW_AT_type(*$C$DW$T$21)
    1632                      .dwattr $C$DW$146, DW_AT_location[DW_OP_breg20 -6]
    1633              $C$DW$147       .dwtag  DW_TAG_variable, DW_AT_name("stepCheng")
    1634                      .dwattr $C$DW$147, DW_AT_TI_symbol_name("_stepCheng")
    1635                      .dwattr $C$DW$147, DW_AT_type(*$C$DW$T$16)
    1636                      .dwattr $C$DW$147, DW_AT_location[DW_OP_breg20 -8]
    1637              $C$DW$148       .dwtag  DW_TAG_variable, DW_AT_name("tmp")
    1638                      .dwattr $C$DW$148, DW_AT_TI_symbol_name("_tmp")
    1639                      .dwattr $C$DW$148, DW_AT_type(*$C$DW$T$16)
    1640                      .dwattr $C$DW$148, DW_AT_location[DW_OP_breg20 -10]
    1641 00000244 A046          MOVL      *-SP[6],XAR5          ; [CPU_] |212| 
    1642 00000245 A844          MOVL      *-SP[4],XAR4          ; [CPU_] |212| 
    1643                      .dwpsn  file "../ConvertorCntrl/MotorCntrl.c",line 215,column 2,is_stmt
    1644              $C$DW$149       .dwtag  DW_TAG_TI_branch
    1645                      .dwattr $C$DW$149, DW_AT_low_pc(0x00)
    1646                      .dwattr $C$DW$149, DW_AT_name("_getStepDecelCheng")
    1647                      .dwattr $C$DW$149, DW_AT_TI_call
    1648 00000246 7640!         LCR       #_getStepDecelCheng   ; [CPU_] |215| 
         00000247 0000 
    1649                      ; call occurs [#_getStepDecelCheng] ; [] |215| 
    1650 00000248 E203          MOV32     *-SP[8],R0H           ; [CPU_] |215| 
         00000249 0048 
    1651                      .dwpsn  file "../ConvertorCntrl/MotorCntrl.c",line 216,column 2,is_stmt
    1652 0000024a 8A44          MOVL      XAR4,*-SP[4]          ; [CPU_] |216| 
TMS320C2000 Assembler PC v6.2.7 Thu Jul 02 08:31:30 2015

Tools Copyright (c) 1996-2014 Texas Instruments Incorporated
C:\Users\Tester\AppData\Local\Temp\0422811                           PAGE   34

    1653 0000024b 06C4          MOVL      ACC,*+XAR4[0]         ; [CPU_] |216| 
    1654 0000024c 1E4A          MOVL      *-SP[10],ACC          ; [CPU_] |216| 
    1655                      .dwpsn  file "../ConvertorCntrl/MotorCntrl.c",line 217,column 2,is_stmt
    1656              $C$DW$150       .dwtag  DW_TAG_TI_branch
    1657                      .dwattr $C$DW$150, DW_AT_low_pc(0x00)
    1658                      .dwattr $C$DW$150, DW_AT_name("_testOvervoltag")
    1659                      .dwattr $C$DW$150, DW_AT_TI_call
    1660 0000024d 7640!         LCR       #_testOvervoltag      ; [CPU_] |217| 
         0000024e 0000 
    1661                      ; call occurs [#_testOvervoltag] ; [] |217| 
    1662 0000024f 5200          CMPB      AL,#0                 ; [CPU_] |217| 
    1663 00000250 ED3E          BF        $C$L33,NEQ            ; [CPU_] |217| 
    1664                      ; branchcc occurs ; [] |217| 
    1665                      .dwpsn  file "../ConvertorCntrl/MotorCntrl.c",line 218,column 3,is_stmt
    1666 00000251 761F-         MOVW      DP,#_statusRun        ; [CPU_U] 
         00000252 0000 
    1667 00000253 1B01-         CMP       @_statusRun,#-2       ; [CPU_] |218| 
         00000254 FFFE 
    1668 00000255 EC26          BF        $C$L31,EQ             ; [CPU_] |218| 
    1669                      ; branchcc occurs ; [] |218| 
    1670 00000256 9201-         MOV       AL,@_statusRun        ; [CPU_] |218| 
    1671 00000257 5202          CMPB      AL,#2                 ; [CPU_] |218| 
    1672 00000258 EC23          BF        $C$L31,EQ             ; [CPU_] |218| 
    1673                      ; branchcc occurs ; [] |218| 
    1674                      .dwpsn  file "../ConvertorCntrl/MotorCntrl.c",line 219,column 4,is_stmt
    1675 00000259 E2AF          MOV32     R0H,*-SP[10]          ; [CPU_] |219| 
         0000025a 004A 
    1676 0000025b E5A0          CMPF32    R0H,#0                ; [CPU_] |219| 
    1677 0000025c AD14          MOVST0    ZF, NF                ; [CPU_] |219| 
    1678 0000025d 6511          B         $C$L30,LEQ            ; [CPU_] |219| 
    1679                      ; branchcc occurs ; [] |219| 
    1680                      .dwpsn  file "../ConvertorCntrl/MotorCntrl.c",line 220,column 5,is_stmt
    1681 0000025e E2AF          MOV32     R0H,*-SP[8]           ; [CPU_] |220| 
         0000025f 0048 
    1682 00000260 E2AF          MOV32     R1H,*-SP[10]          ; [CPU_] |220| 
         00000261 014A 
    1683 00000262 E720          SUBF32    R0H,R1H,R0H           ; [CPU_] |220| 
         00000263 0008 
    1684 00000264 7700          NOP       ; [CPU_] 
    1685 00000265 E203          MOV32     *-SP[10],R0H          ; [CPU_] |220| 
         00000266 004A 
    1686                      .dwpsn  file "../ConvertorCntrl/MotorCntrl.c",line 221,column 5,is_stmt
    1687 00000267 E5A0          CMPF32    R0H,#0                ; [CPU_] |221| 
    1688 00000268 AD14          MOVST0    ZF, NF                ; [CPU_] |221| 
    1689 00000269 6312          B         $C$L31,GEQ            ; [CPU_] |221| 
    1690                      ; branchcc occurs ; [] |221| 
    1691                      .dwpsn  file "../ConvertorCntrl/MotorCntrl.c",line 222,column 6,is_stmt
    1692 0000026a E590          ZERO      R0H                   ; [CPU_] |222| 
    1693 0000026b E203          MOV32     *-SP[10],R0H          ; [CPU_] |222| 
         0000026c 004A 
    1694                      .dwpsn  file "../ConvertorCntrl/MotorCntrl.c",line 223,column 4,is_stmt
    1695 0000026d 6F0E          B         $C$L31,UNC            ; [CPU_] |223| 
    1696                      ; branch occurs ; [] |223| 
    1697 0000026e       $C$L30:    
    1698                      .dwpsn  file "../ConvertorCntrl/MotorCntrl.c",line 224,column 5,is_stmt
TMS320C2000 Assembler PC v6.2.7 Thu Jul 02 08:31:30 2015

Tools Copyright (c) 1996-2014 Texas Instruments Incorporated
C:\Users\Tester\AppData\Local\Temp\0422811                           PAGE   35

    1699 0000026e E2AF          MOV32     R1H,*-SP[8]           ; [CPU_] |224| 
         0000026f 0148 
    1700 00000270 E710          ADDF32    R0H,R0H,R1H           ; [CPU_] |224| 
         00000271 0040 
    1701 00000272 7700          NOP       ; [CPU_] 
    1702 00000273 E203          MOV32     *-SP[10],R0H          ; [CPU_] |224| 
         00000274 004A 
    1703                      .dwpsn  file "../ConvertorCntrl/MotorCntrl.c",line 225,column 5,is_stmt
    1704 00000275 E5A0          CMPF32    R0H,#0                ; [CPU_] |225| 
    1705 00000276 AD14          MOVST0    ZF, NF                ; [CPU_] |225| 
    1706 00000277 6504          B         $C$L31,LEQ            ; [CPU_] |225| 
    1707                      ; branchcc occurs ; [] |225| 
    1708                      .dwpsn  file "../ConvertorCntrl/MotorCntrl.c",line 226,column 6,is_stmt
    1709 00000278 E590          ZERO      R0H                   ; [CPU_] |226| 
    1710 00000279 E203          MOV32     *-SP[10],R0H          ; [CPU_] |226| 
         0000027a 004A 
    1711 0000027b       $C$L31:    
    1712                      .dwpsn  file "../ConvertorCntrl/MotorCntrl.c",line 229,column 3,is_stmt
    1713 0000027b 2801-         MOV       @_statusRun,#-1       ; [CPU_] |229| 
         0000027c FFFF 
    1714                      .dwpsn  file "../ConvertorCntrl/MotorCntrl.c",line 230,column 3,is_stmt
    1715 0000027d E2AF          MOV32     R0H,*-SP[10]          ; [CPU_] |230| 
         0000027e 004A 
    1716 0000027f E5A0          CMPF32    R0H,#0                ; [CPU_] |230| 
    1717 00000280 AD14          MOVST0    ZF, NF                ; [CPU_] |230| 
    1718 00000281 6002          B         $C$L32,NEQ            ; [CPU_] |230| 
    1719                      ; branchcc occurs ; [] |230| 
    1720                      .dwpsn  file "../ConvertorCntrl/MotorCntrl.c",line 231,column 4,is_stmt
    1721 00000282 2B01-         MOV       @_statusRun,#0        ; [CPU_] |231| 
    1722 00000283       $C$L32:    
    1723                      .dwpsn  file "../ConvertorCntrl/MotorCntrl.c",line 234,column 3,is_stmt
    1724 00000283 8A44          MOVL      XAR4,*-SP[4]          ; [CPU_] |234| 
    1725 00000284 064A          MOVL      ACC,*-SP[10]          ; [CPU_] |234| 
    1726 00000285 1EC4          MOVL      *+XAR4[0],ACC         ; [CPU_] |234| 
    1727                      .dwpsn  file "../ConvertorCntrl/MotorCntrl.c",line 235,column 3,is_stmt
    1728 00000286 8A46          MOVL      XAR4,*-SP[6]          ; [CPU_] |235| 
    1729 00000287 064A          MOVL      ACC,*-SP[10]          ; [CPU_] |235| 
    1730 00000288 1EC4          MOVL      *+XAR4[0],ACC         ; [CPU_] |235| 
    1731                      .dwpsn  file "../ConvertorCntrl/MotorCntrl.c",line 236,column 3,is_stmt
    1732 00000289 9A00          MOVB      AL,#0                 ; [CPU_] |236| 
    1733 0000028a 9B00          MOVB      AH,#0                 ; [CPU_] |236| 
    1734              $C$DW$151       .dwtag  DW_TAG_TI_branch
    1735                      .dwattr $C$DW$151, DW_AT_low_pc(0x00)
    1736                      .dwattr $C$DW$151, DW_AT_name("_setLedMode")
    1737                      .dwattr $C$DW$151, DW_AT_TI_call
    1738 0000028b 7640!         LCR       #_setLedMode          ; [CPU_] |236| 
         0000028c 0000 
    1739                      ; call occurs [#_setLedMode] ; [] |236| 
    1740                      .dwpsn  file "../ConvertorCntrl/MotorCntrl.c",line 237,column 2,is_stmt
    1741 0000028d 6F0A          B         $C$L34,UNC            ; [CPU_] |237| 
    1742                      ; branch occurs ; [] |237| 
    1743 0000028e       $C$L33:    
    1744                      .dwpsn  file "../ConvertorCntrl/MotorCntrl.c",line 238,column 3,is_stmt
    1745 0000028e 8A44          MOVL      XAR4,*-SP[4]          ; [CPU_] |238| 
    1746 0000028f 8346          MOVL      XAR5,*-SP[6]          ; [CPU_] |238| 
TMS320C2000 Assembler PC v6.2.7 Thu Jul 02 08:31:30 2015

Tools Copyright (c) 1996-2014 Texas Instruments Incorporated
C:\Users\Tester\AppData\Local\Temp\0422811                           PAGE   36

    1747 00000290 E590          ZERO      R0H                   ; [CPU_] |238| 
    1748              $C$DW$152       .dwtag  DW_TAG_TI_branch
    1749                      .dwattr $C$DW$152, DW_AT_low_pc(0x00)
    1750                      .dwattr $C$DW$152, DW_AT_name("_DecelarationPause")
    1751                      .dwattr $C$DW$152, DW_AT_TI_call
    1752 00000291 7640'         LCR       #_DecelarationPause   ; [CPU_] |238| 
         00000292 033C 
    1753                      ; call occurs [#_DecelarationPause] ; [] |238| 
    1754                      .dwpsn  file "../ConvertorCntrl/MotorCntrl.c",line 239,column 3,is_stmt
    1755 00000293 9A00          MOVB      AL,#0                 ; [CPU_] |239| 
    1756 00000294 9B01          MOVB      AH,#1                 ; [CPU_] |239| 
    1757              $C$DW$153       .dwtag  DW_TAG_TI_branch
    1758                      .dwattr $C$DW$153, DW_AT_low_pc(0x00)
    1759                      .dwattr $C$DW$153, DW_AT_name("_setLedMode")
    1760                      .dwattr $C$DW$153, DW_AT_TI_call
    1761 00000295 7640!         LCR       #_setLedMode          ; [CPU_] |239| 
         00000296 0000 
    1762                      ; call occurs [#_setLedMode] ; [] |239| 
    1763                      .dwpsn  file "../ConvertorCntrl/MotorCntrl.c",line 241,column 1,is_stmt
    1764 00000297       $C$L34:    
    1765 00000297 FE8A          SUBB      SP,#10                ; [CPU_U] 
    1766                      .dwcfi  cfa_offset, -2
    1767              $C$DW$154       .dwtag  DW_TAG_TI_branch
    1768                      .dwattr $C$DW$154, DW_AT_low_pc(0x00)
    1769                      .dwattr $C$DW$154, DW_AT_TI_return
    1770 00000298 0006          LRETR     ; [CPU_] 
    1771                      ; return occurs ; [] 
    1772                      .dwattr $C$DW$142, DW_AT_TI_end_file("../ConvertorCntrl/MotorCntrl.c")
    1773                      .dwattr $C$DW$142, DW_AT_TI_end_line(0xf1)
    1774                      .dwattr $C$DW$142, DW_AT_TI_end_column(0x01)
    1775                      .dwendentry
    1776                      .dwendtag $C$DW$142
    1777              
    1778 00000299               .sect   ".text"
    1779                      .clink
    1780                      .global _Decelaration
    1781              
    1782              $C$DW$155       .dwtag  DW_TAG_subprogram, DW_AT_name("Decelaration")
    1783                      .dwattr $C$DW$155, DW_AT_low_pc(_Decelaration)
    1784                      .dwattr $C$DW$155, DW_AT_high_pc(0x00)
    1785                      .dwattr $C$DW$155, DW_AT_TI_symbol_name("_Decelaration")
    1786                      .dwattr $C$DW$155, DW_AT_external
    1787                      .dwattr $C$DW$155, DW_AT_TI_begin_file("../ConvertorCntrl/MotorCntrl.c")
    1788                      .dwattr $C$DW$155, DW_AT_TI_begin_line(0xf3)
    1789                      .dwattr $C$DW$155, DW_AT_TI_begin_column(0x06)
    1790                      .dwattr $C$DW$155, DW_AT_TI_max_frame_size(-14)
    1791                      .dwpsn  file "../ConvertorCntrl/MotorCntrl.c",line 243,column 65,is_stmt,address _Decelaration
    1792              
    1793                      .dwfde $C$DW$CIE, _Decelaration
    1794              $C$DW$156       .dwtag  DW_TAG_formal_parameter, DW_AT_name("task")
    1795                      .dwattr $C$DW$156, DW_AT_TI_symbol_name("_task")
    1796                      .dwattr $C$DW$156, DW_AT_type(*$C$DW$T$16)
    1797                      .dwattr $C$DW$156, DW_AT_location[DW_OP_regx 0x2b]
    1798              $C$DW$157       .dwtag  DW_TAG_formal_parameter, DW_AT_name("freqTask")
    1799                      .dwattr $C$DW$157, DW_AT_TI_symbol_name("_freqTask")
TMS320C2000 Assembler PC v6.2.7 Thu Jul 02 08:31:30 2015

Tools Copyright (c) 1996-2014 Texas Instruments Incorporated
C:\Users\Tester\AppData\Local\Temp\0422811                           PAGE   37

    1800                      .dwattr $C$DW$157, DW_AT_type(*$C$DW$T$21)
    1801                      .dwattr $C$DW$157, DW_AT_location[DW_OP_reg12]
    1802              $C$DW$158       .dwtag  DW_TAG_formal_parameter, DW_AT_name("freqMotor")
    1803                      .dwattr $C$DW$158, DW_AT_TI_symbol_name("_freqMotor")
    1804                      .dwattr $C$DW$158, DW_AT_type(*$C$DW$T$21)
    1805                      .dwattr $C$DW$158, DW_AT_location[DW_OP_reg14]
    1806              
    1807              ;***************************************************************
    1808              ;* FNAME: _Decelaration                 FR SIZE:  12           *
    1809              ;*                                                             *
    1810              ;* FUNCTION ENVIRONMENT                                        *
    1811              ;*                                                             *
    1812              ;* FUNCTION PROPERTIES                                         *
    1813              ;*                            2 Parameter, 10 Auto,  0 SOE     *
    1814              ;***************************************************************
    1815              
    1816 00000299       _Decelaration:
    1817                      .dwcfi  cfa_offset, -2
    1818                      .dwcfi  save_reg_to_mem, 26, 0
    1819                      .dwcfi  save_reg_to_reg, 78, 26
    1820 00000299 FE0C          ADDB      SP,#12                ; [CPU_U] 
    1821                      .dwcfi  cfa_offset, -14
    1822              $C$DW$159       .dwtag  DW_TAG_variable, DW_AT_name("task")
    1823                      .dwattr $C$DW$159, DW_AT_TI_symbol_name("_task")
    1824                      .dwattr $C$DW$159, DW_AT_type(*$C$DW$T$16)
    1825                      .dwattr $C$DW$159, DW_AT_location[DW_OP_breg20 -4]
    1826              $C$DW$160       .dwtag  DW_TAG_variable, DW_AT_name("freqTask")
    1827                      .dwattr $C$DW$160, DW_AT_TI_symbol_name("_freqTask")
    1828                      .dwattr $C$DW$160, DW_AT_type(*$C$DW$T$21)
    1829                      .dwattr $C$DW$160, DW_AT_location[DW_OP_breg20 -6]
    1830              $C$DW$161       .dwtag  DW_TAG_variable, DW_AT_name("freqMotor")
    1831                      .dwattr $C$DW$161, DW_AT_TI_symbol_name("_freqMotor")
    1832                      .dwattr $C$DW$161, DW_AT_type(*$C$DW$T$21)
    1833                      .dwattr $C$DW$161, DW_AT_location[DW_OP_breg20 -8]
    1834              $C$DW$162       .dwtag  DW_TAG_variable, DW_AT_name("stepCheng")
    1835                      .dwattr $C$DW$162, DW_AT_TI_symbol_name("_stepCheng")
    1836                      .dwattr $C$DW$162, DW_AT_type(*$C$DW$T$16)
    1837                      .dwattr $C$DW$162, DW_AT_location[DW_OP_breg20 -10]
    1838              $C$DW$163       .dwtag  DW_TAG_variable, DW_AT_name("tmp")
    1839                      .dwattr $C$DW$163, DW_AT_TI_symbol_name("_tmp")
    1840                      .dwattr $C$DW$163, DW_AT_type(*$C$DW$T$16)
    1841                      .dwattr $C$DW$163, DW_AT_location[DW_OP_breg20 -12]
    1842 0000029a A048          MOVL      *-SP[8],XAR5          ; [CPU_] |243| 
    1843 0000029b A846          MOVL      *-SP[6],XAR4          ; [CPU_] |243| 
    1844 0000029c E203          MOV32     *-SP[4],R0H           ; [CPU_] |243| 
         0000029d 0044 
    1845                      .dwpsn  file "../ConvertorCntrl/MotorCntrl.c",line 247,column 2,is_stmt
    1846              $C$DW$164       .dwtag  DW_TAG_TI_branch
    1847                      .dwattr $C$DW$164, DW_AT_low_pc(0x00)
    1848                      .dwattr $C$DW$164, DW_AT_name("_getStepDecelCheng")
    1849                      .dwattr $C$DW$164, DW_AT_TI_call
    1850 0000029e 7640!         LCR       #_getStepDecelCheng   ; [CPU_] |247| 
         0000029f 0000 
    1851                      ; call occurs [#_getStepDecelCheng] ; [] |247| 
    1852 000002a0 E203          MOV32     *-SP[10],R0H          ; [CPU_] |247| 
TMS320C2000 Assembler PC v6.2.7 Thu Jul 02 08:31:30 2015

Tools Copyright (c) 1996-2014 Texas Instruments Incorporated
C:\Users\Tester\AppData\Local\Temp\0422811                           PAGE   38

         000002a1 004A 
    1853                      .dwpsn  file "../ConvertorCntrl/MotorCntrl.c",line 248,column 2,is_stmt
    1854 000002a2 8A46          MOVL      XAR4,*-SP[6]          ; [CPU_] |248| 
    1855 000002a3 06C4          MOVL      ACC,*+XAR4[0]         ; [CPU_] |248| 
    1856 000002a4 1E4C          MOVL      *-SP[12],ACC          ; [CPU_] |248| 
    1857                      .dwpsn  file "../ConvertorCntrl/MotorCntrl.c",line 249,column 2,is_stmt
    1858              $C$DW$165       .dwtag  DW_TAG_TI_branch
    1859                      .dwattr $C$DW$165, DW_AT_low_pc(0x00)
    1860                      .dwattr $C$DW$165, DW_AT_name("_testOvervoltag")
    1861                      .dwattr $C$DW$165, DW_AT_TI_call
    1862 000002a5 7640!         LCR       #_testOvervoltag      ; [CPU_] |249| 
         000002a6 0000 
    1863                      ; call occurs [#_testOvervoltag] ; [] |249| 
    1864 000002a7 5200          CMPB      AL,#0                 ; [CPU_] |249| 
    1865 000002a8 ED4A          BF        $C$L39,NEQ            ; [CPU_] |249| 
    1866                      ; branchcc occurs ; [] |249| 
    1867                      .dwpsn  file "../ConvertorCntrl/MotorCntrl.c",line 250,column 3,is_stmt
    1868 000002a9 761F-         MOVW      DP,#_statusRun        ; [CPU_U] 
         000002aa 0000 
    1869 000002ab 1B01-         CMP       @_statusRun,#-2       ; [CPU_] |250| 
         000002ac FFFE 
    1870 000002ad EC2E          BF        $C$L36,EQ             ; [CPU_] |250| 
    1871                      ; branchcc occurs ; [] |250| 
    1872 000002ae 9201-         MOV       AL,@_statusRun        ; [CPU_] |250| 
    1873 000002af 5202          CMPB      AL,#2                 ; [CPU_] |250| 
    1874 000002b0 EC2B          BF        $C$L36,EQ             ; [CPU_] |250| 
    1875                      ; branchcc occurs ; [] |250| 
    1876                      .dwpsn  file "../ConvertorCntrl/MotorCntrl.c",line 251,column 4,is_stmt
    1877 000002b1 E2AF          MOV32     R0H,*-SP[12]          ; [CPU_] |251| 
         000002b2 004C 
    1878 000002b3 E5A0          CMPF32    R0H,#0                ; [CPU_] |251| 
    1879 000002b4 AD14          MOVST0    ZF, NF                ; [CPU_] |251| 
    1880 000002b5 6515          B         $C$L35,LEQ            ; [CPU_] |251| 
    1881                      ; branchcc occurs ; [] |251| 
    1882                      .dwpsn  file "../ConvertorCntrl/MotorCntrl.c",line 252,column 5,is_stmt
    1883 000002b6 E2AF          MOV32     R0H,*-SP[10]          ; [CPU_] |252| 
         000002b7 004A 
    1884 000002b8 E2AF          MOV32     R1H,*-SP[12]          ; [CPU_] |252| 
         000002b9 014C 
    1885 000002ba E720          SUBF32    R0H,R1H,R0H           ; [CPU_] |252| 
         000002bb 0008 
    1886 000002bc 7700          NOP       ; [CPU_] 
    1887 000002bd E203          MOV32     *-SP[12],R0H          ; [CPU_] |252| 
         000002be 004C 
    1888                      .dwpsn  file "../ConvertorCntrl/MotorCntrl.c",line 253,column 5,is_stmt
    1889 000002bf E2AF          MOV32     R0H,*-SP[4]           ; [CPU_] |253| 
         000002c0 0044 
    1890 000002c1 E2AF          MOV32     R1H,*-SP[12]          ; [CPU_] |253| 
         000002c2 014C 
    1891 000002c3 E694          CMPF32    R1H,R0H               ; [CPU_] |253| 
         000002c4 0001 
    1892 000002c5 AD14          MOVST0    ZF, NF                ; [CPU_] |253| 
    1893 000002c6 6315          B         $C$L36,GEQ            ; [CPU_] |253| 
    1894                      ; branchcc occurs ; [] |253| 
    1895                      .dwpsn  file "../ConvertorCntrl/MotorCntrl.c",line 254,column 6,is_stmt
TMS320C2000 Assembler PC v6.2.7 Thu Jul 02 08:31:30 2015

Tools Copyright (c) 1996-2014 Texas Instruments Incorporated
C:\Users\Tester\AppData\Local\Temp\0422811                           PAGE   39

    1896 000002c7 0644          MOVL      ACC,*-SP[4]           ; [CPU_] |254| 
    1897 000002c8 1E4C          MOVL      *-SP[12],ACC          ; [CPU_] |254| 
    1898                      .dwpsn  file "../ConvertorCntrl/MotorCntrl.c",line 256,column 4,is_stmt
    1899 000002c9 6F12          B         $C$L36,UNC            ; [CPU_] |256| 
    1900                      ; branch occurs ; [] |256| 
    1901 000002ca       $C$L35:    
    1902                      .dwpsn  file "../ConvertorCntrl/MotorCntrl.c",line 257,column 5,is_stmt
    1903 000002ca E2AF          MOV32     R1H,*-SP[10]          ; [CPU_] |257| 
         000002cb 014A 
    1904 000002cc E710          ADDF32    R0H,R0H,R1H           ; [CPU_] |257| 
         000002cd 0040 
    1905 000002ce 7700          NOP       ; [CPU_] 
    1906 000002cf E203          MOV32     *-SP[12],R0H          ; [CPU_] |257| 
         000002d0 004C 
    1907                      .dwpsn  file "../ConvertorCntrl/MotorCntrl.c",line 258,column 5,is_stmt
    1908 000002d1 E2AF          MOV32     R0H,*-SP[4]           ; [CPU_] |258| 
         000002d2 0044 
    1909 000002d3 E2AF          MOV32     R1H,*-SP[12]          ; [CPU_] |258| 
         000002d4 014C 
    1910 000002d5 E694          CMPF32    R1H,R0H               ; [CPU_] |258| 
         000002d6 0001 
    1911 000002d7 AD14          MOVST0    ZF, NF                ; [CPU_] |258| 
    1912 000002d8 6503          B         $C$L36,LEQ            ; [CPU_] |258| 
    1913                      ; branchcc occurs ; [] |258| 
    1914                      .dwpsn  file "../ConvertorCntrl/MotorCntrl.c",line 259,column 6,is_stmt
    1915 000002d9 0644          MOVL      ACC,*-SP[4]           ; [CPU_] |259| 
    1916 000002da 1E4C          MOVL      *-SP[12],ACC          ; [CPU_] |259| 
    1917 000002db       $C$L36:    
    1918                      .dwpsn  file "../ConvertorCntrl/MotorCntrl.c",line 264,column 3,is_stmt
    1919 000002db E2AF          MOV32     R0H,*-SP[4]           ; [CPU_] |264| 
         000002dc 0044 
    1920 000002dd E2AF          MOV32     R1H,*-SP[12]          ; [CPU_] |264| 
         000002de 014C 
    1921 000002df E694          CMPF32    R1H,R0H               ; [CPU_] |264| 
         000002e0 0001 
    1922 000002e1 AD14          MOVST0    ZF, NF                ; [CPU_] |264| 
    1923 000002e2 6003          B         $C$L37,NEQ            ; [CPU_] |264| 
    1924                      ; branchcc occurs ; [] |264| 
    1925                      .dwpsn  file "../ConvertorCntrl/MotorCntrl.c",line 265,column 4,is_stmt
    1926 000002e3 2B01-         MOV       @_statusRun,#0        ; [CPU_] |265| 
    1927                      .dwpsn  file "../ConvertorCntrl/MotorCntrl.c",line 266,column 3,is_stmt
    1928 000002e4 6F03          B         $C$L38,UNC            ; [CPU_] |266| 
    1929                      ; branch occurs ; [] |266| 
    1930 000002e5       $C$L37:    
    1931                      .dwpsn  file "../ConvertorCntrl/MotorCntrl.c",line 267,column 4,is_stmt
    1932 000002e5 2801-         MOV       @_statusRun,#-1       ; [CPU_] |267| 
         000002e6 FFFF 
    1933 000002e7       $C$L38:    
    1934                      .dwpsn  file "../ConvertorCntrl/MotorCntrl.c",line 270,column 3,is_stmt
    1935 000002e7 8A46          MOVL      XAR4,*-SP[6]          ; [CPU_] |270| 
    1936 000002e8 064C          MOVL      ACC,*-SP[12]          ; [CPU_] |270| 
    1937 000002e9 1EC4          MOVL      *+XAR4[0],ACC         ; [CPU_] |270| 
    1938                      .dwpsn  file "../ConvertorCntrl/MotorCntrl.c",line 271,column 3,is_stmt
    1939 000002ea 8A48          MOVL      XAR4,*-SP[8]          ; [CPU_] |271| 
    1940 000002eb 064C          MOVL      ACC,*-SP[12]          ; [CPU_] |271| 
TMS320C2000 Assembler PC v6.2.7 Thu Jul 02 08:31:30 2015

Tools Copyright (c) 1996-2014 Texas Instruments Incorporated
C:\Users\Tester\AppData\Local\Temp\0422811                           PAGE   40

    1941 000002ec 1EC4          MOVL      *+XAR4[0],ACC         ; [CPU_] |271| 
    1942                      .dwpsn  file "../ConvertorCntrl/MotorCntrl.c",line 272,column 3,is_stmt
    1943 000002ed 9A00          MOVB      AL,#0                 ; [CPU_] |272| 
    1944 000002ee 9B00          MOVB      AH,#0                 ; [CPU_] |272| 
    1945              $C$DW$166       .dwtag  DW_TAG_TI_branch
    1946                      .dwattr $C$DW$166, DW_AT_low_pc(0x00)
    1947                      .dwattr $C$DW$166, DW_AT_name("_setLedMode")
    1948                      .dwattr $C$DW$166, DW_AT_TI_call
    1949 000002ef 7640!         LCR       #_setLedMode          ; [CPU_] |272| 
         000002f0 0000 
    1950                      ; call occurs [#_setLedMode] ; [] |272| 
    1951                      .dwpsn  file "../ConvertorCntrl/MotorCntrl.c",line 273,column 2,is_stmt
    1952 000002f1 6F0B          B         $C$L40,UNC            ; [CPU_] |273| 
    1953                      ; branch occurs ; [] |273| 
    1954 000002f2       $C$L39:    
    1955                      .dwpsn  file "../ConvertorCntrl/MotorCntrl.c",line 274,column 3,is_stmt
    1956 000002f2 E2AF          MOV32     R0H,*-SP[4]           ; [CPU_] |274| 
         000002f3 0044 
    1957 000002f4 8A46          MOVL      XAR4,*-SP[6]          ; [CPU_] |274| 
    1958 000002f5 8348          MOVL      XAR5,*-SP[8]          ; [CPU_] |274| 
    1959              $C$DW$167       .dwtag  DW_TAG_TI_branch
    1960                      .dwattr $C$DW$167, DW_AT_low_pc(0x00)
    1961                      .dwattr $C$DW$167, DW_AT_name("_DecelarationPause")
    1962                      .dwattr $C$DW$167, DW_AT_TI_call
    1963 000002f6 7640'         LCR       #_DecelarationPause   ; [CPU_] |274| 
         000002f7 033C 
    1964                      ; call occurs [#_DecelarationPause] ; [] |274| 
    1965                      .dwpsn  file "../ConvertorCntrl/MotorCntrl.c",line 275,column 3,is_stmt
    1966 000002f8 9A00          MOVB      AL,#0                 ; [CPU_] |275| 
    1967 000002f9 9B01          MOVB      AH,#1                 ; [CPU_] |275| 
    1968              $C$DW$168       .dwtag  DW_TAG_TI_branch
    1969                      .dwattr $C$DW$168, DW_AT_low_pc(0x00)
    1970                      .dwattr $C$DW$168, DW_AT_name("_setLedMode")
    1971                      .dwattr $C$DW$168, DW_AT_TI_call
    1972 000002fa 7640!         LCR       #_setLedMode          ; [CPU_] |275| 
         000002fb 0000 
    1973                      ; call occurs [#_setLedMode] ; [] |275| 
    1974                      .dwpsn  file "../ConvertorCntrl/MotorCntrl.c",line 277,column 1,is_stmt
    1975 000002fc       $C$L40:    
    1976 000002fc FE8C          SUBB      SP,#12                ; [CPU_U] 
    1977                      .dwcfi  cfa_offset, -2
    1978              $C$DW$169       .dwtag  DW_TAG_TI_branch
    1979                      .dwattr $C$DW$169, DW_AT_low_pc(0x00)
    1980                      .dwattr $C$DW$169, DW_AT_TI_return
    1981 000002fd 0006          LRETR     ; [CPU_] 
    1982                      ; return occurs ; [] 
    1983                      .dwattr $C$DW$155, DW_AT_TI_end_file("../ConvertorCntrl/MotorCntrl.c")
    1984                      .dwattr $C$DW$155, DW_AT_TI_end_line(0x115)
    1985                      .dwattr $C$DW$155, DW_AT_TI_end_column(0x01)
    1986                      .dwendentry
    1987                      .dwendtag $C$DW$155
    1988              
    1989 000002fe               .sect   ".text"
    1990                      .clink
    1991                      .global _AccelarationPause
TMS320C2000 Assembler PC v6.2.7 Thu Jul 02 08:31:30 2015

Tools Copyright (c) 1996-2014 Texas Instruments Incorporated
C:\Users\Tester\AppData\Local\Temp\0422811                           PAGE   41

    1992              
    1993              $C$DW$170       .dwtag  DW_TAG_subprogram, DW_AT_name("AccelarationPause")
    1994                      .dwattr $C$DW$170, DW_AT_low_pc(_AccelarationPause)
    1995                      .dwattr $C$DW$170, DW_AT_high_pc(0x00)
    1996                      .dwattr $C$DW$170, DW_AT_TI_symbol_name("_AccelarationPause")
    1997                      .dwattr $C$DW$170, DW_AT_external
    1998                      .dwattr $C$DW$170, DW_AT_TI_begin_file("../ConvertorCntrl/MotorCntrl.c")
    1999                      .dwattr $C$DW$170, DW_AT_TI_begin_line(0x117)
    2000                      .dwattr $C$DW$170, DW_AT_TI_begin_column(0x06)
    2001                      .dwattr $C$DW$170, DW_AT_TI_max_frame_size(-14)
    2002                      .dwpsn  file "../ConvertorCntrl/MotorCntrl.c",line 279,column 70,is_stmt,address _AccelarationPause
    2003              
    2004                      .dwfde $C$DW$CIE, _AccelarationPause
    2005              $C$DW$171       .dwtag  DW_TAG_formal_parameter, DW_AT_name("task")
    2006                      .dwattr $C$DW$171, DW_AT_TI_symbol_name("_task")
    2007                      .dwattr $C$DW$171, DW_AT_type(*$C$DW$T$16)
    2008                      .dwattr $C$DW$171, DW_AT_location[DW_OP_regx 0x2b]
    2009              $C$DW$172       .dwtag  DW_TAG_formal_parameter, DW_AT_name("freqTask")
    2010                      .dwattr $C$DW$172, DW_AT_TI_symbol_name("_freqTask")
    2011                      .dwattr $C$DW$172, DW_AT_type(*$C$DW$T$21)
    2012                      .dwattr $C$DW$172, DW_AT_location[DW_OP_reg12]
    2013              $C$DW$173       .dwtag  DW_TAG_formal_parameter, DW_AT_name("freqMotor")
    2014                      .dwattr $C$DW$173, DW_AT_TI_symbol_name("_freqMotor")
    2015                      .dwattr $C$DW$173, DW_AT_type(*$C$DW$T$21)
    2016                      .dwattr $C$DW$173, DW_AT_location[DW_OP_reg14]
    2017              
    2018              ;***************************************************************
    2019              ;* FNAME: _AccelarationPause            FR SIZE:  12           *
    2020              ;*                                                             *
    2021              ;* FUNCTION ENVIRONMENT                                        *
    2022              ;*                                                             *
    2023              ;* FUNCTION PROPERTIES                                         *
    2024              ;*                            2 Parameter, 10 Auto,  0 SOE     *
    2025              ;***************************************************************
    2026              
    2027 000002fe       _AccelarationPause:
    2028                      .dwcfi  cfa_offset, -2
    2029                      .dwcfi  save_reg_to_mem, 26, 0
    2030                      .dwcfi  save_reg_to_reg, 78, 26
    2031 000002fe FE0C          ADDB      SP,#12                ; [CPU_U] 
    2032                      .dwcfi  cfa_offset, -14
    2033              $C$DW$174       .dwtag  DW_TAG_variable, DW_AT_name("task")
    2034                      .dwattr $C$DW$174, DW_AT_TI_symbol_name("_task")
    2035                      .dwattr $C$DW$174, DW_AT_type(*$C$DW$T$16)
    2036                      .dwattr $C$DW$174, DW_AT_location[DW_OP_breg20 -4]
    2037              $C$DW$175       .dwtag  DW_TAG_variable, DW_AT_name("freqTask")
    2038                      .dwattr $C$DW$175, DW_AT_TI_symbol_name("_freqTask")
    2039                      .dwattr $C$DW$175, DW_AT_type(*$C$DW$T$21)
    2040                      .dwattr $C$DW$175, DW_AT_location[DW_OP_breg20 -6]
    2041              $C$DW$176       .dwtag  DW_TAG_variable, DW_AT_name("freqMotor")
    2042                      .dwattr $C$DW$176, DW_AT_TI_symbol_name("_freqMotor")
    2043                      .dwattr $C$DW$176, DW_AT_type(*$C$DW$T$21)
    2044                      .dwattr $C$DW$176, DW_AT_location[DW_OP_breg20 -8]
    2045              $C$DW$177       .dwtag  DW_TAG_variable, DW_AT_name("tmp")
    2046                      .dwattr $C$DW$177, DW_AT_TI_symbol_name("_tmp")
TMS320C2000 Assembler PC v6.2.7 Thu Jul 02 08:31:30 2015

Tools Copyright (c) 1996-2014 Texas Instruments Incorporated
C:\Users\Tester\AppData\Local\Temp\0422811                           PAGE   42

    2047                      .dwattr $C$DW$177, DW_AT_type(*$C$DW$T$16)
    2048                      .dwattr $C$DW$177, DW_AT_location[DW_OP_breg20 -10]
    2049              $C$DW$178       .dwtag  DW_TAG_variable, DW_AT_name("over")
    2050                      .dwattr $C$DW$178, DW_AT_TI_symbol_name("_over")
    2051                      .dwattr $C$DW$178, DW_AT_type(*$C$DW$T$16)
    2052                      .dwattr $C$DW$178, DW_AT_location[DW_OP_breg20 -12]
    2053 000002ff A048          MOVL      *-SP[8],XAR5          ; [CPU_] |279| 
    2054 00000300 A846          MOVL      *-SP[6],XAR4          ; [CPU_] |279| 
    2055 00000301 E203          MOV32     *-SP[4],R0H           ; [CPU_] |279| 
         00000302 0044 
    2056                      .dwpsn  file "../ConvertorCntrl/MotorCntrl.c",line 281,column 2,is_stmt
    2057 00000303 8A46          MOVL      XAR4,*-SP[6]          ; [CPU_] |281| 
    2058 00000304 06C4          MOVL      ACC,*+XAR4[0]         ; [CPU_] |281| 
    2059 00000305 1E4A          MOVL      *-SP[10],ACC          ; [CPU_] |281| 
    2060                      .dwpsn  file "../ConvertorCntrl/MotorCntrl.c",line 282,column 2,is_stmt
    2061              $C$DW$179       .dwtag  DW_TAG_TI_branch
    2062                      .dwattr $C$DW$179, DW_AT_low_pc(0x00)
    2063                      .dwattr $C$DW$179, DW_AT_name("_getOverloadFrequency")
    2064                      .dwattr $C$DW$179, DW_AT_TI_call
    2065 00000306 7640!         LCR       #_getOverloadFrequency ; [CPU_] |282| 
         00000307 0000 
    2066                      ; call occurs [#_getOverloadFrequency] ; [] |282| 
    2067 00000308 E203          MOV32     *-SP[12],R0H          ; [CPU_] |282| 
         00000309 004C 
    2068                      .dwpsn  file "../ConvertorCntrl/MotorCntrl.c",line 283,column 2,is_stmt
    2069              $C$DW$180       .dwtag  DW_TAG_TI_branch
    2070                      .dwattr $C$DW$180, DW_AT_low_pc(0x00)
    2071                      .dwattr $C$DW$180, DW_AT_name("_testOvercurrent")
    2072                      .dwattr $C$DW$180, DW_AT_TI_call
    2073 0000030a 7640!         LCR       #_testOvercurrent     ; [CPU_] |283| 
         0000030b 0000 
    2074                      ; call occurs [#_testOvercurrent] ; [] |283| 
    2075 0000030c 5200          CMPB      AL,#0                 ; [CPU_] |283| 
    2076 0000030d EC2A          BF        $C$L43,EQ             ; [CPU_] |283| 
    2077                      ; branchcc occurs ; [] |283| 
    2078                      .dwpsn  file "../ConvertorCntrl/MotorCntrl.c",line 284,column 3,is_stmt
    2079 0000030e 761F-         MOVW      DP,#_statusRun        ; [CPU_U] 
         0000030f 0000 
    2080 00000310 56BF-         MOVB      @_statusRun,#2,UNC    ; [CPU_] |284| 
         00000311 0201 
    2081                      .dwpsn  file "../ConvertorCntrl/MotorCntrl.c",line 285,column 3,is_stmt
    2082 00000312 E2AF          MOV32     R0H,*-SP[10]          ; [CPU_] |285| 
         00000313 004A 
    2083 00000314 E5A0          CMPF32    R0H,#0                ; [CPU_] |285| 
    2084 00000315 AD14          MOVST0    ZF, NF                ; [CPU_] |285| 
    2085 00000316 6511          B         $C$L41,LEQ            ; [CPU_] |285| 
    2086                      ; branchcc occurs ; [] |285| 
    2087                      .dwpsn  file "../ConvertorCntrl/MotorCntrl.c",line 286,column 4,is_stmt
    2088 00000317 E2AF          MOV32     R0H,*-SP[12]          ; [CPU_] |286| 
         00000318 004C 
    2089 00000319 E2AF          MOV32     R1H,*-SP[10]          ; [CPU_] |286| 
         0000031a 014A 
    2090 0000031b E720          SUBF32    R0H,R1H,R0H           ; [CPU_] |286| 
         0000031c 0008 
    2091 0000031d 7700          NOP       ; [CPU_] 
TMS320C2000 Assembler PC v6.2.7 Thu Jul 02 08:31:30 2015

Tools Copyright (c) 1996-2014 Texas Instruments Incorporated
C:\Users\Tester\AppData\Local\Temp\0422811                           PAGE   43

    2092 0000031e E203          MOV32     *-SP[10],R0H          ; [CPU_] |286| 
         0000031f 004A 
    2093                      .dwpsn  file "../ConvertorCntrl/MotorCntrl.c",line 287,column 4,is_stmt
    2094 00000320 E5A0          CMPF32    R0H,#0                ; [CPU_] |287| 
    2095 00000321 AD14          MOVST0    ZF, NF                ; [CPU_] |287| 
    2096 00000322 6315          B         $C$L43,GEQ            ; [CPU_] |287| 
    2097                      ; branchcc occurs ; [] |287| 
    2098                      .dwpsn  file "../ConvertorCntrl/MotorCntrl.c",line 288,column 5,is_stmt
    2099 00000323 E590          ZERO      R0H                   ; [CPU_] |288| 
    2100 00000324 E203          MOV32     *-SP[10],R0H          ; [CPU_] |288| 
         00000325 004A 
    2101                      .dwpsn  file "../ConvertorCntrl/MotorCntrl.c",line 289,column 3,is_stmt
    2102 00000326 6F11          B         $C$L43,UNC            ; [CPU_] |289| 
    2103                      ; branch occurs ; [] |289| 
    2104 00000327       $C$L41:    
    2105                      .dwpsn  file "../ConvertorCntrl/MotorCntrl.c",line 290,column 4,is_stmt
    2106 00000327 E5A0          CMPF32    R0H,#0                ; [CPU_] |290| 
    2107 00000328 AD14          MOVST0    ZF, NF                ; [CPU_] |290| 
    2108 00000329 6108          B         $C$L42,EQ             ; [CPU_] |290| 
    2109                      ; branchcc occurs ; [] |290| 
    2110                      .dwpsn  file "../ConvertorCntrl/MotorCntrl.c",line 291,column 5,is_stmt
    2111 0000032a E2AF          MOV32     R1H,*-SP[12]          ; [CPU_] |291| 
         0000032b 014C 
    2112 0000032c E710          ADDF32    R0H,R0H,R1H           ; [CPU_] |291| 
         0000032d 0040 
    2113 0000032e 7700          NOP       ; [CPU_] 
    2114 0000032f E203          MOV32     *-SP[10],R0H          ; [CPU_] |291| 
         00000330 004A 
    2115 00000331       $C$L42:    
    2116                      .dwpsn  file "../ConvertorCntrl/MotorCntrl.c",line 292,column 4,is_stmt
    2117 00000331 E5A0          CMPF32    R0H,#0                ; [CPU_] |292| 
    2118 00000332 AD14          MOVST0    ZF, NF                ; [CPU_] |292| 
    2119 00000333 6504          B         $C$L43,LEQ            ; [CPU_] |292| 
    2120                      ; branchcc occurs ; [] |292| 
    2121                      .dwpsn  file "../ConvertorCntrl/MotorCntrl.c",line 293,column 5,is_stmt
    2122 00000334 E590          ZERO      R0H                   ; [CPU_] |293| 
    2123 00000335 E203          MOV32     *-SP[10],R0H          ; [CPU_] |293| 
         00000336 004A 
    2124 00000337       $C$L43:    
    2125                      .dwpsn  file "../ConvertorCntrl/MotorCntrl.c",line 296,column 2,is_stmt
    2126 00000337 8A48          MOVL      XAR4,*-SP[8]          ; [CPU_] |296| 
    2127 00000338 064A          MOVL      ACC,*-SP[10]          ; [CPU_] |296| 
    2128 00000339 1EC4          MOVL      *+XAR4[0],ACC         ; [CPU_] |296| 
    2129                      .dwpsn  file "../ConvertorCntrl/MotorCntrl.c",line 297,column 1,is_stmt
    2130 0000033a FE8C          SUBB      SP,#12                ; [CPU_U] 
    2131                      .dwcfi  cfa_offset, -2
    2132              $C$DW$181       .dwtag  DW_TAG_TI_branch
    2133                      .dwattr $C$DW$181, DW_AT_low_pc(0x00)
    2134                      .dwattr $C$DW$181, DW_AT_TI_return
    2135 0000033b 0006          LRETR     ; [CPU_] 
    2136                      ; return occurs ; [] 
    2137                      .dwattr $C$DW$170, DW_AT_TI_end_file("../ConvertorCntrl/MotorCntrl.c")
    2138                      .dwattr $C$DW$170, DW_AT_TI_end_line(0x129)
    2139                      .dwattr $C$DW$170, DW_AT_TI_end_column(0x01)
    2140                      .dwendentry
TMS320C2000 Assembler PC v6.2.7 Thu Jul 02 08:31:30 2015

Tools Copyright (c) 1996-2014 Texas Instruments Incorporated
C:\Users\Tester\AppData\Local\Temp\0422811                           PAGE   44

    2141                      .dwendtag $C$DW$170
    2142              
    2143 0000033c               .sect   ".text"
    2144                      .clink
    2145                      .global _DecelarationPause
    2146              
    2147              $C$DW$182       .dwtag  DW_TAG_subprogram, DW_AT_name("DecelarationPause")
    2148                      .dwattr $C$DW$182, DW_AT_low_pc(_DecelarationPause)
    2149                      .dwattr $C$DW$182, DW_AT_high_pc(0x00)
    2150                      .dwattr $C$DW$182, DW_AT_TI_symbol_name("_DecelarationPause")
    2151                      .dwattr $C$DW$182, DW_AT_external
    2152                      .dwattr $C$DW$182, DW_AT_TI_begin_file("../ConvertorCntrl/MotorCntrl.c")
    2153                      .dwattr $C$DW$182, DW_AT_TI_begin_line(0x12b)
    2154                      .dwattr $C$DW$182, DW_AT_TI_begin_column(0x06)
    2155                      .dwattr $C$DW$182, DW_AT_TI_max_frame_size(-14)
    2156                      .dwpsn  file "../ConvertorCntrl/MotorCntrl.c",line 299,column 70,is_stmt,address _DecelarationPause
    2157              
    2158                      .dwfde $C$DW$CIE, _DecelarationPause
    2159              $C$DW$183       .dwtag  DW_TAG_formal_parameter, DW_AT_name("task")
    2160                      .dwattr $C$DW$183, DW_AT_TI_symbol_name("_task")
    2161                      .dwattr $C$DW$183, DW_AT_type(*$C$DW$T$16)
    2162                      .dwattr $C$DW$183, DW_AT_location[DW_OP_regx 0x2b]
    2163              $C$DW$184       .dwtag  DW_TAG_formal_parameter, DW_AT_name("freqTask")
    2164                      .dwattr $C$DW$184, DW_AT_TI_symbol_name("_freqTask")
    2165                      .dwattr $C$DW$184, DW_AT_type(*$C$DW$T$21)
    2166                      .dwattr $C$DW$184, DW_AT_location[DW_OP_reg12]
    2167              $C$DW$185       .dwtag  DW_TAG_formal_parameter, DW_AT_name("freqMotor")
    2168                      .dwattr $C$DW$185, DW_AT_TI_symbol_name("_freqMotor")
    2169                      .dwattr $C$DW$185, DW_AT_type(*$C$DW$T$21)
    2170                      .dwattr $C$DW$185, DW_AT_location[DW_OP_reg14]
    2171              
    2172              ;***************************************************************
    2173              ;* FNAME: _DecelarationPause            FR SIZE:  12           *
    2174              ;*                                                             *
    2175              ;* FUNCTION ENVIRONMENT                                        *
    2176              ;*                                                             *
    2177              ;* FUNCTION PROPERTIES                                         *
    2178              ;*                            2 Parameter, 10 Auto,  0 SOE     *
    2179              ;***************************************************************
    2180              
    2181 0000033c       _DecelarationPause:
    2182                      .dwcfi  cfa_offset, -2
    2183                      .dwcfi  save_reg_to_mem, 26, 0
    2184                      .dwcfi  save_reg_to_reg, 78, 26
    2185 0000033c FE0C          ADDB      SP,#12                ; [CPU_U] 
    2186                      .dwcfi  cfa_offset, -14
    2187              $C$DW$186       .dwtag  DW_TAG_variable, DW_AT_name("task")
    2188                      .dwattr $C$DW$186, DW_AT_TI_symbol_name("_task")
    2189                      .dwattr $C$DW$186, DW_AT_type(*$C$DW$T$16)
    2190                      .dwattr $C$DW$186, DW_AT_location[DW_OP_breg20 -4]
    2191              $C$DW$187       .dwtag  DW_TAG_variable, DW_AT_name("freqTask")
    2192                      .dwattr $C$DW$187, DW_AT_TI_symbol_name("_freqTask")
    2193                      .dwattr $C$DW$187, DW_AT_type(*$C$DW$T$21)
    2194                      .dwattr $C$DW$187, DW_AT_location[DW_OP_breg20 -6]
    2195              $C$DW$188       .dwtag  DW_TAG_variable, DW_AT_name("freqMotor")
TMS320C2000 Assembler PC v6.2.7 Thu Jul 02 08:31:30 2015

Tools Copyright (c) 1996-2014 Texas Instruments Incorporated
C:\Users\Tester\AppData\Local\Temp\0422811                           PAGE   45

    2196                      .dwattr $C$DW$188, DW_AT_TI_symbol_name("_freqMotor")
    2197                      .dwattr $C$DW$188, DW_AT_type(*$C$DW$T$21)
    2198                      .dwattr $C$DW$188, DW_AT_location[DW_OP_breg20 -8]
    2199              $C$DW$189       .dwtag  DW_TAG_variable, DW_AT_name("tmp")
    2200                      .dwattr $C$DW$189, DW_AT_TI_symbol_name("_tmp")
    2201                      .dwattr $C$DW$189, DW_AT_type(*$C$DW$T$16)
    2202                      .dwattr $C$DW$189, DW_AT_location[DW_OP_breg20 -10]
    2203              $C$DW$190       .dwtag  DW_TAG_variable, DW_AT_name("over")
    2204                      .dwattr $C$DW$190, DW_AT_TI_symbol_name("_over")
    2205                      .dwattr $C$DW$190, DW_AT_type(*$C$DW$T$16)
    2206                      .dwattr $C$DW$190, DW_AT_location[DW_OP_breg20 -12]
    2207 0000033d A048          MOVL      *-SP[8],XAR5          ; [CPU_] |299| 
    2208 0000033e A846          MOVL      *-SP[6],XAR4          ; [CPU_] |299| 
    2209 0000033f E203          MOV32     *-SP[4],R0H           ; [CPU_] |299| 
         00000340 0044 
    2210                      .dwpsn  file "../ConvertorCntrl/MotorCntrl.c",line 301,column 2,is_stmt
    2211 00000341 8A46          MOVL      XAR4,*-SP[6]          ; [CPU_] |301| 
    2212 00000342 06C4          MOVL      ACC,*+XAR4[0]         ; [CPU_] |301| 
    2213 00000343 1E4A          MOVL      *-SP[10],ACC          ; [CPU_] |301| 
    2214                      .dwpsn  file "../ConvertorCntrl/MotorCntrl.c",line 302,column 2,is_stmt
    2215              $C$DW$191       .dwtag  DW_TAG_TI_branch
    2216                      .dwattr $C$DW$191, DW_AT_low_pc(0x00)
    2217                      .dwattr $C$DW$191, DW_AT_name("_getOvervoltagFrequency")
    2218                      .dwattr $C$DW$191, DW_AT_TI_call
    2219 00000344 7640!         LCR       #_getOvervoltagFrequency ; [CPU_] |302| 
         00000345 0000 
    2220                      ; call occurs [#_getOvervoltagFrequency] ; [] |302| 
    2221 00000346 E203          MOV32     *-SP[12],R0H          ; [CPU_] |302| 
         00000347 004C 
    2222                      .dwpsn  file "../ConvertorCntrl/MotorCntrl.c",line 304,column 2,is_stmt
    2223              $C$DW$192       .dwtag  DW_TAG_TI_branch
    2224                      .dwattr $C$DW$192, DW_AT_low_pc(0x00)
    2225                      .dwattr $C$DW$192, DW_AT_name("_testOvervoltag")
    2226                      .dwattr $C$DW$192, DW_AT_TI_call
    2227 00000348 7640!         LCR       #_testOvervoltag      ; [CPU_] |304| 
         00000349 0000 
    2228                      ; call occurs [#_testOvervoltag] ; [] |304| 
    2229 0000034a 5200          CMPB      AL,#0                 ; [CPU_] |304| 
    2230 0000034b EC3B          BF        $C$L47,EQ             ; [CPU_] |304| 
    2231                      ; branchcc occurs ; [] |304| 
    2232                      .dwpsn  file "../ConvertorCntrl/MotorCntrl.c",line 305,column 3,is_stmt
    2233 0000034c 761F-         MOVW      DP,#_statusRun        ; [CPU_U] 
         0000034d 0000 
    2234 0000034e 2801-         MOV       @_statusRun,#-2       ; [CPU_] |305| 
         0000034f FFFE 
    2235                      .dwpsn  file "../ConvertorCntrl/MotorCntrl.c",line 306,column 3,is_stmt
    2236 00000350 E2AF          MOV32     R0H,*-SP[10]          ; [CPU_] |306| 
         00000351 004A 
    2237 00000352 E5A0          CMPF32    R0H,#0                ; [CPU_] |306| 
    2238 00000353 AD14          MOVST0    ZF, NF                ; [CPU_] |306| 
    2239 00000354 6513          B         $C$L44,LEQ            ; [CPU_] |306| 
    2240                      ; branchcc occurs ; [] |306| 
    2241                      .dwpsn  file "../ConvertorCntrl/MotorCntrl.c",line 307,column 4,is_stmt
    2242 00000355 E2AF          MOV32     R1H,*-SP[12]          ; [CPU_] |307| 
         00000356 014C 
TMS320C2000 Assembler PC v6.2.7 Thu Jul 02 08:31:30 2015

Tools Copyright (c) 1996-2014 Texas Instruments Incorporated
C:\Users\Tester\AppData\Local\Temp\0422811                           PAGE   46

    2243 00000357 E710          ADDF32    R0H,R0H,R1H           ; [CPU_] |307| 
         00000358 0040 
    2244 00000359 7700          NOP       ; [CPU_] 
    2245 0000035a E203          MOV32     *-SP[10],R0H          ; [CPU_] |307| 
         0000035b 004A 
    2246                      .dwpsn  file "../ConvertorCntrl/MotorCntrl.c",line 308,column 4,is_stmt
    2247 0000035c E2AF-         MOV32     R0H,@_MaxInvertorFrequency ; [CPU_] |308| 
         0000035d 0004 
    2248 0000035e E2AF          MOV32     R1H,*-SP[10]          ; [CPU_] |308| 
         0000035f 014A 
    2249 00000360 E694          CMPF32    R1H,R0H               ; [CPU_] |308| 
         00000361 0001 
    2250 00000362 AD14          MOVST0    ZF, NF                ; [CPU_] |308| 
    2251 00000363 6520          B         $C$L46,LEQ            ; [CPU_] |308| 
    2252                      ; branchcc occurs ; [] |308| 
    2253                      .dwpsn  file "../ConvertorCntrl/MotorCntrl.c",line 309,column 5,is_stmt
    2254 00000364 0604-         MOVL      ACC,@_MaxInvertorFrequency ; [CPU_] |309| 
    2255 00000365 1E4A          MOVL      *-SP[10],ACC          ; [CPU_] |309| 
    2256                      .dwpsn  file "../ConvertorCntrl/MotorCntrl.c",line 310,column 3,is_stmt
    2257 00000366 6F1D          B         $C$L46,UNC            ; [CPU_] |310| 
    2258                      ; branch occurs ; [] |310| 
    2259 00000367       $C$L44:    
    2260                      .dwpsn  file "../ConvertorCntrl/MotorCntrl.c",line 311,column 4,is_stmt
    2261 00000367 E5A0          CMPF32    R0H,#0                ; [CPU_] |311| 
    2262 00000368 AD14          MOVST0    ZF, NF                ; [CPU_] |311| 
    2263 00000369 610A          B         $C$L45,EQ             ; [CPU_] |311| 
    2264                      ; branchcc occurs ; [] |311| 
    2265                      .dwpsn  file "../ConvertorCntrl/MotorCntrl.c",line 312,column 5,is_stmt
    2266 0000036a E2AF          MOV32     R0H,*-SP[12]          ; [CPU_] |312| 
         0000036b 004C 
    2267 0000036c E2AF          MOV32     R1H,*-SP[10]          ; [CPU_] |312| 
         0000036d 014A 
    2268 0000036e E720          SUBF32    R0H,R1H,R0H           ; [CPU_] |312| 
         0000036f 0008 
    2269 00000370 7700          NOP       ; [CPU_] 
    2270 00000371 E203          MOV32     *-SP[10],R0H          ; [CPU_] |312| 
         00000372 004A 
    2271 00000373       $C$L45:    
    2272                      .dwpsn  file "../ConvertorCntrl/MotorCntrl.c",line 313,column 4,is_stmt
    2273 00000373 E2AF-         MOV32     R0H,@_MaxInvertorFrequency ; [CPU_] |313| 
         00000374 0004 
    2274 00000375 E2AF          MOV32     R1H,*-SP[10]          ; [CPU_] |313| 
         00000376 014A 
    2275 00000377 E6AF          NEGF32    R0H,R0H               ; [CPU_] |313| 
         00000378 0000 
    2276 00000379 E694          CMPF32    R1H,R0H               ; [CPU_] |313| 
         0000037a 0001 
    2277 0000037b AD14          MOVST0    ZF, NF                ; [CPU_] |313| 
    2278 0000037c 6307          B         $C$L46,GEQ            ; [CPU_] |313| 
    2279                      ; branchcc occurs ; [] |313| 
    2280                      .dwpsn  file "../ConvertorCntrl/MotorCntrl.c",line 314,column 5,is_stmt
    2281 0000037d E2AF-         MOV32     R0H,@_MaxInvertorFrequency ; [CPU_] |314| 
         0000037e 0004 
    2282 0000037f E6AF          NEGF32    R0H,R0H               ; [CPU_] |314| 
         00000380 0000 
TMS320C2000 Assembler PC v6.2.7 Thu Jul 02 08:31:30 2015

Tools Copyright (c) 1996-2014 Texas Instruments Incorporated
C:\Users\Tester\AppData\Local\Temp\0422811                           PAGE   47

    2283 00000381 E203          MOV32     *-SP[10],R0H          ; [CPU_] |314| 
         00000382 004A 
    2284 00000383       $C$L46:    
    2285                      .dwpsn  file "../ConvertorCntrl/MotorCntrl.c",line 316,column 2,is_stmt
    2286 00000383 8A48          MOVL      XAR4,*-SP[8]          ; [CPU_] |316| 
    2287 00000384 064A          MOVL      ACC,*-SP[10]          ; [CPU_] |316| 
    2288 00000385 1EC4          MOVL      *+XAR4[0],ACC         ; [CPU_] |316| 
    2289                      .dwpsn  file "../ConvertorCntrl/MotorCntrl.c",line 318,column 1,is_stmt
    2290 00000386       $C$L47:    
    2291 00000386 FE8C          SUBB      SP,#12                ; [CPU_U] 
    2292                      .dwcfi  cfa_offset, -2
    2293              $C$DW$193       .dwtag  DW_TAG_TI_branch
    2294                      .dwattr $C$DW$193, DW_AT_low_pc(0x00)
    2295                      .dwattr $C$DW$193, DW_AT_TI_return
    2296 00000387 0006          LRETR     ; [CPU_] 
    2297                      ; return occurs ; [] 
    2298                      .dwattr $C$DW$182, DW_AT_TI_end_file("../ConvertorCntrl/MotorCntrl.c")
    2299                      .dwattr $C$DW$182, DW_AT_TI_end_line(0x13e)
    2300                      .dwattr $C$DW$182, DW_AT_TI_end_column(0x01)
    2301                      .dwendentry
    2302                      .dwendtag $C$DW$182
    2303              
    2304              ;**************************************************************
    2305              ;* UNDEFINED EXTERNAL REFERENCES                              *
    2306              ;**************************************************************
    2307                      .global _setLedMode
    2308                      .global _setStepAmpl
    2309                      .global _setStepConer
    2310                      .global _cntrlIrCompensation
    2311                      .global _stabilisationByUdc
    2312                      .global _rstDecelReg
    2313                      .global _getDecelTime
    2314                      .global _getRegister
    2315                      .global _getAccelTime
    2316                      .global _testStatusConvertor
    2317                      .global _testOvervoltag
    2318                      .global _DcDecelatration
    2319                      .global _testOvercurrent
    2320                      .global _getMainTask
    2321                      .global _getAddedFrequency
    2322                      .global _getAddedVoltag
    2323                      .global _getVoltagFromFrequency
    2324                      .global _getOverloadFrequency
    2325                      .global _getStepDecelCheng
    2326                      .global _getOvervoltagFrequency
    2327                      .global _scaleVoltagPwm
    2328                      .global _getStepAccelCheng
    2329                      .global FS$$DIV
    2330              
    2331              ;***************************************************************
    2332              ;* TYPE INFORMATION                                            *
    2333              ;***************************************************************
    2334              $C$DW$T$4       .dwtag  DW_TAG_base_type
    2335                      .dwattr $C$DW$T$4, DW_AT_encoding(DW_ATE_boolean)
    2336                      .dwattr $C$DW$T$4, DW_AT_name("bool")
TMS320C2000 Assembler PC v6.2.7 Thu Jul 02 08:31:30 2015

Tools Copyright (c) 1996-2014 Texas Instruments Incorporated
C:\Users\Tester\AppData\Local\Temp\0422811                           PAGE   48

    2337                      .dwattr $C$DW$T$4, DW_AT_byte_size(0x01)
    2338              $C$DW$T$5       .dwtag  DW_TAG_base_type
    2339                      .dwattr $C$DW$T$5, DW_AT_encoding(DW_ATE_signed_char)
    2340                      .dwattr $C$DW$T$5, DW_AT_name("signed char")
    2341                      .dwattr $C$DW$T$5, DW_AT_byte_size(0x01)
    2342              $C$DW$T$6       .dwtag  DW_TAG_base_type
    2343                      .dwattr $C$DW$T$6, DW_AT_encoding(DW_ATE_unsigned_char)
    2344                      .dwattr $C$DW$T$6, DW_AT_name("unsigned char")
    2345                      .dwattr $C$DW$T$6, DW_AT_byte_size(0x01)
    2346              $C$DW$T$7       .dwtag  DW_TAG_base_type
    2347                      .dwattr $C$DW$T$7, DW_AT_encoding(DW_ATE_signed_char)
    2348                      .dwattr $C$DW$T$7, DW_AT_name("wchar_t")
    2349                      .dwattr $C$DW$T$7, DW_AT_byte_size(0x01)
    2350              $C$DW$T$8       .dwtag  DW_TAG_base_type
    2351                      .dwattr $C$DW$T$8, DW_AT_encoding(DW_ATE_signed)
    2352                      .dwattr $C$DW$T$8, DW_AT_name("short")
    2353                      .dwattr $C$DW$T$8, DW_AT_byte_size(0x01)
    2354              $C$DW$T$9       .dwtag  DW_TAG_base_type
    2355                      .dwattr $C$DW$T$9, DW_AT_encoding(DW_ATE_unsigned)
    2356                      .dwattr $C$DW$T$9, DW_AT_name("unsigned short")
    2357                      .dwattr $C$DW$T$9, DW_AT_byte_size(0x01)
    2358              $C$DW$T$10      .dwtag  DW_TAG_base_type
    2359                      .dwattr $C$DW$T$10, DW_AT_encoding(DW_ATE_signed)
    2360                      .dwattr $C$DW$T$10, DW_AT_name("int")
    2361                      .dwattr $C$DW$T$10, DW_AT_byte_size(0x01)
    2362              $C$DW$T$39      .dwtag  DW_TAG_typedef, DW_AT_name("INT16")
    2363                      .dwattr $C$DW$T$39, DW_AT_type(*$C$DW$T$10)
    2364                      .dwattr $C$DW$T$39, DW_AT_language(DW_LANG_C)
    2365              $C$DW$T$11      .dwtag  DW_TAG_base_type
    2366                      .dwattr $C$DW$T$11, DW_AT_encoding(DW_ATE_unsigned)
    2367                      .dwattr $C$DW$T$11, DW_AT_name("unsigned int")
    2368                      .dwattr $C$DW$T$11, DW_AT_byte_size(0x01)
    2369              $C$DW$T$47      .dwtag  DW_TAG_typedef, DW_AT_name("UINT16")
    2370                      .dwattr $C$DW$T$47, DW_AT_type(*$C$DW$T$11)
    2371                      .dwattr $C$DW$T$47, DW_AT_language(DW_LANG_C)
    2372              $C$DW$T$49      .dwtag  DW_TAG_typedef, DW_AT_name("UINT8")
    2373                      .dwattr $C$DW$T$49, DW_AT_type(*$C$DW$T$11)
    2374                      .dwattr $C$DW$T$49, DW_AT_language(DW_LANG_C)
    2375              $C$DW$T$12      .dwtag  DW_TAG_base_type
    2376                      .dwattr $C$DW$T$12, DW_AT_encoding(DW_ATE_signed)
    2377                      .dwattr $C$DW$T$12, DW_AT_name("long")
    2378                      .dwattr $C$DW$T$12, DW_AT_byte_size(0x02)
    2379              $C$DW$T$13      .dwtag  DW_TAG_base_type
    2380                      .dwattr $C$DW$T$13, DW_AT_encoding(DW_ATE_unsigned)
    2381                      .dwattr $C$DW$T$13, DW_AT_name("unsigned long")
    2382                      .dwattr $C$DW$T$13, DW_AT_byte_size(0x02)
    2383              $C$DW$T$14      .dwtag  DW_TAG_base_type
    2384                      .dwattr $C$DW$T$14, DW_AT_encoding(DW_ATE_signed)
    2385                      .dwattr $C$DW$T$14, DW_AT_name("long long")
    2386                      .dwattr $C$DW$T$14, DW_AT_byte_size(0x04)
    2387              $C$DW$T$15      .dwtag  DW_TAG_base_type
    2388                      .dwattr $C$DW$T$15, DW_AT_encoding(DW_ATE_unsigned)
    2389                      .dwattr $C$DW$T$15, DW_AT_name("unsigned long long")
    2390                      .dwattr $C$DW$T$15, DW_AT_byte_size(0x04)
    2391              $C$DW$T$16      .dwtag  DW_TAG_base_type
TMS320C2000 Assembler PC v6.2.7 Thu Jul 02 08:31:30 2015

Tools Copyright (c) 1996-2014 Texas Instruments Incorporated
C:\Users\Tester\AppData\Local\Temp\0422811                           PAGE   49

    2392                      .dwattr $C$DW$T$16, DW_AT_encoding(DW_ATE_float)
    2393                      .dwattr $C$DW$T$16, DW_AT_name("float")
    2394                      .dwattr $C$DW$T$16, DW_AT_byte_size(0x02)
    2395              $C$DW$T$21      .dwtag  DW_TAG_pointer_type
    2396                      .dwattr $C$DW$T$21, DW_AT_type(*$C$DW$T$16)
    2397                      .dwattr $C$DW$T$21, DW_AT_address_class(0x16)
    2398              $C$DW$T$17      .dwtag  DW_TAG_base_type
    2399                      .dwattr $C$DW$T$17, DW_AT_encoding(DW_ATE_float)
    2400                      .dwattr $C$DW$T$17, DW_AT_name("double")
    2401                      .dwattr $C$DW$T$17, DW_AT_byte_size(0x02)
    2402              $C$DW$T$18      .dwtag  DW_TAG_base_type
    2403                      .dwattr $C$DW$T$18, DW_AT_encoding(DW_ATE_float)
    2404                      .dwattr $C$DW$T$18, DW_AT_name("long double")
    2405                      .dwattr $C$DW$T$18, DW_AT_byte_size(0x04)
    2406                      .dwattr $C$DW$CU, DW_AT_language(DW_LANG_C)
    2407              
    2408              ;***************************************************************
    2409              ;* DWARF CIE ENTRIES                                           *
    2410              ;***************************************************************
    2411              
    2412              $C$DW$CIE       .dwcie 78
    2413                      .dwcfi  cfa_register, 20
    2414                      .dwcfi  cfa_offset, 0
    2415                      .dwcfi  undefined, 0
    2416                      .dwcfi  undefined, 1
    2417                      .dwcfi  undefined, 2
    2418                      .dwcfi  undefined, 3
    2419                      .dwcfi  undefined, 20
    2420                      .dwcfi  undefined, 21
    2421                      .dwcfi  undefined, 22
    2422                      .dwcfi  undefined, 23
    2423                      .dwcfi  undefined, 24
    2424                      .dwcfi  undefined, 25
    2425                      .dwcfi  undefined, 26
    2426                      .dwcfi  same_value, 28
    2427                      .dwcfi  undefined, 29
    2428                      .dwcfi  undefined, 30
    2429                      .dwcfi  undefined, 31
    2430                      .dwcfi  undefined, 32
    2431                      .dwcfi  undefined, 33
    2432                      .dwcfi  undefined, 34
    2433                      .dwcfi  undefined, 35
    2434                      .dwcfi  undefined, 36
    2435                      .dwcfi  undefined, 37
    2436                      .dwcfi  undefined, 38
    2437                      .dwcfi  undefined, 75
    2438                      .dwcfi  undefined, 76
    2439                      .dwcfi  undefined, 77
    2440                      .dwcfi  undefined, 4
    2441                      .dwcfi  same_value, 6
    2442                      .dwcfi  same_value, 8
    2443                      .dwcfi  same_value, 10
    2444                      .dwcfi  undefined, 12
    2445                      .dwcfi  undefined, 14
    2446                      .dwcfi  undefined, 16
TMS320C2000 Assembler PC v6.2.7 Thu Jul 02 08:31:30 2015

Tools Copyright (c) 1996-2014 Texas Instruments Incorporated
C:\Users\Tester\AppData\Local\Temp\0422811                           PAGE   50

    2447                      .dwcfi  undefined, 17
    2448                      .dwcfi  undefined, 18
    2449                      .dwcfi  undefined, 19
    2450                      .dwcfi  undefined, 5
    2451                      .dwcfi  same_value, 7
    2452                      .dwcfi  same_value, 9
    2453                      .dwcfi  same_value, 11
    2454                      .dwcfi  undefined, 13
    2455                      .dwcfi  undefined, 15
    2456                      .dwcfi  undefined, 43
    2457                      .dwcfi  undefined, 44
    2458                      .dwcfi  undefined, 47
    2459                      .dwcfi  undefined, 48
    2460                      .dwcfi  undefined, 51
    2461                      .dwcfi  undefined, 52
    2462                      .dwcfi  undefined, 55
    2463                      .dwcfi  undefined, 56
    2464                      .dwcfi  same_value, 59
    2465                      .dwcfi  same_value, 60
    2466                      .dwcfi  same_value, 63
    2467                      .dwcfi  same_value, 64
    2468                      .dwcfi  same_value, 67
    2469                      .dwcfi  same_value, 68
    2470                      .dwcfi  same_value, 71
    2471                      .dwcfi  same_value, 72
    2472                      .dwcfi  undefined, 73
    2473                      .dwcfi  undefined, 74
    2474                      .dwcfi  undefined, 39
    2475                      .dwcfi  undefined, 40
    2476                      .dwcfi  undefined, 27
    2477                      .dwcfi  undefined, 78
    2478                      .dwendentry
    2479              
    2480              ;***************************************************************
    2481              ;* DWARF REGISTER MAP                                          *
    2482              ;***************************************************************
    2483              
    2484              $C$DW$194       .dwtag  DW_TAG_TI_assign_register, DW_AT_name("AL")
    2485                      .dwattr $C$DW$194, DW_AT_location[DW_OP_reg0]
    2486              $C$DW$195       .dwtag  DW_TAG_TI_assign_register, DW_AT_name("AH")
    2487                      .dwattr $C$DW$195, DW_AT_location[DW_OP_reg1]
    2488              $C$DW$196       .dwtag  DW_TAG_TI_assign_register, DW_AT_name("PL")
    2489                      .dwattr $C$DW$196, DW_AT_location[DW_OP_reg2]
    2490              $C$DW$197       .dwtag  DW_TAG_TI_assign_register, DW_AT_name("PH")
    2491                      .dwattr $C$DW$197, DW_AT_location[DW_OP_reg3]
    2492              $C$DW$198       .dwtag  DW_TAG_TI_assign_register, DW_AT_name("SP")
    2493                      .dwattr $C$DW$198, DW_AT_location[DW_OP_reg20]
    2494              $C$DW$199       .dwtag  DW_TAG_TI_assign_register, DW_AT_name("XT")
    2495                      .dwattr $C$DW$199, DW_AT_location[DW_OP_reg21]
    2496              $C$DW$200       .dwtag  DW_TAG_TI_assign_register, DW_AT_name("T")
    2497                      .dwattr $C$DW$200, DW_AT_location[DW_OP_reg22]
    2498              $C$DW$201       .dwtag  DW_TAG_TI_assign_register, DW_AT_name("ST0")
    2499                      .dwattr $C$DW$201, DW_AT_location[DW_OP_reg23]
    2500              $C$DW$202       .dwtag  DW_TAG_TI_assign_register, DW_AT_name("ST1")
    2501                      .dwattr $C$DW$202, DW_AT_location[DW_OP_reg24]
TMS320C2000 Assembler PC v6.2.7 Thu Jul 02 08:31:30 2015

Tools Copyright (c) 1996-2014 Texas Instruments Incorporated
C:\Users\Tester\AppData\Local\Temp\0422811                           PAGE   51

    2502              $C$DW$203       .dwtag  DW_TAG_TI_assign_register, DW_AT_name("PC")
    2503                      .dwattr $C$DW$203, DW_AT_location[DW_OP_reg25]
    2504              $C$DW$204       .dwtag  DW_TAG_TI_assign_register, DW_AT_name("RPC")
    2505                      .dwattr $C$DW$204, DW_AT_location[DW_OP_reg26]
    2506              $C$DW$205       .dwtag  DW_TAG_TI_assign_register, DW_AT_name("FP")
    2507                      .dwattr $C$DW$205, DW_AT_location[DW_OP_reg28]
    2508              $C$DW$206       .dwtag  DW_TAG_TI_assign_register, DW_AT_name("DP")
    2509                      .dwattr $C$DW$206, DW_AT_location[DW_OP_reg29]
    2510              $C$DW$207       .dwtag  DW_TAG_TI_assign_register, DW_AT_name("SXM")
    2511                      .dwattr $C$DW$207, DW_AT_location[DW_OP_reg30]
    2512              $C$DW$208       .dwtag  DW_TAG_TI_assign_register, DW_AT_name("PM")
    2513                      .dwattr $C$DW$208, DW_AT_location[DW_OP_reg31]
    2514              $C$DW$209       .dwtag  DW_TAG_TI_assign_register, DW_AT_name("OVM")
    2515                      .dwattr $C$DW$209, DW_AT_location[DW_OP_regx 0x20]
    2516              $C$DW$210       .dwtag  DW_TAG_TI_assign_register, DW_AT_name("PAGE0")
    2517                      .dwattr $C$DW$210, DW_AT_location[DW_OP_regx 0x21]
    2518              $C$DW$211       .dwtag  DW_TAG_TI_assign_register, DW_AT_name("AMODE")
    2519                      .dwattr $C$DW$211, DW_AT_location[DW_OP_regx 0x22]
    2520              $C$DW$212       .dwtag  DW_TAG_TI_assign_register, DW_AT_name("INTM")
    2521                      .dwattr $C$DW$212, DW_AT_location[DW_OP_regx 0x23]
    2522              $C$DW$213       .dwtag  DW_TAG_TI_assign_register, DW_AT_name("IFR")
    2523                      .dwattr $C$DW$213, DW_AT_location[DW_OP_regx 0x24]
    2524              $C$DW$214       .dwtag  DW_TAG_TI_assign_register, DW_AT_name("IER")
    2525                      .dwattr $C$DW$214, DW_AT_location[DW_OP_regx 0x25]
    2526              $C$DW$215       .dwtag  DW_TAG_TI_assign_register, DW_AT_name("V")
    2527                      .dwattr $C$DW$215, DW_AT_location[DW_OP_regx 0x26]
    2528              $C$DW$216       .dwtag  DW_TAG_TI_assign_register, DW_AT_name("PSEUDOH")
    2529                      .dwattr $C$DW$216, DW_AT_location[DW_OP_regx 0x4c]
    2530              $C$DW$217       .dwtag  DW_TAG_TI_assign_register, DW_AT_name("VOL")
    2531                      .dwattr $C$DW$217, DW_AT_location[DW_OP_regx 0x4d]
    2532              $C$DW$218       .dwtag  DW_TAG_TI_assign_register, DW_AT_name("AR0")
    2533                      .dwattr $C$DW$218, DW_AT_location[DW_OP_reg4]
    2534              $C$DW$219       .dwtag  DW_TAG_TI_assign_register, DW_AT_name("AR1")
    2535                      .dwattr $C$DW$219, DW_AT_location[DW_OP_reg6]
    2536              $C$DW$220       .dwtag  DW_TAG_TI_assign_register, DW_AT_name("AR2")
    2537                      .dwattr $C$DW$220, DW_AT_location[DW_OP_reg8]
    2538              $C$DW$221       .dwtag  DW_TAG_TI_assign_register, DW_AT_name("AR3")
    2539                      .dwattr $C$DW$221, DW_AT_location[DW_OP_reg10]
    2540              $C$DW$222       .dwtag  DW_TAG_TI_assign_register, DW_AT_name("AR4")
    2541                      .dwattr $C$DW$222, DW_AT_location[DW_OP_reg12]
    2542              $C$DW$223       .dwtag  DW_TAG_TI_assign_register, DW_AT_name("AR5")
    2543                      .dwattr $C$DW$223, DW_AT_location[DW_OP_reg14]
    2544              $C$DW$224       .dwtag  DW_TAG_TI_assign_register, DW_AT_name("AR6")
    2545                      .dwattr $C$DW$224, DW_AT_location[DW_OP_reg16]
    2546              $C$DW$225       .dwtag  DW_TAG_TI_assign_register, DW_AT_name("XAR6")
    2547                      .dwattr $C$DW$225, DW_AT_location[DW_OP_reg17]
    2548              $C$DW$226       .dwtag  DW_TAG_TI_assign_register, DW_AT_name("AR7")
    2549                      .dwattr $C$DW$226, DW_AT_location[DW_OP_reg18]
    2550              $C$DW$227       .dwtag  DW_TAG_TI_assign_register, DW_AT_name("XAR7")
    2551                      .dwattr $C$DW$227, DW_AT_location[DW_OP_reg19]
    2552              $C$DW$228       .dwtag  DW_TAG_TI_assign_register, DW_AT_name("XAR0")
    2553                      .dwattr $C$DW$228, DW_AT_location[DW_OP_reg5]
    2554              $C$DW$229       .dwtag  DW_TAG_TI_assign_register, DW_AT_name("XAR1")
    2555                      .dwattr $C$DW$229, DW_AT_location[DW_OP_reg7]
    2556              $C$DW$230       .dwtag  DW_TAG_TI_assign_register, DW_AT_name("XAR2")
TMS320C2000 Assembler PC v6.2.7 Thu Jul 02 08:31:30 2015

Tools Copyright (c) 1996-2014 Texas Instruments Incorporated
C:\Users\Tester\AppData\Local\Temp\0422811                           PAGE   52

    2557                      .dwattr $C$DW$230, DW_AT_location[DW_OP_reg9]
    2558              $C$DW$231       .dwtag  DW_TAG_TI_assign_register, DW_AT_name("XAR3")
    2559                      .dwattr $C$DW$231, DW_AT_location[DW_OP_reg11]
    2560              $C$DW$232       .dwtag  DW_TAG_TI_assign_register, DW_AT_name("XAR4")
    2561                      .dwattr $C$DW$232, DW_AT_location[DW_OP_reg13]
    2562              $C$DW$233       .dwtag  DW_TAG_TI_assign_register, DW_AT_name("XAR5")
    2563                      .dwattr $C$DW$233, DW_AT_location[DW_OP_reg15]
    2564              $C$DW$234       .dwtag  DW_TAG_TI_assign_register, DW_AT_name("R0HL")
    2565                      .dwattr $C$DW$234, DW_AT_location[DW_OP_regx 0x2b]
    2566              $C$DW$235       .dwtag  DW_TAG_TI_assign_register, DW_AT_name("R0H")
    2567                      .dwattr $C$DW$235, DW_AT_location[DW_OP_regx 0x2c]
    2568              $C$DW$236       .dwtag  DW_TAG_TI_assign_register, DW_AT_name("R1HL")
    2569                      .dwattr $C$DW$236, DW_AT_location[DW_OP_regx 0x2f]
    2570              $C$DW$237       .dwtag  DW_TAG_TI_assign_register, DW_AT_name("R1H")
    2571                      .dwattr $C$DW$237, DW_AT_location[DW_OP_regx 0x30]
    2572              $C$DW$238       .dwtag  DW_TAG_TI_assign_register, DW_AT_name("R2HL")
    2573                      .dwattr $C$DW$238, DW_AT_location[DW_OP_regx 0x33]
    2574              $C$DW$239       .dwtag  DW_TAG_TI_assign_register, DW_AT_name("R2H")
    2575                      .dwattr $C$DW$239, DW_AT_location[DW_OP_regx 0x34]
    2576              $C$DW$240       .dwtag  DW_TAG_TI_assign_register, DW_AT_name("R3HL")
    2577                      .dwattr $C$DW$240, DW_AT_location[DW_OP_regx 0x37]
    2578              $C$DW$241       .dwtag  DW_TAG_TI_assign_register, DW_AT_name("R3H")
    2579                      .dwattr $C$DW$241, DW_AT_location[DW_OP_regx 0x38]
    2580              $C$DW$242       .dwtag  DW_TAG_TI_assign_register, DW_AT_name("R4HL")
    2581                      .dwattr $C$DW$242, DW_AT_location[DW_OP_regx 0x3b]
    2582              $C$DW$243       .dwtag  DW_TAG_TI_assign_register, DW_AT_name("R4H")
    2583                      .dwattr $C$DW$243, DW_AT_location[DW_OP_regx 0x3c]
    2584              $C$DW$244       .dwtag  DW_TAG_TI_assign_register, DW_AT_name("R5HL")
    2585                      .dwattr $C$DW$244, DW_AT_location[DW_OP_regx 0x3f]
    2586              $C$DW$245       .dwtag  DW_TAG_TI_assign_register, DW_AT_name("R5H")
    2587                      .dwattr $C$DW$245, DW_AT_location[DW_OP_regx 0x40]
    2588              $C$DW$246       .dwtag  DW_TAG_TI_assign_register, DW_AT_name("R6HL")
    2589                      .dwattr $C$DW$246, DW_AT_location[DW_OP_regx 0x43]
    2590              $C$DW$247       .dwtag  DW_TAG_TI_assign_register, DW_AT_name("R6H")
    2591                      .dwattr $C$DW$247, DW_AT_location[DW_OP_regx 0x44]
    2592              $C$DW$248       .dwtag  DW_TAG_TI_assign_register, DW_AT_name("R7HL")
    2593                      .dwattr $C$DW$248, DW_AT_location[DW_OP_regx 0x47]
    2594              $C$DW$249       .dwtag  DW_TAG_TI_assign_register, DW_AT_name("R7H")
    2595                      .dwattr $C$DW$249, DW_AT_location[DW_OP_regx 0x48]
    2596              $C$DW$250       .dwtag  DW_TAG_TI_assign_register, DW_AT_name("RBL")
    2597                      .dwattr $C$DW$250, DW_AT_location[DW_OP_regx 0x49]
    2598              $C$DW$251       .dwtag  DW_TAG_TI_assign_register, DW_AT_name("RB")
    2599                      .dwattr $C$DW$251, DW_AT_location[DW_OP_regx 0x4a]
    2600              $C$DW$252       .dwtag  DW_TAG_TI_assign_register, DW_AT_name("STFL")
    2601                      .dwattr $C$DW$252, DW_AT_location[DW_OP_regx 0x27]
    2602              $C$DW$253       .dwtag  DW_TAG_TI_assign_register, DW_AT_name("STF")
    2603                      .dwattr $C$DW$253, DW_AT_location[DW_OP_regx 0x28]
    2604              $C$DW$254       .dwtag  DW_TAG_TI_assign_register, DW_AT_name("FPUHAZ")
    2605                      .dwattr $C$DW$254, DW_AT_location[DW_OP_reg27]
    2606              $C$DW$255       .dwtag  DW_TAG_TI_assign_register, DW_AT_name("CIE_RETA")
    2607                      .dwattr $C$DW$255, DW_AT_location[DW_OP_regx 0x4e]
    2608                      .dwendtag $C$DW$CU
    2609              

No Assembly Errors, No Assembly Warnings
