TMS320C2000 Assembler PC v6.2.7 Thu Jul 02 08:31:31 2015

Tools Copyright (c) 1996-2014 Texas Instruments Incorporated
C:\Users\Tester\AppData\Local\Temp\0496010                           PAGE    1

       1              ;***************************************************************
       2              ;* TMS320C2000 C/C++ Codegen                         PC v6.2.7 *
       3              ;* Date/Time created: Thu Jul 02 08:31:31 2015                 *
       4              ;***************************************************************
       5                      .compiler_opts --diag_wrap=off --float_support=fpu32 --hll_source=on --mem_model:code=flat --mem_mode
       6        0002  FP      .set    XAR2
       7              
       8              $C$DW$CU        .dwtag  DW_TAG_compile_unit
       9                      .dwattr $C$DW$CU, DW_AT_name("../ConvertorCntrl/ReleCntrl.c")
      10                      .dwattr $C$DW$CU, DW_AT_producer("TMS320C2000 C/C++ Codegen PC v6.2.7 Copyright (c) 1996-2014 Texas I
      11                      .dwattr $C$DW$CU, DW_AT_TI_version(0x01)
      12                      .dwattr $C$DW$CU, DW_AT_comp_dir("D:\ActiveProject\EKT5\PKMT_NONBIOS\InvertorCntrl\ISPprg")
      13              $C$DW$1 .dwtag  DW_TAG_variable, DW_AT_name("GpioDataRegs")
      14                      .dwattr $C$DW$1, DW_AT_TI_symbol_name("_GpioDataRegs")
      15                      .dwattr $C$DW$1, DW_AT_type(*$C$DW$T$59)
      16                      .dwattr $C$DW$1, DW_AT_declaration
      17                      .dwattr $C$DW$1, DW_AT_external
      18              $C$DW$2 .dwtag  DW_TAG_variable, DW_AT_name("GpioCtrlRegs")
      19                      .dwattr $C$DW$2, DW_AT_TI_symbol_name("_GpioCtrlRegs")
      20                      .dwattr $C$DW$2, DW_AT_type(*$C$DW$T$58)
      21                      .dwattr $C$DW$2, DW_AT_declaration
      22                      .dwattr $C$DW$2, DW_AT_external
      23              ;       C:\ti\ccsv6\tools\compiler\c2000_6.2.7\bin\ac2000.exe -@C:\\Users\\Tester\\AppData\\Local\\Temp\\0496
      24 00000000               .sect   ".text"
      25                      .clink
      26                      .global _initDiscrOut
      27              
      28              $C$DW$3 .dwtag  DW_TAG_subprogram, DW_AT_name("initDiscrOut")
      29                      .dwattr $C$DW$3, DW_AT_low_pc(_initDiscrOut)
      30                      .dwattr $C$DW$3, DW_AT_high_pc(0x00)
      31                      .dwattr $C$DW$3, DW_AT_TI_symbol_name("_initDiscrOut")
      32                      .dwattr $C$DW$3, DW_AT_external
      33                      .dwattr $C$DW$3, DW_AT_TI_begin_file("../ConvertorCntrl/ReleCntrl.c")
      34                      .dwattr $C$DW$3, DW_AT_TI_begin_line(0x08)
      35                      .dwattr $C$DW$3, DW_AT_TI_begin_column(0x06)
      36                      .dwattr $C$DW$3, DW_AT_TI_max_frame_size(-2)
      37                      .dwpsn  file "../ConvertorCntrl/ReleCntrl.c",line 8,column 24,is_stmt,address _initDiscrOut
      38              
      39                      .dwfde $C$DW$CIE, _initDiscrOut
      40              
      41              ;***************************************************************
      42              ;* FNAME: _initDiscrOut                 FR SIZE:   0           *
      43              ;*                                                             *
      44              ;* FUNCTION ENVIRONMENT                                        *
      45              ;*                                                             *
      46              ;* FUNCTION PROPERTIES                                         *
      47              ;*                            0 Parameter,  0 Auto,  0 SOE     *
      48              ;***************************************************************
      49              
      50 00000000       _initDiscrOut:
      51                      .dwcfi  cfa_offset, -2
      52                      .dwcfi  save_reg_to_mem, 26, 0
      53                      .dwcfi  save_reg_to_reg, 78, 26
      54                      .dwpsn  file "../ConvertorCntrl/ReleCntrl.c",line 10,column 5,is_stmt
      55 00000000 7622   EALLOW
TMS320C2000 Assembler PC v6.2.7 Thu Jul 02 08:31:31 2015

Tools Copyright (c) 1996-2014 Texas Instruments Incorporated
C:\Users\Tester\AppData\Local\Temp\0496010                           PAGE    2

      56                      .dwpsn  file "../ConvertorCntrl/ReleCntrl.c",line 13,column 5,is_stmt
      57 00000001 761F!         MOVW      DP,#_GpioCtrlRegs+28  ; [CPU_U] 
         00000002 0000 
      58 00000003 181C!         AND       @_GpioCtrlRegs+28,#0xbfff ; [CPU_] |13| 
         00000004 BFFF 
      59                      .dwpsn  file "../ConvertorCntrl/ReleCntrl.c",line 14,column 5,is_stmt
      60 00000005 761F!         MOVW      DP,#_GpioDataRegs+12  ; [CPU_U] 
         00000006 0000 
      61 00000007 1A0C!         OR        @_GpioDataRegs+12,#0x4000 ; [CPU_] |14| 
         00000008 4000 
      62                      .dwpsn  file "../ConvertorCntrl/ReleCntrl.c",line 15,column 5,is_stmt
      63 00000009 761F!         MOVW      DP,#_GpioCtrlRegs+23  ; [CPU_U] 
         0000000a 0000 
      64 0000000b 1817!         AND       @_GpioCtrlRegs+23,#0xcfff ; [CPU_] |15| 
         0000000c CFFF 
      65                      .dwpsn  file "../ConvertorCntrl/ReleCntrl.c",line 16,column 5,is_stmt
      66 0000000d 1A1A!         OR        @_GpioCtrlRegs+26,#0x4000 ; [CPU_] |16| 
         0000000e 4000 
      67                      .dwpsn  file "../ConvertorCntrl/ReleCntrl.c",line 19,column 5,is_stmt
      68 0000000f 181C!         AND       @_GpioCtrlRegs+28,#0x7fff ; [CPU_] |19| 
         00000010 7FFF 
      69                      .dwpsn  file "../ConvertorCntrl/ReleCntrl.c",line 20,column 5,is_stmt
      70 00000011 761F!         MOVW      DP,#_GpioDataRegs+12  ; [CPU_U] 
         00000012 0000 
      71 00000013 1A0C!         OR        @_GpioDataRegs+12,#0x8000 ; [CPU_] |20| 
         00000014 8000 
      72                      .dwpsn  file "../ConvertorCntrl/ReleCntrl.c",line 21,column 5,is_stmt
      73 00000015 761F!         MOVW      DP,#_GpioCtrlRegs+23  ; [CPU_U] 
         00000016 0000 
      74 00000017 1817!         AND       @_GpioCtrlRegs+23,#0x3fff ; [CPU_] |21| 
         00000018 3FFF 
      75                      .dwpsn  file "../ConvertorCntrl/ReleCntrl.c",line 22,column 5,is_stmt
      76 00000019 1A1A!         OR        @_GpioCtrlRegs+26,#0x8000 ; [CPU_] |22| 
         0000001a 8000 
      77                      .dwpsn  file "../ConvertorCntrl/ReleCntrl.c",line 25,column 5,is_stmt
      78 0000001b 180D!         AND       @_GpioCtrlRegs+13,#0xf7ff ; [CPU_] |25| 
         0000001c F7FF 
      79                      .dwpsn  file "../ConvertorCntrl/ReleCntrl.c",line 26,column 5,is_stmt
      80 0000001d 761F!         MOVW      DP,#_GpioDataRegs+5   ; [CPU_U] 
         0000001e 0000 
      81 0000001f 1A05!         OR        @_GpioDataRegs+5,#0x0800 ; [CPU_] |26| 
         00000020 0800 
      82                      .dwpsn  file "../ConvertorCntrl/ReleCntrl.c",line 27,column 5,is_stmt
      83 00000021 761F!         MOVW      DP,#_GpioCtrlRegs+9   ; [CPU_U] 
         00000022 0000 
      84 00000023 1809!         AND       @_GpioCtrlRegs+9,#0xff3f ; [CPU_] |27| 
         00000024 FF3F 
      85                      .dwpsn  file "../ConvertorCntrl/ReleCntrl.c",line 28,column 5,is_stmt
      86 00000025 1A0B!         OR        @_GpioCtrlRegs+11,#0x0800 ; [CPU_] |28| 
         00000026 0800 
      87                      .dwpsn  file "../ConvertorCntrl/ReleCntrl.c",line 31,column 5,is_stmt
      88 00000027 182C!         AND       @_GpioCtrlRegs+44,#0xffbf ; [CPU_] |31| 
         00000028 FFBF 
      89                      .dwpsn  file "../ConvertorCntrl/ReleCntrl.c",line 32,column 5,is_stmt
      90 00000029 761F!         MOVW      DP,#_GpioDataRegs+20  ; [CPU_U] 
TMS320C2000 Assembler PC v6.2.7 Thu Jul 02 08:31:31 2015

Tools Copyright (c) 1996-2014 Texas Instruments Incorporated
C:\Users\Tester\AppData\Local\Temp\0496010                           PAGE    3

         0000002a 0000 
      91 0000002b 1A14!         OR        @_GpioDataRegs+20,#0x0040 ; [CPU_] |32| 
         0000002c 0040 
      92                      .dwpsn  file "../ConvertorCntrl/ReleCntrl.c",line 33,column 5,is_stmt
      93 0000002d 761F!         MOVW      DP,#_GpioCtrlRegs+38  ; [CPU_U] 
         0000002e 0000 
      94 0000002f 1826!         AND       @_GpioCtrlRegs+38,#0xcfff ; [CPU_] |33| 
         00000030 CFFF 
      95                      .dwpsn  file "../ConvertorCntrl/ReleCntrl.c",line 34,column 5,is_stmt
      96 00000031 1A2A!         OR        @_GpioCtrlRegs+42,#0x0040 ; [CPU_] |34| 
         00000032 0040 
      97                      .dwpsn  file "../ConvertorCntrl/ReleCntrl.c",line 37,column 5,is_stmt
      98 00000033 182C!         AND       @_GpioCtrlRegs+44,#0xff7f ; [CPU_] |37| 
         00000034 FF7F 
      99                      .dwpsn  file "../ConvertorCntrl/ReleCntrl.c",line 38,column 5,is_stmt
     100 00000035 761F!         MOVW      DP,#_GpioDataRegs+20  ; [CPU_U] 
         00000036 0000 
     101 00000037 1A14!         OR        @_GpioDataRegs+20,#0x0080 ; [CPU_] |38| 
         00000038 0080 
     102                      .dwpsn  file "../ConvertorCntrl/ReleCntrl.c",line 39,column 5,is_stmt
     103 00000039 761F!         MOVW      DP,#_GpioCtrlRegs+38  ; [CPU_U] 
         0000003a 0000 
     104 0000003b 1826!         AND       @_GpioCtrlRegs+38,#0x3fff ; [CPU_] |39| 
         0000003c 3FFF 
     105                      .dwpsn  file "../ConvertorCntrl/ReleCntrl.c",line 40,column 5,is_stmt
     106 0000003d 1A2A!         OR        @_GpioCtrlRegs+42,#0x0080 ; [CPU_] |40| 
         0000003e 0080 
     107                      .dwpsn  file "../ConvertorCntrl/ReleCntrl.c",line 43,column 5,is_stmt
     108 0000003f 181C!         AND       @_GpioCtrlRegs+28,#0xdfff ; [CPU_] |43| 
         00000040 DFFF 
     109                      .dwpsn  file "../ConvertorCntrl/ReleCntrl.c",line 44,column 2,is_stmt
     110 00000041 761F!         MOVW      DP,#_GpioDataRegs+12  ; [CPU_U] 
         00000042 0000 
     111 00000043 1A0C!         OR        @_GpioDataRegs+12,#0x2000 ; [CPU_] |44| 
         00000044 2000 
     112                      .dwpsn  file "../ConvertorCntrl/ReleCntrl.c",line 45,column 2,is_stmt
     113 00000045 761F!         MOVW      DP,#_GpioCtrlRegs+23  ; [CPU_U] 
         00000046 0000 
     114 00000047 1817!         AND       @_GpioCtrlRegs+23,#0xf3ff ; [CPU_] |45| 
         00000048 F3FF 
     115                      .dwpsn  file "../ConvertorCntrl/ReleCntrl.c",line 46,column 2,is_stmt
     116 00000049 1A1A!         OR        @_GpioCtrlRegs+26,#0x2000 ; [CPU_] |46| 
         0000004a 2000 
     117                      .dwpsn  file "../ConvertorCntrl/ReleCntrl.c",line 49,column 5,is_stmt
     118 0000004b 761A   EDIS
     119                      .dwpsn  file "../ConvertorCntrl/ReleCntrl.c",line 51,column 1,is_stmt
     120 0000004c FF69          SPM       #0                    ; [CPU_] 
     121              $C$DW$4 .dwtag  DW_TAG_TI_branch
     122                      .dwattr $C$DW$4, DW_AT_low_pc(0x00)
     123                      .dwattr $C$DW$4, DW_AT_TI_return
     124 0000004d 0006          LRETR     ; [CPU_] 
     125                      ; return occurs ; [] 
     126                      .dwattr $C$DW$3, DW_AT_TI_end_file("../ConvertorCntrl/ReleCntrl.c")
     127                      .dwattr $C$DW$3, DW_AT_TI_end_line(0x33)
     128                      .dwattr $C$DW$3, DW_AT_TI_end_column(0x01)
TMS320C2000 Assembler PC v6.2.7 Thu Jul 02 08:31:31 2015

Tools Copyright (c) 1996-2014 Texas Instruments Incorporated
C:\Users\Tester\AppData\Local\Temp\0496010                           PAGE    4

     129                      .dwendentry
     130                      .dwendtag $C$DW$3
     131              
     132 0000004e               .sect   ".text"
     133                      .clink
     134                      .global _onBufferEn
     135              
     136              $C$DW$5 .dwtag  DW_TAG_subprogram, DW_AT_name("onBufferEn")
     137                      .dwattr $C$DW$5, DW_AT_low_pc(_onBufferEn)
     138                      .dwattr $C$DW$5, DW_AT_high_pc(0x00)
     139                      .dwattr $C$DW$5, DW_AT_TI_symbol_name("_onBufferEn")
     140                      .dwattr $C$DW$5, DW_AT_external
     141                      .dwattr $C$DW$5, DW_AT_TI_begin_file("../ConvertorCntrl/ReleCntrl.c")
     142                      .dwattr $C$DW$5, DW_AT_TI_begin_line(0x35)
     143                      .dwattr $C$DW$5, DW_AT_TI_begin_column(0x06)
     144                      .dwattr $C$DW$5, DW_AT_TI_max_frame_size(-2)
     145                      .dwpsn  file "../ConvertorCntrl/ReleCntrl.c",line 53,column 22,is_stmt,address _onBufferEn
     146              
     147                      .dwfde $C$DW$CIE, _onBufferEn
     148              
     149              ;***************************************************************
     150              ;* FNAME: _onBufferEn                   FR SIZE:   0           *
     151              ;*                                                             *
     152              ;* FUNCTION ENVIRONMENT                                        *
     153              ;*                                                             *
     154              ;* FUNCTION PROPERTIES                                         *
     155              ;*                            0 Parameter,  0 Auto,  0 SOE     *
     156              ;***************************************************************
     157              
     158 0000004e       _onBufferEn:
     159                      .dwcfi  cfa_offset, -2
     160                      .dwcfi  save_reg_to_mem, 26, 0
     161                      .dwcfi  save_reg_to_reg, 78, 26
     162                      .dwpsn  file "../ConvertorCntrl/ReleCntrl.c",line 54,column 2,is_stmt
     163 0000004e 761F!         MOVW      DP,#_GpioDataRegs+12  ; [CPU_U] 
         0000004f 0000 
     164 00000050 1A0C!         OR        @_GpioDataRegs+12,#0x2000 ; [CPU_] |54| 
         00000051 2000 
     165                      .dwpsn  file "../ConvertorCntrl/ReleCntrl.c",line 55,column 1,is_stmt
     166              $C$DW$6 .dwtag  DW_TAG_TI_branch
     167                      .dwattr $C$DW$6, DW_AT_low_pc(0x00)
     168                      .dwattr $C$DW$6, DW_AT_TI_return
     169 00000052 0006          LRETR     ; [CPU_] 
     170                      ; return occurs ; [] 
     171                      .dwattr $C$DW$5, DW_AT_TI_end_file("../ConvertorCntrl/ReleCntrl.c")
     172                      .dwattr $C$DW$5, DW_AT_TI_end_line(0x37)
     173                      .dwattr $C$DW$5, DW_AT_TI_end_column(0x01)
     174                      .dwendentry
     175                      .dwendtag $C$DW$5
     176              
     177 00000053               .sect   ".text"
     178                      .clink
     179                      .global _offBufferEn
     180              
     181              $C$DW$7 .dwtag  DW_TAG_subprogram, DW_AT_name("offBufferEn")
TMS320C2000 Assembler PC v6.2.7 Thu Jul 02 08:31:31 2015

Tools Copyright (c) 1996-2014 Texas Instruments Incorporated
C:\Users\Tester\AppData\Local\Temp\0496010                           PAGE    5

     182                      .dwattr $C$DW$7, DW_AT_low_pc(_offBufferEn)
     183                      .dwattr $C$DW$7, DW_AT_high_pc(0x00)
     184                      .dwattr $C$DW$7, DW_AT_TI_symbol_name("_offBufferEn")
     185                      .dwattr $C$DW$7, DW_AT_external
     186                      .dwattr $C$DW$7, DW_AT_TI_begin_file("../ConvertorCntrl/ReleCntrl.c")
     187                      .dwattr $C$DW$7, DW_AT_TI_begin_line(0x39)
     188                      .dwattr $C$DW$7, DW_AT_TI_begin_column(0x06)
     189                      .dwattr $C$DW$7, DW_AT_TI_max_frame_size(-2)
     190                      .dwpsn  file "../ConvertorCntrl/ReleCntrl.c",line 57,column 23,is_stmt,address _offBufferEn
     191              
     192                      .dwfde $C$DW$CIE, _offBufferEn
     193              
     194              ;***************************************************************
     195              ;* FNAME: _offBufferEn                  FR SIZE:   0           *
     196              ;*                                                             *
     197              ;* FUNCTION ENVIRONMENT                                        *
     198              ;*                                                             *
     199              ;* FUNCTION PROPERTIES                                         *
     200              ;*                            0 Parameter,  0 Auto,  0 SOE     *
     201              ;***************************************************************
     202              
     203 00000053       _offBufferEn:
     204                      .dwcfi  cfa_offset, -2
     205                      .dwcfi  save_reg_to_mem, 26, 0
     206                      .dwcfi  save_reg_to_reg, 78, 26
     207                      .dwpsn  file "../ConvertorCntrl/ReleCntrl.c",line 58,column 2,is_stmt
     208 00000053 761F!         MOVW      DP,#_GpioDataRegs+10  ; [CPU_U] 
         00000054 0000 
     209 00000055 1A0A!         OR        @_GpioDataRegs+10,#0x2000 ; [CPU_] |58| 
         00000056 2000 
     210                      .dwpsn  file "../ConvertorCntrl/ReleCntrl.c",line 59,column 1,is_stmt
     211              $C$DW$8 .dwtag  DW_TAG_TI_branch
     212                      .dwattr $C$DW$8, DW_AT_low_pc(0x00)
     213                      .dwattr $C$DW$8, DW_AT_TI_return
     214 00000057 0006          LRETR     ; [CPU_] 
     215                      ; return occurs ; [] 
     216                      .dwattr $C$DW$7, DW_AT_TI_end_file("../ConvertorCntrl/ReleCntrl.c")
     217                      .dwattr $C$DW$7, DW_AT_TI_end_line(0x3b)
     218                      .dwattr $C$DW$7, DW_AT_TI_end_column(0x01)
     219                      .dwendentry
     220                      .dwendtag $C$DW$7
     221              
     222 00000058               .sect   ".text"
     223                      .clink
     224                      .global _onChargeRele
     225              
     226              $C$DW$9 .dwtag  DW_TAG_subprogram, DW_AT_name("onChargeRele")
     227                      .dwattr $C$DW$9, DW_AT_low_pc(_onChargeRele)
     228                      .dwattr $C$DW$9, DW_AT_high_pc(0x00)
     229                      .dwattr $C$DW$9, DW_AT_TI_symbol_name("_onChargeRele")
     230                      .dwattr $C$DW$9, DW_AT_external
     231                      .dwattr $C$DW$9, DW_AT_TI_begin_file("../ConvertorCntrl/ReleCntrl.c")
     232                      .dwattr $C$DW$9, DW_AT_TI_begin_line(0x3d)
     233                      .dwattr $C$DW$9, DW_AT_TI_begin_column(0x06)
     234                      .dwattr $C$DW$9, DW_AT_TI_max_frame_size(-2)
TMS320C2000 Assembler PC v6.2.7 Thu Jul 02 08:31:31 2015

Tools Copyright (c) 1996-2014 Texas Instruments Incorporated
C:\Users\Tester\AppData\Local\Temp\0496010                           PAGE    6

     235                      .dwpsn  file "../ConvertorCntrl/ReleCntrl.c",line 61,column 24,is_stmt,address _onChargeRele
     236              
     237                      .dwfde $C$DW$CIE, _onChargeRele
     238              
     239              ;***************************************************************
     240              ;* FNAME: _onChargeRele                 FR SIZE:   0           *
     241              ;*                                                             *
     242              ;* FUNCTION ENVIRONMENT                                        *
     243              ;*                                                             *
     244              ;* FUNCTION PROPERTIES                                         *
     245              ;*                            0 Parameter,  0 Auto,  0 SOE     *
     246              ;***************************************************************
     247              
     248 00000058       _onChargeRele:
     249                      .dwcfi  cfa_offset, -2
     250                      .dwcfi  save_reg_to_mem, 26, 0
     251                      .dwcfi  save_reg_to_reg, 78, 26
     252                      .dwpsn  file "../ConvertorCntrl/ReleCntrl.c",line 62,column 2,is_stmt
     253 00000058 761F!         MOVW      DP,#_GpioDataRegs+10  ; [CPU_U] 
         00000059 0000 
     254 0000005a 1A0A!         OR        @_GpioDataRegs+10,#0x8000 ; [CPU_] |62| 
         0000005b 8000 
     255                      .dwpsn  file "../ConvertorCntrl/ReleCntrl.c",line 63,column 1,is_stmt
     256              $C$DW$10        .dwtag  DW_TAG_TI_branch
     257                      .dwattr $C$DW$10, DW_AT_low_pc(0x00)
     258                      .dwattr $C$DW$10, DW_AT_TI_return
     259 0000005c 0006          LRETR     ; [CPU_] 
     260                      ; return occurs ; [] 
     261                      .dwattr $C$DW$9, DW_AT_TI_end_file("../ConvertorCntrl/ReleCntrl.c")
     262                      .dwattr $C$DW$9, DW_AT_TI_end_line(0x3f)
     263                      .dwattr $C$DW$9, DW_AT_TI_end_column(0x01)
     264                      .dwendentry
     265                      .dwendtag $C$DW$9
     266              
     267 0000005d               .sect   ".text"
     268                      .clink
     269                      .global _offChargeRele
     270              
     271              $C$DW$11        .dwtag  DW_TAG_subprogram, DW_AT_name("offChargeRele")
     272                      .dwattr $C$DW$11, DW_AT_low_pc(_offChargeRele)
     273                      .dwattr $C$DW$11, DW_AT_high_pc(0x00)
     274                      .dwattr $C$DW$11, DW_AT_TI_symbol_name("_offChargeRele")
     275                      .dwattr $C$DW$11, DW_AT_external
     276                      .dwattr $C$DW$11, DW_AT_TI_begin_file("../ConvertorCntrl/ReleCntrl.c")
     277                      .dwattr $C$DW$11, DW_AT_TI_begin_line(0x41)
     278                      .dwattr $C$DW$11, DW_AT_TI_begin_column(0x06)
     279                      .dwattr $C$DW$11, DW_AT_TI_max_frame_size(-2)
     280                      .dwpsn  file "../ConvertorCntrl/ReleCntrl.c",line 65,column 25,is_stmt,address _offChargeRele
     281              
     282                      .dwfde $C$DW$CIE, _offChargeRele
     283              
     284              ;***************************************************************
     285              ;* FNAME: _offChargeRele                FR SIZE:   0           *
     286              ;*                                                             *
     287              ;* FUNCTION ENVIRONMENT                                        *
TMS320C2000 Assembler PC v6.2.7 Thu Jul 02 08:31:31 2015

Tools Copyright (c) 1996-2014 Texas Instruments Incorporated
C:\Users\Tester\AppData\Local\Temp\0496010                           PAGE    7

     288              ;*                                                             *
     289              ;* FUNCTION PROPERTIES                                         *
     290              ;*                            0 Parameter,  0 Auto,  0 SOE     *
     291              ;***************************************************************
     292              
     293 0000005d       _offChargeRele:
     294                      .dwcfi  cfa_offset, -2
     295                      .dwcfi  save_reg_to_mem, 26, 0
     296                      .dwcfi  save_reg_to_reg, 78, 26
     297                      .dwpsn  file "../ConvertorCntrl/ReleCntrl.c",line 66,column 2,is_stmt
     298 0000005d 761F!         MOVW      DP,#_GpioDataRegs+12  ; [CPU_U] 
         0000005e 0000 
     299 0000005f 1A0C!         OR        @_GpioDataRegs+12,#0x8000 ; [CPU_] |66| 
         00000060 8000 
     300                      .dwpsn  file "../ConvertorCntrl/ReleCntrl.c",line 67,column 1,is_stmt
     301              $C$DW$12        .dwtag  DW_TAG_TI_branch
     302                      .dwattr $C$DW$12, DW_AT_low_pc(0x00)
     303                      .dwattr $C$DW$12, DW_AT_TI_return
     304 00000061 0006          LRETR     ; [CPU_] 
     305                      ; return occurs ; [] 
     306                      .dwattr $C$DW$11, DW_AT_TI_end_file("../ConvertorCntrl/ReleCntrl.c")
     307                      .dwattr $C$DW$11, DW_AT_TI_end_line(0x43)
     308                      .dwattr $C$DW$11, DW_AT_TI_end_column(0x01)
     309                      .dwendentry
     310                      .dwendtag $C$DW$11
     311              
     312 00000062               .sect   ".text"
     313                      .clink
     314                      .global _onPwrRele
     315              
     316              $C$DW$13        .dwtag  DW_TAG_subprogram, DW_AT_name("onPwrRele")
     317                      .dwattr $C$DW$13, DW_AT_low_pc(_onPwrRele)
     318                      .dwattr $C$DW$13, DW_AT_high_pc(0x00)
     319                      .dwattr $C$DW$13, DW_AT_TI_symbol_name("_onPwrRele")
     320                      .dwattr $C$DW$13, DW_AT_external
     321                      .dwattr $C$DW$13, DW_AT_TI_begin_file("../ConvertorCntrl/ReleCntrl.c")
     322                      .dwattr $C$DW$13, DW_AT_TI_begin_line(0x46)
     323                      .dwattr $C$DW$13, DW_AT_TI_begin_column(0x06)
     324                      .dwattr $C$DW$13, DW_AT_TI_max_frame_size(-2)
     325                      .dwpsn  file "../ConvertorCntrl/ReleCntrl.c",line 70,column 21,is_stmt,address _onPwrRele
     326              
     327                      .dwfde $C$DW$CIE, _onPwrRele
     328              
     329              ;***************************************************************
     330              ;* FNAME: _onPwrRele                    FR SIZE:   0           *
     331              ;*                                                             *
     332              ;* FUNCTION ENVIRONMENT                                        *
     333              ;*                                                             *
     334              ;* FUNCTION PROPERTIES                                         *
     335              ;*                            0 Parameter,  0 Auto,  0 SOE     *
     336              ;***************************************************************
     337              
     338 00000062       _onPwrRele:
     339                      .dwcfi  cfa_offset, -2
     340                      .dwcfi  save_reg_to_mem, 26, 0
TMS320C2000 Assembler PC v6.2.7 Thu Jul 02 08:31:31 2015

Tools Copyright (c) 1996-2014 Texas Instruments Incorporated
C:\Users\Tester\AppData\Local\Temp\0496010                           PAGE    8

     341                      .dwcfi  save_reg_to_reg, 78, 26
     342                      .dwpsn  file "../ConvertorCntrl/ReleCntrl.c",line 71,column 2,is_stmt
     343 00000062 761F!         MOVW      DP,#_GpioDataRegs+10  ; [CPU_U] 
         00000063 0000 
     344 00000064 1A0A!         OR        @_GpioDataRegs+10,#0x4000 ; [CPU_] |71| 
         00000065 4000 
     345                      .dwpsn  file "../ConvertorCntrl/ReleCntrl.c",line 72,column 1,is_stmt
     346              $C$DW$14        .dwtag  DW_TAG_TI_branch
     347                      .dwattr $C$DW$14, DW_AT_low_pc(0x00)
     348                      .dwattr $C$DW$14, DW_AT_TI_return
     349 00000066 0006          LRETR     ; [CPU_] 
     350                      ; return occurs ; [] 
     351                      .dwattr $C$DW$13, DW_AT_TI_end_file("../ConvertorCntrl/ReleCntrl.c")
     352                      .dwattr $C$DW$13, DW_AT_TI_end_line(0x48)
     353                      .dwattr $C$DW$13, DW_AT_TI_end_column(0x01)
     354                      .dwendentry
     355                      .dwendtag $C$DW$13
     356              
     357 00000067               .sect   ".text"
     358                      .clink
     359                      .global _offPwrRele
     360              
     361              $C$DW$15        .dwtag  DW_TAG_subprogram, DW_AT_name("offPwrRele")
     362                      .dwattr $C$DW$15, DW_AT_low_pc(_offPwrRele)
     363                      .dwattr $C$DW$15, DW_AT_high_pc(0x00)
     364                      .dwattr $C$DW$15, DW_AT_TI_symbol_name("_offPwrRele")
     365                      .dwattr $C$DW$15, DW_AT_external
     366                      .dwattr $C$DW$15, DW_AT_TI_begin_file("../ConvertorCntrl/ReleCntrl.c")
     367                      .dwattr $C$DW$15, DW_AT_TI_begin_line(0x4a)
     368                      .dwattr $C$DW$15, DW_AT_TI_begin_column(0x06)
     369                      .dwattr $C$DW$15, DW_AT_TI_max_frame_size(-2)
     370                      .dwpsn  file "../ConvertorCntrl/ReleCntrl.c",line 74,column 22,is_stmt,address _offPwrRele
     371              
     372                      .dwfde $C$DW$CIE, _offPwrRele
     373              
     374              ;***************************************************************
     375              ;* FNAME: _offPwrRele                   FR SIZE:   0           *
     376              ;*                                                             *
     377              ;* FUNCTION ENVIRONMENT                                        *
     378              ;*                                                             *
     379              ;* FUNCTION PROPERTIES                                         *
     380              ;*                            0 Parameter,  0 Auto,  0 SOE     *
     381              ;***************************************************************
     382              
     383 00000067       _offPwrRele:
     384                      .dwcfi  cfa_offset, -2
     385                      .dwcfi  save_reg_to_mem, 26, 0
     386                      .dwcfi  save_reg_to_reg, 78, 26
     387                      .dwpsn  file "../ConvertorCntrl/ReleCntrl.c",line 75,column 2,is_stmt
     388 00000067 761F!         MOVW      DP,#_GpioDataRegs+12  ; [CPU_U] 
         00000068 0000 
     389 00000069 1A0C!         OR        @_GpioDataRegs+12,#0x4000 ; [CPU_] |75| 
         0000006a 4000 
     390                      .dwpsn  file "../ConvertorCntrl/ReleCntrl.c",line 76,column 1,is_stmt
     391              $C$DW$16        .dwtag  DW_TAG_TI_branch
TMS320C2000 Assembler PC v6.2.7 Thu Jul 02 08:31:31 2015

Tools Copyright (c) 1996-2014 Texas Instruments Incorporated
C:\Users\Tester\AppData\Local\Temp\0496010                           PAGE    9

     392                      .dwattr $C$DW$16, DW_AT_low_pc(0x00)
     393                      .dwattr $C$DW$16, DW_AT_TI_return
     394 0000006b 0006          LRETR     ; [CPU_] 
     395                      ; return occurs ; [] 
     396                      .dwattr $C$DW$15, DW_AT_TI_end_file("../ConvertorCntrl/ReleCntrl.c")
     397                      .dwattr $C$DW$15, DW_AT_TI_end_line(0x4c)
     398                      .dwattr $C$DW$15, DW_AT_TI_end_column(0x01)
     399                      .dwendentry
     400                      .dwendtag $C$DW$15
     401              
     402 0000006c               .sect   ".text"
     403                      .clink
     404                      .global _onDistRele
     405              
     406              $C$DW$17        .dwtag  DW_TAG_subprogram, DW_AT_name("onDistRele")
     407                      .dwattr $C$DW$17, DW_AT_low_pc(_onDistRele)
     408                      .dwattr $C$DW$17, DW_AT_high_pc(0x00)
     409                      .dwattr $C$DW$17, DW_AT_TI_symbol_name("_onDistRele")
     410                      .dwattr $C$DW$17, DW_AT_external
     411                      .dwattr $C$DW$17, DW_AT_TI_begin_file("../ConvertorCntrl/ReleCntrl.c")
     412                      .dwattr $C$DW$17, DW_AT_TI_begin_line(0x4e)
     413                      .dwattr $C$DW$17, DW_AT_TI_begin_column(0x06)
     414                      .dwattr $C$DW$17, DW_AT_TI_max_frame_size(-2)
     415                      .dwpsn  file "../ConvertorCntrl/ReleCntrl.c",line 78,column 22,is_stmt,address _onDistRele
     416              
     417                      .dwfde $C$DW$CIE, _onDistRele
     418              
     419              ;***************************************************************
     420              ;* FNAME: _onDistRele                   FR SIZE:   0           *
     421              ;*                                                             *
     422              ;* FUNCTION ENVIRONMENT                                        *
     423              ;*                                                             *
     424              ;* FUNCTION PROPERTIES                                         *
     425              ;*                            0 Parameter,  0 Auto,  0 SOE     *
     426              ;***************************************************************
     427              
     428 0000006c       _onDistRele:
     429                      .dwcfi  cfa_offset, -2
     430                      .dwcfi  save_reg_to_mem, 26, 0
     431                      .dwcfi  save_reg_to_reg, 78, 26
     432                      .dwpsn  file "../ConvertorCntrl/ReleCntrl.c",line 79,column 2,is_stmt
     433 0000006c 761F!         MOVW      DP,#_GpioDataRegs+18  ; [CPU_U] 
         0000006d 0000 
     434 0000006e 1A12!         OR        @_GpioDataRegs+18,#0x0080 ; [CPU_] |79| 
         0000006f 0080 
     435                      .dwpsn  file "../ConvertorCntrl/ReleCntrl.c",line 80,column 1,is_stmt
     436              $C$DW$18        .dwtag  DW_TAG_TI_branch
     437                      .dwattr $C$DW$18, DW_AT_low_pc(0x00)
     438                      .dwattr $C$DW$18, DW_AT_TI_return
     439 00000070 0006          LRETR     ; [CPU_] 
     440                      ; return occurs ; [] 
     441                      .dwattr $C$DW$17, DW_AT_TI_end_file("../ConvertorCntrl/ReleCntrl.c")
     442                      .dwattr $C$DW$17, DW_AT_TI_end_line(0x50)
     443                      .dwattr $C$DW$17, DW_AT_TI_end_column(0x01)
     444                      .dwendentry
TMS320C2000 Assembler PC v6.2.7 Thu Jul 02 08:31:31 2015

Tools Copyright (c) 1996-2014 Texas Instruments Incorporated
C:\Users\Tester\AppData\Local\Temp\0496010                           PAGE   10

     445                      .dwendtag $C$DW$17
     446              
     447 00000071               .sect   ".text"
     448                      .clink
     449                      .global _offDistRele
     450              
     451              $C$DW$19        .dwtag  DW_TAG_subprogram, DW_AT_name("offDistRele")
     452                      .dwattr $C$DW$19, DW_AT_low_pc(_offDistRele)
     453                      .dwattr $C$DW$19, DW_AT_high_pc(0x00)
     454                      .dwattr $C$DW$19, DW_AT_TI_symbol_name("_offDistRele")
     455                      .dwattr $C$DW$19, DW_AT_external
     456                      .dwattr $C$DW$19, DW_AT_TI_begin_file("../ConvertorCntrl/ReleCntrl.c")
     457                      .dwattr $C$DW$19, DW_AT_TI_begin_line(0x52)
     458                      .dwattr $C$DW$19, DW_AT_TI_begin_column(0x06)
     459                      .dwattr $C$DW$19, DW_AT_TI_max_frame_size(-2)
     460                      .dwpsn  file "../ConvertorCntrl/ReleCntrl.c",line 82,column 23,is_stmt,address _offDistRele
     461              
     462                      .dwfde $C$DW$CIE, _offDistRele
     463              
     464              ;***************************************************************
     465              ;* FNAME: _offDistRele                  FR SIZE:   0           *
     466              ;*                                                             *
     467              ;* FUNCTION ENVIRONMENT                                        *
     468              ;*                                                             *
     469              ;* FUNCTION PROPERTIES                                         *
     470              ;*                            0 Parameter,  0 Auto,  0 SOE     *
     471              ;***************************************************************
     472              
     473 00000071       _offDistRele:
     474                      .dwcfi  cfa_offset, -2
     475                      .dwcfi  save_reg_to_mem, 26, 0
     476                      .dwcfi  save_reg_to_reg, 78, 26
     477                      .dwpsn  file "../ConvertorCntrl/ReleCntrl.c",line 83,column 2,is_stmt
     478 00000071 761F!         MOVW      DP,#_GpioDataRegs+20  ; [CPU_U] 
         00000072 0000 
     479 00000073 1A14!         OR        @_GpioDataRegs+20,#0x0080 ; [CPU_] |83| 
         00000074 0080 
     480                      .dwpsn  file "../ConvertorCntrl/ReleCntrl.c",line 84,column 1,is_stmt
     481              $C$DW$20        .dwtag  DW_TAG_TI_branch
     482                      .dwattr $C$DW$20, DW_AT_low_pc(0x00)
     483                      .dwattr $C$DW$20, DW_AT_TI_return
     484 00000075 0006          LRETR     ; [CPU_] 
     485                      ; return occurs ; [] 
     486                      .dwattr $C$DW$19, DW_AT_TI_end_file("../ConvertorCntrl/ReleCntrl.c")
     487                      .dwattr $C$DW$19, DW_AT_TI_end_line(0x54)
     488                      .dwattr $C$DW$19, DW_AT_TI_end_column(0x01)
     489                      .dwendentry
     490                      .dwendtag $C$DW$19
     491              
     492 00000076               .sect   ".text"
     493                      .clink
     494                      .global _onDistOK1
     495              
     496              $C$DW$21        .dwtag  DW_TAG_subprogram, DW_AT_name("onDistOK1")
     497                      .dwattr $C$DW$21, DW_AT_low_pc(_onDistOK1)
TMS320C2000 Assembler PC v6.2.7 Thu Jul 02 08:31:31 2015

Tools Copyright (c) 1996-2014 Texas Instruments Incorporated
C:\Users\Tester\AppData\Local\Temp\0496010                           PAGE   11

     498                      .dwattr $C$DW$21, DW_AT_high_pc(0x00)
     499                      .dwattr $C$DW$21, DW_AT_TI_symbol_name("_onDistOK1")
     500                      .dwattr $C$DW$21, DW_AT_external
     501                      .dwattr $C$DW$21, DW_AT_TI_begin_file("../ConvertorCntrl/ReleCntrl.c")
     502                      .dwattr $C$DW$21, DW_AT_TI_begin_line(0x56)
     503                      .dwattr $C$DW$21, DW_AT_TI_begin_column(0x06)
     504                      .dwattr $C$DW$21, DW_AT_TI_max_frame_size(-2)
     505                      .dwpsn  file "../ConvertorCntrl/ReleCntrl.c",line 86,column 21,is_stmt,address _onDistOK1
     506              
     507                      .dwfde $C$DW$CIE, _onDistOK1
     508              
     509              ;***************************************************************
     510              ;* FNAME: _onDistOK1                    FR SIZE:   0           *
     511              ;*                                                             *
     512              ;* FUNCTION ENVIRONMENT                                        *
     513              ;*                                                             *
     514              ;* FUNCTION PROPERTIES                                         *
     515              ;*                            0 Parameter,  0 Auto,  0 SOE     *
     516              ;***************************************************************
     517              
     518 00000076       _onDistOK1:
     519                      .dwcfi  cfa_offset, -2
     520                      .dwcfi  save_reg_to_mem, 26, 0
     521                      .dwcfi  save_reg_to_reg, 78, 26
     522                      .dwpsn  file "../ConvertorCntrl/ReleCntrl.c",line 87,column 2,is_stmt
     523 00000076 761F!         MOVW      DP,#_GpioDataRegs+3   ; [CPU_U] 
         00000077 0000 
     524 00000078 1A03!         OR        @_GpioDataRegs+3,#0x0800 ; [CPU_] |87| 
         00000079 0800 
     525                      .dwpsn  file "../ConvertorCntrl/ReleCntrl.c",line 88,column 1,is_stmt
     526              $C$DW$22        .dwtag  DW_TAG_TI_branch
     527                      .dwattr $C$DW$22, DW_AT_low_pc(0x00)
     528                      .dwattr $C$DW$22, DW_AT_TI_return
     529 0000007a 0006          LRETR     ; [CPU_] 
     530                      ; return occurs ; [] 
     531                      .dwattr $C$DW$21, DW_AT_TI_end_file("../ConvertorCntrl/ReleCntrl.c")
     532                      .dwattr $C$DW$21, DW_AT_TI_end_line(0x58)
     533                      .dwattr $C$DW$21, DW_AT_TI_end_column(0x01)
     534                      .dwendentry
     535                      .dwendtag $C$DW$21
     536              
     537 0000007b               .sect   ".text"
     538                      .clink
     539                      .global _offDistOK1
     540              
     541              $C$DW$23        .dwtag  DW_TAG_subprogram, DW_AT_name("offDistOK1")
     542                      .dwattr $C$DW$23, DW_AT_low_pc(_offDistOK1)
     543                      .dwattr $C$DW$23, DW_AT_high_pc(0x00)
     544                      .dwattr $C$DW$23, DW_AT_TI_symbol_name("_offDistOK1")
     545                      .dwattr $C$DW$23, DW_AT_external
     546                      .dwattr $C$DW$23, DW_AT_TI_begin_file("../ConvertorCntrl/ReleCntrl.c")
     547                      .dwattr $C$DW$23, DW_AT_TI_begin_line(0x5a)
     548                      .dwattr $C$DW$23, DW_AT_TI_begin_column(0x06)
     549                      .dwattr $C$DW$23, DW_AT_TI_max_frame_size(-2)
     550                      .dwpsn  file "../ConvertorCntrl/ReleCntrl.c",line 90,column 22,is_stmt,address _offDistOK1
TMS320C2000 Assembler PC v6.2.7 Thu Jul 02 08:31:31 2015

Tools Copyright (c) 1996-2014 Texas Instruments Incorporated
C:\Users\Tester\AppData\Local\Temp\0496010                           PAGE   12

     551              
     552                      .dwfde $C$DW$CIE, _offDistOK1
     553              
     554              ;***************************************************************
     555              ;* FNAME: _offDistOK1                   FR SIZE:   0           *
     556              ;*                                                             *
     557              ;* FUNCTION ENVIRONMENT                                        *
     558              ;*                                                             *
     559              ;* FUNCTION PROPERTIES                                         *
     560              ;*                            0 Parameter,  0 Auto,  0 SOE     *
     561              ;***************************************************************
     562              
     563 0000007b       _offDistOK1:
     564                      .dwcfi  cfa_offset, -2
     565                      .dwcfi  save_reg_to_mem, 26, 0
     566                      .dwcfi  save_reg_to_reg, 78, 26
     567                      .dwpsn  file "../ConvertorCntrl/ReleCntrl.c",line 91,column 2,is_stmt
     568 0000007b 761F!         MOVW      DP,#_GpioDataRegs+5   ; [CPU_U] 
         0000007c 0000 
     569 0000007d 1A05!         OR        @_GpioDataRegs+5,#0x0800 ; [CPU_] |91| 
         0000007e 0800 
     570                      .dwpsn  file "../ConvertorCntrl/ReleCntrl.c",line 92,column 1,is_stmt
     571              $C$DW$24        .dwtag  DW_TAG_TI_branch
     572                      .dwattr $C$DW$24, DW_AT_low_pc(0x00)
     573                      .dwattr $C$DW$24, DW_AT_TI_return
     574 0000007f 0006          LRETR     ; [CPU_] 
     575                      ; return occurs ; [] 
     576                      .dwattr $C$DW$23, DW_AT_TI_end_file("../ConvertorCntrl/ReleCntrl.c")
     577                      .dwattr $C$DW$23, DW_AT_TI_end_line(0x5c)
     578                      .dwattr $C$DW$23, DW_AT_TI_end_column(0x01)
     579                      .dwendentry
     580                      .dwendtag $C$DW$23
     581              
     582 00000080               .sect   ".text"
     583                      .clink
     584                      .global _onDistOK2
     585              
     586              $C$DW$25        .dwtag  DW_TAG_subprogram, DW_AT_name("onDistOK2")
     587                      .dwattr $C$DW$25, DW_AT_low_pc(_onDistOK2)
     588                      .dwattr $C$DW$25, DW_AT_high_pc(0x00)
     589                      .dwattr $C$DW$25, DW_AT_TI_symbol_name("_onDistOK2")
     590                      .dwattr $C$DW$25, DW_AT_external
     591                      .dwattr $C$DW$25, DW_AT_TI_begin_file("../ConvertorCntrl/ReleCntrl.c")
     592                      .dwattr $C$DW$25, DW_AT_TI_begin_line(0x5e)
     593                      .dwattr $C$DW$25, DW_AT_TI_begin_column(0x06)
     594                      .dwattr $C$DW$25, DW_AT_TI_max_frame_size(-2)
     595                      .dwpsn  file "../ConvertorCntrl/ReleCntrl.c",line 94,column 21,is_stmt,address _onDistOK2
     596              
     597                      .dwfde $C$DW$CIE, _onDistOK2
     598              
     599              ;***************************************************************
     600              ;* FNAME: _onDistOK2                    FR SIZE:   0           *
     601              ;*                                                             *
     602              ;* FUNCTION ENVIRONMENT                                        *
     603              ;*                                                             *
TMS320C2000 Assembler PC v6.2.7 Thu Jul 02 08:31:31 2015

Tools Copyright (c) 1996-2014 Texas Instruments Incorporated
C:\Users\Tester\AppData\Local\Temp\0496010                           PAGE   13

     604              ;* FUNCTION PROPERTIES                                         *
     605              ;*                            0 Parameter,  0 Auto,  0 SOE     *
     606              ;***************************************************************
     607              
     608 00000080       _onDistOK2:
     609                      .dwcfi  cfa_offset, -2
     610                      .dwcfi  save_reg_to_mem, 26, 0
     611                      .dwcfi  save_reg_to_reg, 78, 26
     612                      .dwpsn  file "../ConvertorCntrl/ReleCntrl.c",line 95,column 2,is_stmt
     613 00000080 761F!         MOVW      DP,#_GpioDataRegs+18  ; [CPU_U] 
         00000081 0000 
     614 00000082 1A12!         OR        @_GpioDataRegs+18,#0x0040 ; [CPU_] |95| 
         00000083 0040 
     615                      .dwpsn  file "../ConvertorCntrl/ReleCntrl.c",line 96,column 1,is_stmt
     616              $C$DW$26        .dwtag  DW_TAG_TI_branch
     617                      .dwattr $C$DW$26, DW_AT_low_pc(0x00)
     618                      .dwattr $C$DW$26, DW_AT_TI_return
     619 00000084 0006          LRETR     ; [CPU_] 
     620                      ; return occurs ; [] 
     621                      .dwattr $C$DW$25, DW_AT_TI_end_file("../ConvertorCntrl/ReleCntrl.c")
     622                      .dwattr $C$DW$25, DW_AT_TI_end_line(0x60)
     623                      .dwattr $C$DW$25, DW_AT_TI_end_column(0x01)
     624                      .dwendentry
     625                      .dwendtag $C$DW$25
     626              
     627 00000085               .sect   ".text"
     628                      .clink
     629                      .global _offDistOK2
     630              
     631              $C$DW$27        .dwtag  DW_TAG_subprogram, DW_AT_name("offDistOK2")
     632                      .dwattr $C$DW$27, DW_AT_low_pc(_offDistOK2)
     633                      .dwattr $C$DW$27, DW_AT_high_pc(0x00)
     634                      .dwattr $C$DW$27, DW_AT_TI_symbol_name("_offDistOK2")
     635                      .dwattr $C$DW$27, DW_AT_external
     636                      .dwattr $C$DW$27, DW_AT_TI_begin_file("../ConvertorCntrl/ReleCntrl.c")
     637                      .dwattr $C$DW$27, DW_AT_TI_begin_line(0x62)
     638                      .dwattr $C$DW$27, DW_AT_TI_begin_column(0x06)
     639                      .dwattr $C$DW$27, DW_AT_TI_max_frame_size(-2)
     640                      .dwpsn  file "../ConvertorCntrl/ReleCntrl.c",line 98,column 22,is_stmt,address _offDistOK2
     641              
     642                      .dwfde $C$DW$CIE, _offDistOK2
     643              
     644              ;***************************************************************
     645              ;* FNAME: _offDistOK2                   FR SIZE:   0           *
     646              ;*                                                             *
     647              ;* FUNCTION ENVIRONMENT                                        *
     648              ;*                                                             *
     649              ;* FUNCTION PROPERTIES                                         *
     650              ;*                            0 Parameter,  0 Auto,  0 SOE     *
     651              ;***************************************************************
     652              
     653 00000085       _offDistOK2:
     654                      .dwcfi  cfa_offset, -2
     655                      .dwcfi  save_reg_to_mem, 26, 0
     656                      .dwcfi  save_reg_to_reg, 78, 26
TMS320C2000 Assembler PC v6.2.7 Thu Jul 02 08:31:31 2015

Tools Copyright (c) 1996-2014 Texas Instruments Incorporated
C:\Users\Tester\AppData\Local\Temp\0496010                           PAGE   14

     657                      .dwpsn  file "../ConvertorCntrl/ReleCntrl.c",line 99,column 2,is_stmt
     658 00000085 761F!         MOVW      DP,#_GpioDataRegs+20  ; [CPU_U] 
         00000086 0000 
     659 00000087 1A14!         OR        @_GpioDataRegs+20,#0x0040 ; [CPU_] |99| 
         00000088 0040 
     660                      .dwpsn  file "../ConvertorCntrl/ReleCntrl.c",line 100,column 1,is_stmt
     661              $C$DW$28        .dwtag  DW_TAG_TI_branch
     662                      .dwattr $C$DW$28, DW_AT_low_pc(0x00)
     663                      .dwattr $C$DW$28, DW_AT_TI_return
     664 00000089 0006          LRETR     ; [CPU_] 
     665                      ; return occurs ; [] 
     666                      .dwattr $C$DW$27, DW_AT_TI_end_file("../ConvertorCntrl/ReleCntrl.c")
     667                      .dwattr $C$DW$27, DW_AT_TI_end_line(0x64)
     668                      .dwattr $C$DW$27, DW_AT_TI_end_column(0x01)
     669                      .dwendentry
     670                      .dwendtag $C$DW$27
     671              
     672              ;**************************************************************
     673              ;* UNDEFINED EXTERNAL REFERENCES                              *
     674              ;**************************************************************
     675                      .global _GpioDataRegs
     676                      .global _GpioCtrlRegs
     677              
     678              ;***************************************************************
     679              ;* TYPE INFORMATION                                            *
     680              ;***************************************************************
     681              
     682              $C$DW$T$20      .dwtag  DW_TAG_structure_type
     683                      .dwattr $C$DW$T$20, DW_AT_name("GPA1_BITS")
     684                      .dwattr $C$DW$T$20, DW_AT_byte_size(0x02)
     685              $C$DW$29        .dwtag  DW_TAG_member
     686                      .dwattr $C$DW$29, DW_AT_type(*$C$DW$T$19)
     687                      .dwattr $C$DW$29, DW_AT_name("GPIO0")
     688                      .dwattr $C$DW$29, DW_AT_TI_symbol_name("_GPIO0")
     689                      .dwattr $C$DW$29, DW_AT_bit_offset(0x0e), DW_AT_bit_size(0x02)
     690                      .dwattr $C$DW$29, DW_AT_data_member_location[DW_OP_plus_uconst 0x0]
     691                      .dwattr $C$DW$29, DW_AT_accessibility(DW_ACCESS_public)
     692              $C$DW$30        .dwtag  DW_TAG_member
     693                      .dwattr $C$DW$30, DW_AT_type(*$C$DW$T$19)
     694                      .dwattr $C$DW$30, DW_AT_name("GPIO1")
     695                      .dwattr $C$DW$30, DW_AT_TI_symbol_name("_GPIO1")
     696                      .dwattr $C$DW$30, DW_AT_bit_offset(0x0c), DW_AT_bit_size(0x02)
     697                      .dwattr $C$DW$30, DW_AT_data_member_location[DW_OP_plus_uconst 0x0]
     698                      .dwattr $C$DW$30, DW_AT_accessibility(DW_ACCESS_public)
     699              $C$DW$31        .dwtag  DW_TAG_member
     700                      .dwattr $C$DW$31, DW_AT_type(*$C$DW$T$19)
     701                      .dwattr $C$DW$31, DW_AT_name("GPIO2")
     702                      .dwattr $C$DW$31, DW_AT_TI_symbol_name("_GPIO2")
     703                      .dwattr $C$DW$31, DW_AT_bit_offset(0x0a), DW_AT_bit_size(0x02)
     704                      .dwattr $C$DW$31, DW_AT_data_member_location[DW_OP_plus_uconst 0x0]
     705                      .dwattr $C$DW$31, DW_AT_accessibility(DW_ACCESS_public)
     706              $C$DW$32        .dwtag  DW_TAG_member
     707                      .dwattr $C$DW$32, DW_AT_type(*$C$DW$T$19)
     708                      .dwattr $C$DW$32, DW_AT_name("GPIO3")
     709                      .dwattr $C$DW$32, DW_AT_TI_symbol_name("_GPIO3")
TMS320C2000 Assembler PC v6.2.7 Thu Jul 02 08:31:31 2015

Tools Copyright (c) 1996-2014 Texas Instruments Incorporated
C:\Users\Tester\AppData\Local\Temp\0496010                           PAGE   15

     710                      .dwattr $C$DW$32, DW_AT_bit_offset(0x08), DW_AT_bit_size(0x02)
     711                      .dwattr $C$DW$32, DW_AT_data_member_location[DW_OP_plus_uconst 0x0]
     712                      .dwattr $C$DW$32, DW_AT_accessibility(DW_ACCESS_public)
     713              $C$DW$33        .dwtag  DW_TAG_member
     714                      .dwattr $C$DW$33, DW_AT_type(*$C$DW$T$19)
     715                      .dwattr $C$DW$33, DW_AT_name("GPIO4")
     716                      .dwattr $C$DW$33, DW_AT_TI_symbol_name("_GPIO4")
     717                      .dwattr $C$DW$33, DW_AT_bit_offset(0x06), DW_AT_bit_size(0x02)
     718                      .dwattr $C$DW$33, DW_AT_data_member_location[DW_OP_plus_uconst 0x0]
     719                      .dwattr $C$DW$33, DW_AT_accessibility(DW_ACCESS_public)
     720              $C$DW$34        .dwtag  DW_TAG_member
     721                      .dwattr $C$DW$34, DW_AT_type(*$C$DW$T$19)
     722                      .dwattr $C$DW$34, DW_AT_name("GPIO5")
     723                      .dwattr $C$DW$34, DW_AT_TI_symbol_name("_GPIO5")
     724                      .dwattr $C$DW$34, DW_AT_bit_offset(0x04), DW_AT_bit_size(0x02)
     725                      .dwattr $C$DW$34, DW_AT_data_member_location[DW_OP_plus_uconst 0x0]
     726                      .dwattr $C$DW$34, DW_AT_accessibility(DW_ACCESS_public)
     727              $C$DW$35        .dwtag  DW_TAG_member
     728                      .dwattr $C$DW$35, DW_AT_type(*$C$DW$T$19)
     729                      .dwattr $C$DW$35, DW_AT_name("GPIO6")
     730                      .dwattr $C$DW$35, DW_AT_TI_symbol_name("_GPIO6")
     731                      .dwattr $C$DW$35, DW_AT_bit_offset(0x02), DW_AT_bit_size(0x02)
     732                      .dwattr $C$DW$35, DW_AT_data_member_location[DW_OP_plus_uconst 0x0]
     733                      .dwattr $C$DW$35, DW_AT_accessibility(DW_ACCESS_public)
     734              $C$DW$36        .dwtag  DW_TAG_member
     735                      .dwattr $C$DW$36, DW_AT_type(*$C$DW$T$19)
     736                      .dwattr $C$DW$36, DW_AT_name("GPIO7")
     737                      .dwattr $C$DW$36, DW_AT_TI_symbol_name("_GPIO7")
     738                      .dwattr $C$DW$36, DW_AT_bit_offset(0x00), DW_AT_bit_size(0x02)
     739                      .dwattr $C$DW$36, DW_AT_data_member_location[DW_OP_plus_uconst 0x0]
     740                      .dwattr $C$DW$36, DW_AT_accessibility(DW_ACCESS_public)
     741              $C$DW$37        .dwtag  DW_TAG_member
     742                      .dwattr $C$DW$37, DW_AT_type(*$C$DW$T$19)
     743                      .dwattr $C$DW$37, DW_AT_name("GPIO8")
     744                      .dwattr $C$DW$37, DW_AT_TI_symbol_name("_GPIO8")
     745                      .dwattr $C$DW$37, DW_AT_bit_offset(0x0e), DW_AT_bit_size(0x02)
     746                      .dwattr $C$DW$37, DW_AT_data_member_location[DW_OP_plus_uconst 0x1]
     747                      .dwattr $C$DW$37, DW_AT_accessibility(DW_ACCESS_public)
     748              $C$DW$38        .dwtag  DW_TAG_member
     749                      .dwattr $C$DW$38, DW_AT_type(*$C$DW$T$19)
     750                      .dwattr $C$DW$38, DW_AT_name("GPIO9")
     751                      .dwattr $C$DW$38, DW_AT_TI_symbol_name("_GPIO9")
     752                      .dwattr $C$DW$38, DW_AT_bit_offset(0x0c), DW_AT_bit_size(0x02)
     753                      .dwattr $C$DW$38, DW_AT_data_member_location[DW_OP_plus_uconst 0x1]
     754                      .dwattr $C$DW$38, DW_AT_accessibility(DW_ACCESS_public)
     755              $C$DW$39        .dwtag  DW_TAG_member
     756                      .dwattr $C$DW$39, DW_AT_type(*$C$DW$T$19)
     757                      .dwattr $C$DW$39, DW_AT_name("GPIO10")
     758                      .dwattr $C$DW$39, DW_AT_TI_symbol_name("_GPIO10")
     759                      .dwattr $C$DW$39, DW_AT_bit_offset(0x0a), DW_AT_bit_size(0x02)
     760                      .dwattr $C$DW$39, DW_AT_data_member_location[DW_OP_plus_uconst 0x1]
     761                      .dwattr $C$DW$39, DW_AT_accessibility(DW_ACCESS_public)
     762              $C$DW$40        .dwtag  DW_TAG_member
     763                      .dwattr $C$DW$40, DW_AT_type(*$C$DW$T$19)
     764                      .dwattr $C$DW$40, DW_AT_name("GPIO11")
TMS320C2000 Assembler PC v6.2.7 Thu Jul 02 08:31:31 2015

Tools Copyright (c) 1996-2014 Texas Instruments Incorporated
C:\Users\Tester\AppData\Local\Temp\0496010                           PAGE   16

     765                      .dwattr $C$DW$40, DW_AT_TI_symbol_name("_GPIO11")
     766                      .dwattr $C$DW$40, DW_AT_bit_offset(0x08), DW_AT_bit_size(0x02)
     767                      .dwattr $C$DW$40, DW_AT_data_member_location[DW_OP_plus_uconst 0x1]
     768                      .dwattr $C$DW$40, DW_AT_accessibility(DW_ACCESS_public)
     769              $C$DW$41        .dwtag  DW_TAG_member
     770                      .dwattr $C$DW$41, DW_AT_type(*$C$DW$T$19)
     771                      .dwattr $C$DW$41, DW_AT_name("GPIO12")
     772                      .dwattr $C$DW$41, DW_AT_TI_symbol_name("_GPIO12")
     773                      .dwattr $C$DW$41, DW_AT_bit_offset(0x06), DW_AT_bit_size(0x02)
     774                      .dwattr $C$DW$41, DW_AT_data_member_location[DW_OP_plus_uconst 0x1]
     775                      .dwattr $C$DW$41, DW_AT_accessibility(DW_ACCESS_public)
     776              $C$DW$42        .dwtag  DW_TAG_member
     777                      .dwattr $C$DW$42, DW_AT_type(*$C$DW$T$19)
     778                      .dwattr $C$DW$42, DW_AT_name("GPIO13")
     779                      .dwattr $C$DW$42, DW_AT_TI_symbol_name("_GPIO13")
     780                      .dwattr $C$DW$42, DW_AT_bit_offset(0x04), DW_AT_bit_size(0x02)
     781                      .dwattr $C$DW$42, DW_AT_data_member_location[DW_OP_plus_uconst 0x1]
     782                      .dwattr $C$DW$42, DW_AT_accessibility(DW_ACCESS_public)
     783              $C$DW$43        .dwtag  DW_TAG_member
     784                      .dwattr $C$DW$43, DW_AT_type(*$C$DW$T$19)
     785                      .dwattr $C$DW$43, DW_AT_name("GPIO14")
     786                      .dwattr $C$DW$43, DW_AT_TI_symbol_name("_GPIO14")
     787                      .dwattr $C$DW$43, DW_AT_bit_offset(0x02), DW_AT_bit_size(0x02)
     788                      .dwattr $C$DW$43, DW_AT_data_member_location[DW_OP_plus_uconst 0x1]
     789                      .dwattr $C$DW$43, DW_AT_accessibility(DW_ACCESS_public)
     790              $C$DW$44        .dwtag  DW_TAG_member
     791                      .dwattr $C$DW$44, DW_AT_type(*$C$DW$T$19)
     792                      .dwattr $C$DW$44, DW_AT_name("GPIO15")
     793                      .dwattr $C$DW$44, DW_AT_TI_symbol_name("_GPIO15")
     794                      .dwattr $C$DW$44, DW_AT_bit_offset(0x00), DW_AT_bit_size(0x02)
     795                      .dwattr $C$DW$44, DW_AT_data_member_location[DW_OP_plus_uconst 0x1]
     796                      .dwattr $C$DW$44, DW_AT_accessibility(DW_ACCESS_public)
     797                      .dwendtag $C$DW$T$20
     798              
     799              
     800              $C$DW$T$22      .dwtag  DW_TAG_union_type
     801                      .dwattr $C$DW$T$22, DW_AT_name("GPA1_REG")
     802                      .dwattr $C$DW$T$22, DW_AT_byte_size(0x02)
     803              $C$DW$45        .dwtag  DW_TAG_member
     804                      .dwattr $C$DW$45, DW_AT_type(*$C$DW$T$21)
     805                      .dwattr $C$DW$45, DW_AT_name("all")
     806                      .dwattr $C$DW$45, DW_AT_TI_symbol_name("_all")
     807                      .dwattr $C$DW$45, DW_AT_data_member_location[DW_OP_plus_uconst 0x0]
     808                      .dwattr $C$DW$45, DW_AT_accessibility(DW_ACCESS_public)
     809              $C$DW$46        .dwtag  DW_TAG_member
     810                      .dwattr $C$DW$46, DW_AT_type(*$C$DW$T$20)
     811                      .dwattr $C$DW$46, DW_AT_name("bit")
     812                      .dwattr $C$DW$46, DW_AT_TI_symbol_name("_bit")
     813                      .dwattr $C$DW$46, DW_AT_data_member_location[DW_OP_plus_uconst 0x0]
     814                      .dwattr $C$DW$46, DW_AT_accessibility(DW_ACCESS_public)
     815                      .dwendtag $C$DW$T$22
     816              
     817              
     818              $C$DW$T$23      .dwtag  DW_TAG_structure_type
     819                      .dwattr $C$DW$T$23, DW_AT_name("GPA2_BITS")
TMS320C2000 Assembler PC v6.2.7 Thu Jul 02 08:31:31 2015

Tools Copyright (c) 1996-2014 Texas Instruments Incorporated
C:\Users\Tester\AppData\Local\Temp\0496010                           PAGE   17

     820                      .dwattr $C$DW$T$23, DW_AT_byte_size(0x02)
     821              $C$DW$47        .dwtag  DW_TAG_member
     822                      .dwattr $C$DW$47, DW_AT_type(*$C$DW$T$19)
     823                      .dwattr $C$DW$47, DW_AT_name("GPIO16")
     824                      .dwattr $C$DW$47, DW_AT_TI_symbol_name("_GPIO16")
     825                      .dwattr $C$DW$47, DW_AT_bit_offset(0x0e), DW_AT_bit_size(0x02)
     826                      .dwattr $C$DW$47, DW_AT_data_member_location[DW_OP_plus_uconst 0x0]
     827                      .dwattr $C$DW$47, DW_AT_accessibility(DW_ACCESS_public)
     828              $C$DW$48        .dwtag  DW_TAG_member
     829                      .dwattr $C$DW$48, DW_AT_type(*$C$DW$T$19)
     830                      .dwattr $C$DW$48, DW_AT_name("GPIO17")
     831                      .dwattr $C$DW$48, DW_AT_TI_symbol_name("_GPIO17")
     832                      .dwattr $C$DW$48, DW_AT_bit_offset(0x0c), DW_AT_bit_size(0x02)
     833                      .dwattr $C$DW$48, DW_AT_data_member_location[DW_OP_plus_uconst 0x0]
     834                      .dwattr $C$DW$48, DW_AT_accessibility(DW_ACCESS_public)
     835              $C$DW$49        .dwtag  DW_TAG_member
     836                      .dwattr $C$DW$49, DW_AT_type(*$C$DW$T$19)
     837                      .dwattr $C$DW$49, DW_AT_name("GPIO18")
     838                      .dwattr $C$DW$49, DW_AT_TI_symbol_name("_GPIO18")
     839                      .dwattr $C$DW$49, DW_AT_bit_offset(0x0a), DW_AT_bit_size(0x02)
     840                      .dwattr $C$DW$49, DW_AT_data_member_location[DW_OP_plus_uconst 0x0]
     841                      .dwattr $C$DW$49, DW_AT_accessibility(DW_ACCESS_public)
     842              $C$DW$50        .dwtag  DW_TAG_member
     843                      .dwattr $C$DW$50, DW_AT_type(*$C$DW$T$19)
     844                      .dwattr $C$DW$50, DW_AT_name("GPIO19")
     845                      .dwattr $C$DW$50, DW_AT_TI_symbol_name("_GPIO19")
     846                      .dwattr $C$DW$50, DW_AT_bit_offset(0x08), DW_AT_bit_size(0x02)
     847                      .dwattr $C$DW$50, DW_AT_data_member_location[DW_OP_plus_uconst 0x0]
     848                      .dwattr $C$DW$50, DW_AT_accessibility(DW_ACCESS_public)
     849              $C$DW$51        .dwtag  DW_TAG_member
     850                      .dwattr $C$DW$51, DW_AT_type(*$C$DW$T$19)
     851                      .dwattr $C$DW$51, DW_AT_name("GPIO20")
     852                      .dwattr $C$DW$51, DW_AT_TI_symbol_name("_GPIO20")
     853                      .dwattr $C$DW$51, DW_AT_bit_offset(0x06), DW_AT_bit_size(0x02)
     854                      .dwattr $C$DW$51, DW_AT_data_member_location[DW_OP_plus_uconst 0x0]
     855                      .dwattr $C$DW$51, DW_AT_accessibility(DW_ACCESS_public)
     856              $C$DW$52        .dwtag  DW_TAG_member
     857                      .dwattr $C$DW$52, DW_AT_type(*$C$DW$T$19)
     858                      .dwattr $C$DW$52, DW_AT_name("GPIO21")
     859                      .dwattr $C$DW$52, DW_AT_TI_symbol_name("_GPIO21")
     860                      .dwattr $C$DW$52, DW_AT_bit_offset(0x04), DW_AT_bit_size(0x02)
     861                      .dwattr $C$DW$52, DW_AT_data_member_location[DW_OP_plus_uconst 0x0]
     862                      .dwattr $C$DW$52, DW_AT_accessibility(DW_ACCESS_public)
     863              $C$DW$53        .dwtag  DW_TAG_member
     864                      .dwattr $C$DW$53, DW_AT_type(*$C$DW$T$19)
     865                      .dwattr $C$DW$53, DW_AT_name("GPIO22")
     866                      .dwattr $C$DW$53, DW_AT_TI_symbol_name("_GPIO22")
     867                      .dwattr $C$DW$53, DW_AT_bit_offset(0x02), DW_AT_bit_size(0x02)
     868                      .dwattr $C$DW$53, DW_AT_data_member_location[DW_OP_plus_uconst 0x0]
     869                      .dwattr $C$DW$53, DW_AT_accessibility(DW_ACCESS_public)
     870              $C$DW$54        .dwtag  DW_TAG_member
     871                      .dwattr $C$DW$54, DW_AT_type(*$C$DW$T$19)
     872                      .dwattr $C$DW$54, DW_AT_name("GPIO23")
     873                      .dwattr $C$DW$54, DW_AT_TI_symbol_name("_GPIO23")
     874                      .dwattr $C$DW$54, DW_AT_bit_offset(0x00), DW_AT_bit_size(0x02)
TMS320C2000 Assembler PC v6.2.7 Thu Jul 02 08:31:31 2015

Tools Copyright (c) 1996-2014 Texas Instruments Incorporated
C:\Users\Tester\AppData\Local\Temp\0496010                           PAGE   18

     875                      .dwattr $C$DW$54, DW_AT_data_member_location[DW_OP_plus_uconst 0x0]
     876                      .dwattr $C$DW$54, DW_AT_accessibility(DW_ACCESS_public)
     877              $C$DW$55        .dwtag  DW_TAG_member
     878                      .dwattr $C$DW$55, DW_AT_type(*$C$DW$T$19)
     879                      .dwattr $C$DW$55, DW_AT_name("GPIO24")
     880                      .dwattr $C$DW$55, DW_AT_TI_symbol_name("_GPIO24")
     881                      .dwattr $C$DW$55, DW_AT_bit_offset(0x0e), DW_AT_bit_size(0x02)
     882                      .dwattr $C$DW$55, DW_AT_data_member_location[DW_OP_plus_uconst 0x1]
     883                      .dwattr $C$DW$55, DW_AT_accessibility(DW_ACCESS_public)
     884              $C$DW$56        .dwtag  DW_TAG_member
     885                      .dwattr $C$DW$56, DW_AT_type(*$C$DW$T$19)
     886                      .dwattr $C$DW$56, DW_AT_name("GPIO25")
     887                      .dwattr $C$DW$56, DW_AT_TI_symbol_name("_GPIO25")
     888                      .dwattr $C$DW$56, DW_AT_bit_offset(0x0c), DW_AT_bit_size(0x02)
     889                      .dwattr $C$DW$56, DW_AT_data_member_location[DW_OP_plus_uconst 0x1]
     890                      .dwattr $C$DW$56, DW_AT_accessibility(DW_ACCESS_public)
     891              $C$DW$57        .dwtag  DW_TAG_member
     892                      .dwattr $C$DW$57, DW_AT_type(*$C$DW$T$19)
     893                      .dwattr $C$DW$57, DW_AT_name("GPIO26")
     894                      .dwattr $C$DW$57, DW_AT_TI_symbol_name("_GPIO26")
     895                      .dwattr $C$DW$57, DW_AT_bit_offset(0x0a), DW_AT_bit_size(0x02)
     896                      .dwattr $C$DW$57, DW_AT_data_member_location[DW_OP_plus_uconst 0x1]
     897                      .dwattr $C$DW$57, DW_AT_accessibility(DW_ACCESS_public)
     898              $C$DW$58        .dwtag  DW_TAG_member
     899                      .dwattr $C$DW$58, DW_AT_type(*$C$DW$T$19)
     900                      .dwattr $C$DW$58, DW_AT_name("GPIO27")
     901                      .dwattr $C$DW$58, DW_AT_TI_symbol_name("_GPIO27")
     902                      .dwattr $C$DW$58, DW_AT_bit_offset(0x08), DW_AT_bit_size(0x02)
     903                      .dwattr $C$DW$58, DW_AT_data_member_location[DW_OP_plus_uconst 0x1]
     904                      .dwattr $C$DW$58, DW_AT_accessibility(DW_ACCESS_public)
     905              $C$DW$59        .dwtag  DW_TAG_member
     906                      .dwattr $C$DW$59, DW_AT_type(*$C$DW$T$19)
     907                      .dwattr $C$DW$59, DW_AT_name("GPIO28")
     908                      .dwattr $C$DW$59, DW_AT_TI_symbol_name("_GPIO28")
     909                      .dwattr $C$DW$59, DW_AT_bit_offset(0x06), DW_AT_bit_size(0x02)
     910                      .dwattr $C$DW$59, DW_AT_data_member_location[DW_OP_plus_uconst 0x1]
     911                      .dwattr $C$DW$59, DW_AT_accessibility(DW_ACCESS_public)
     912              $C$DW$60        .dwtag  DW_TAG_member
     913                      .dwattr $C$DW$60, DW_AT_type(*$C$DW$T$19)
     914                      .dwattr $C$DW$60, DW_AT_name("GPIO29")
     915                      .dwattr $C$DW$60, DW_AT_TI_symbol_name("_GPIO29")
     916                      .dwattr $C$DW$60, DW_AT_bit_offset(0x04), DW_AT_bit_size(0x02)
     917                      .dwattr $C$DW$60, DW_AT_data_member_location[DW_OP_plus_uconst 0x1]
     918                      .dwattr $C$DW$60, DW_AT_accessibility(DW_ACCESS_public)
     919              $C$DW$61        .dwtag  DW_TAG_member
     920                      .dwattr $C$DW$61, DW_AT_type(*$C$DW$T$19)
     921                      .dwattr $C$DW$61, DW_AT_name("GPIO30")
     922                      .dwattr $C$DW$61, DW_AT_TI_symbol_name("_GPIO30")
     923                      .dwattr $C$DW$61, DW_AT_bit_offset(0x02), DW_AT_bit_size(0x02)
     924                      .dwattr $C$DW$61, DW_AT_data_member_location[DW_OP_plus_uconst 0x1]
     925                      .dwattr $C$DW$61, DW_AT_accessibility(DW_ACCESS_public)
     926              $C$DW$62        .dwtag  DW_TAG_member
     927                      .dwattr $C$DW$62, DW_AT_type(*$C$DW$T$19)
     928                      .dwattr $C$DW$62, DW_AT_name("GPIO31")
     929                      .dwattr $C$DW$62, DW_AT_TI_symbol_name("_GPIO31")
TMS320C2000 Assembler PC v6.2.7 Thu Jul 02 08:31:31 2015

Tools Copyright (c) 1996-2014 Texas Instruments Incorporated
C:\Users\Tester\AppData\Local\Temp\0496010                           PAGE   19

     930                      .dwattr $C$DW$62, DW_AT_bit_offset(0x00), DW_AT_bit_size(0x02)
     931                      .dwattr $C$DW$62, DW_AT_data_member_location[DW_OP_plus_uconst 0x1]
     932                      .dwattr $C$DW$62, DW_AT_accessibility(DW_ACCESS_public)
     933                      .dwendtag $C$DW$T$23
     934              
     935              
     936              $C$DW$T$24      .dwtag  DW_TAG_union_type
     937                      .dwattr $C$DW$T$24, DW_AT_name("GPA2_REG")
     938                      .dwattr $C$DW$T$24, DW_AT_byte_size(0x02)
     939              $C$DW$63        .dwtag  DW_TAG_member
     940                      .dwattr $C$DW$63, DW_AT_type(*$C$DW$T$21)
     941                      .dwattr $C$DW$63, DW_AT_name("all")
     942                      .dwattr $C$DW$63, DW_AT_TI_symbol_name("_all")
     943                      .dwattr $C$DW$63, DW_AT_data_member_location[DW_OP_plus_uconst 0x0]
     944                      .dwattr $C$DW$63, DW_AT_accessibility(DW_ACCESS_public)
     945              $C$DW$64        .dwtag  DW_TAG_member
     946                      .dwattr $C$DW$64, DW_AT_type(*$C$DW$T$23)
     947                      .dwattr $C$DW$64, DW_AT_name("bit")
     948                      .dwattr $C$DW$64, DW_AT_TI_symbol_name("_bit")
     949                      .dwattr $C$DW$64, DW_AT_data_member_location[DW_OP_plus_uconst 0x0]
     950                      .dwattr $C$DW$64, DW_AT_accessibility(DW_ACCESS_public)
     951                      .dwendtag $C$DW$T$24
     952              
     953              
     954              $C$DW$T$25      .dwtag  DW_TAG_structure_type
     955                      .dwattr $C$DW$T$25, DW_AT_name("GPACTRL_BITS")
     956                      .dwattr $C$DW$T$25, DW_AT_byte_size(0x02)
     957              $C$DW$65        .dwtag  DW_TAG_member
     958                      .dwattr $C$DW$65, DW_AT_type(*$C$DW$T$19)
     959                      .dwattr $C$DW$65, DW_AT_name("QUALPRD0")
     960                      .dwattr $C$DW$65, DW_AT_TI_symbol_name("_QUALPRD0")
     961                      .dwattr $C$DW$65, DW_AT_bit_offset(0x08), DW_AT_bit_size(0x08)
     962                      .dwattr $C$DW$65, DW_AT_data_member_location[DW_OP_plus_uconst 0x0]
     963                      .dwattr $C$DW$65, DW_AT_accessibility(DW_ACCESS_public)
     964              $C$DW$66        .dwtag  DW_TAG_member
     965                      .dwattr $C$DW$66, DW_AT_type(*$C$DW$T$19)
     966                      .dwattr $C$DW$66, DW_AT_name("QUALPRD1")
     967                      .dwattr $C$DW$66, DW_AT_TI_symbol_name("_QUALPRD1")
     968                      .dwattr $C$DW$66, DW_AT_bit_offset(0x00), DW_AT_bit_size(0x08)
     969                      .dwattr $C$DW$66, DW_AT_data_member_location[DW_OP_plus_uconst 0x0]
     970                      .dwattr $C$DW$66, DW_AT_accessibility(DW_ACCESS_public)
     971              $C$DW$67        .dwtag  DW_TAG_member
     972                      .dwattr $C$DW$67, DW_AT_type(*$C$DW$T$19)
     973                      .dwattr $C$DW$67, DW_AT_name("QUALPRD2")
     974                      .dwattr $C$DW$67, DW_AT_TI_symbol_name("_QUALPRD2")
     975                      .dwattr $C$DW$67, DW_AT_bit_offset(0x08), DW_AT_bit_size(0x08)
     976                      .dwattr $C$DW$67, DW_AT_data_member_location[DW_OP_plus_uconst 0x1]
     977                      .dwattr $C$DW$67, DW_AT_accessibility(DW_ACCESS_public)
     978              $C$DW$68        .dwtag  DW_TAG_member
     979                      .dwattr $C$DW$68, DW_AT_type(*$C$DW$T$19)
     980                      .dwattr $C$DW$68, DW_AT_name("QUALPRD3")
     981                      .dwattr $C$DW$68, DW_AT_TI_symbol_name("_QUALPRD3")
     982                      .dwattr $C$DW$68, DW_AT_bit_offset(0x00), DW_AT_bit_size(0x08)
     983                      .dwattr $C$DW$68, DW_AT_data_member_location[DW_OP_plus_uconst 0x1]
     984                      .dwattr $C$DW$68, DW_AT_accessibility(DW_ACCESS_public)
TMS320C2000 Assembler PC v6.2.7 Thu Jul 02 08:31:31 2015

Tools Copyright (c) 1996-2014 Texas Instruments Incorporated
C:\Users\Tester\AppData\Local\Temp\0496010                           PAGE   20

     985                      .dwendtag $C$DW$T$25
     986              
     987              
     988              $C$DW$T$26      .dwtag  DW_TAG_union_type
     989                      .dwattr $C$DW$T$26, DW_AT_name("GPACTRL_REG")
     990                      .dwattr $C$DW$T$26, DW_AT_byte_size(0x02)
     991              $C$DW$69        .dwtag  DW_TAG_member
     992                      .dwattr $C$DW$69, DW_AT_type(*$C$DW$T$21)
     993                      .dwattr $C$DW$69, DW_AT_name("all")
     994                      .dwattr $C$DW$69, DW_AT_TI_symbol_name("_all")
     995                      .dwattr $C$DW$69, DW_AT_data_member_location[DW_OP_plus_uconst 0x0]
     996                      .dwattr $C$DW$69, DW_AT_accessibility(DW_ACCESS_public)
     997              $C$DW$70        .dwtag  DW_TAG_member
     998                      .dwattr $C$DW$70, DW_AT_type(*$C$DW$T$25)
     999                      .dwattr $C$DW$70, DW_AT_name("bit")
    1000                      .dwattr $C$DW$70, DW_AT_TI_symbol_name("_bit")
    1001                      .dwattr $C$DW$70, DW_AT_data_member_location[DW_OP_plus_uconst 0x0]
    1002                      .dwattr $C$DW$70, DW_AT_accessibility(DW_ACCESS_public)
    1003                      .dwendtag $C$DW$T$26
    1004              
    1005              
    1006              $C$DW$T$27      .dwtag  DW_TAG_structure_type
    1007                      .dwattr $C$DW$T$27, DW_AT_name("GPADAT_BITS")
    1008                      .dwattr $C$DW$T$27, DW_AT_byte_size(0x02)
    1009              $C$DW$71        .dwtag  DW_TAG_member
    1010                      .dwattr $C$DW$71, DW_AT_type(*$C$DW$T$19)
    1011                      .dwattr $C$DW$71, DW_AT_name("GPIO0")
    1012                      .dwattr $C$DW$71, DW_AT_TI_symbol_name("_GPIO0")
    1013                      .dwattr $C$DW$71, DW_AT_bit_offset(0x0f), DW_AT_bit_size(0x01)
    1014                      .dwattr $C$DW$71, DW_AT_data_member_location[DW_OP_plus_uconst 0x0]
    1015                      .dwattr $C$DW$71, DW_AT_accessibility(DW_ACCESS_public)
    1016              $C$DW$72        .dwtag  DW_TAG_member
    1017                      .dwattr $C$DW$72, DW_AT_type(*$C$DW$T$19)
    1018                      .dwattr $C$DW$72, DW_AT_name("GPIO1")
    1019                      .dwattr $C$DW$72, DW_AT_TI_symbol_name("_GPIO1")
    1020                      .dwattr $C$DW$72, DW_AT_bit_offset(0x0e), DW_AT_bit_size(0x01)
    1021                      .dwattr $C$DW$72, DW_AT_data_member_location[DW_OP_plus_uconst 0x0]
    1022                      .dwattr $C$DW$72, DW_AT_accessibility(DW_ACCESS_public)
    1023              $C$DW$73        .dwtag  DW_TAG_member
    1024                      .dwattr $C$DW$73, DW_AT_type(*$C$DW$T$19)
    1025                      .dwattr $C$DW$73, DW_AT_name("GPIO2")
    1026                      .dwattr $C$DW$73, DW_AT_TI_symbol_name("_GPIO2")
    1027                      .dwattr $C$DW$73, DW_AT_bit_offset(0x0d), DW_AT_bit_size(0x01)
    1028                      .dwattr $C$DW$73, DW_AT_data_member_location[DW_OP_plus_uconst 0x0]
    1029                      .dwattr $C$DW$73, DW_AT_accessibility(DW_ACCESS_public)
    1030              $C$DW$74        .dwtag  DW_TAG_member
    1031                      .dwattr $C$DW$74, DW_AT_type(*$C$DW$T$19)
    1032                      .dwattr $C$DW$74, DW_AT_name("GPIO3")
    1033                      .dwattr $C$DW$74, DW_AT_TI_symbol_name("_GPIO3")
    1034                      .dwattr $C$DW$74, DW_AT_bit_offset(0x0c), DW_AT_bit_size(0x01)
    1035                      .dwattr $C$DW$74, DW_AT_data_member_location[DW_OP_plus_uconst 0x0]
    1036                      .dwattr $C$DW$74, DW_AT_accessibility(DW_ACCESS_public)
    1037              $C$DW$75        .dwtag  DW_TAG_member
    1038                      .dwattr $C$DW$75, DW_AT_type(*$C$DW$T$19)
    1039                      .dwattr $C$DW$75, DW_AT_name("GPIO4")
TMS320C2000 Assembler PC v6.2.7 Thu Jul 02 08:31:31 2015

Tools Copyright (c) 1996-2014 Texas Instruments Incorporated
C:\Users\Tester\AppData\Local\Temp\0496010                           PAGE   21

    1040                      .dwattr $C$DW$75, DW_AT_TI_symbol_name("_GPIO4")
    1041                      .dwattr $C$DW$75, DW_AT_bit_offset(0x0b), DW_AT_bit_size(0x01)
    1042                      .dwattr $C$DW$75, DW_AT_data_member_location[DW_OP_plus_uconst 0x0]
    1043                      .dwattr $C$DW$75, DW_AT_accessibility(DW_ACCESS_public)
    1044              $C$DW$76        .dwtag  DW_TAG_member
    1045                      .dwattr $C$DW$76, DW_AT_type(*$C$DW$T$19)
    1046                      .dwattr $C$DW$76, DW_AT_name("GPIO5")
    1047                      .dwattr $C$DW$76, DW_AT_TI_symbol_name("_GPIO5")
    1048                      .dwattr $C$DW$76, DW_AT_bit_offset(0x0a), DW_AT_bit_size(0x01)
    1049                      .dwattr $C$DW$76, DW_AT_data_member_location[DW_OP_plus_uconst 0x0]
    1050                      .dwattr $C$DW$76, DW_AT_accessibility(DW_ACCESS_public)
    1051              $C$DW$77        .dwtag  DW_TAG_member
    1052                      .dwattr $C$DW$77, DW_AT_type(*$C$DW$T$19)
    1053                      .dwattr $C$DW$77, DW_AT_name("GPIO6")
    1054                      .dwattr $C$DW$77, DW_AT_TI_symbol_name("_GPIO6")
    1055                      .dwattr $C$DW$77, DW_AT_bit_offset(0x09), DW_AT_bit_size(0x01)
    1056                      .dwattr $C$DW$77, DW_AT_data_member_location[DW_OP_plus_uconst 0x0]
    1057                      .dwattr $C$DW$77, DW_AT_accessibility(DW_ACCESS_public)
    1058              $C$DW$78        .dwtag  DW_TAG_member
    1059                      .dwattr $C$DW$78, DW_AT_type(*$C$DW$T$19)
    1060                      .dwattr $C$DW$78, DW_AT_name("GPIO7")
    1061                      .dwattr $C$DW$78, DW_AT_TI_symbol_name("_GPIO7")
    1062                      .dwattr $C$DW$78, DW_AT_bit_offset(0x08), DW_AT_bit_size(0x01)
    1063                      .dwattr $C$DW$78, DW_AT_data_member_location[DW_OP_plus_uconst 0x0]
    1064                      .dwattr $C$DW$78, DW_AT_accessibility(DW_ACCESS_public)
    1065              $C$DW$79        .dwtag  DW_TAG_member
    1066                      .dwattr $C$DW$79, DW_AT_type(*$C$DW$T$19)
    1067                      .dwattr $C$DW$79, DW_AT_name("GPIO8")
    1068                      .dwattr $C$DW$79, DW_AT_TI_symbol_name("_GPIO8")
    1069                      .dwattr $C$DW$79, DW_AT_bit_offset(0x07), DW_AT_bit_size(0x01)
    1070                      .dwattr $C$DW$79, DW_AT_data_member_location[DW_OP_plus_uconst 0x0]
    1071                      .dwattr $C$DW$79, DW_AT_accessibility(DW_ACCESS_public)
    1072              $C$DW$80        .dwtag  DW_TAG_member
    1073                      .dwattr $C$DW$80, DW_AT_type(*$C$DW$T$19)
    1074                      .dwattr $C$DW$80, DW_AT_name("GPIO9")
    1075                      .dwattr $C$DW$80, DW_AT_TI_symbol_name("_GPIO9")
    1076                      .dwattr $C$DW$80, DW_AT_bit_offset(0x06), DW_AT_bit_size(0x01)
    1077                      .dwattr $C$DW$80, DW_AT_data_member_location[DW_OP_plus_uconst 0x0]
    1078                      .dwattr $C$DW$80, DW_AT_accessibility(DW_ACCESS_public)
    1079              $C$DW$81        .dwtag  DW_TAG_member
    1080                      .dwattr $C$DW$81, DW_AT_type(*$C$DW$T$19)
    1081                      .dwattr $C$DW$81, DW_AT_name("GPIO10")
    1082                      .dwattr $C$DW$81, DW_AT_TI_symbol_name("_GPIO10")
    1083                      .dwattr $C$DW$81, DW_AT_bit_offset(0x05), DW_AT_bit_size(0x01)
    1084                      .dwattr $C$DW$81, DW_AT_data_member_location[DW_OP_plus_uconst 0x0]
    1085                      .dwattr $C$DW$81, DW_AT_accessibility(DW_ACCESS_public)
    1086              $C$DW$82        .dwtag  DW_TAG_member
    1087                      .dwattr $C$DW$82, DW_AT_type(*$C$DW$T$19)
    1088                      .dwattr $C$DW$82, DW_AT_name("GPIO11")
    1089                      .dwattr $C$DW$82, DW_AT_TI_symbol_name("_GPIO11")
    1090                      .dwattr $C$DW$82, DW_AT_bit_offset(0x04), DW_AT_bit_size(0x01)
    1091                      .dwattr $C$DW$82, DW_AT_data_member_location[DW_OP_plus_uconst 0x0]
    1092                      .dwattr $C$DW$82, DW_AT_accessibility(DW_ACCESS_public)
    1093              $C$DW$83        .dwtag  DW_TAG_member
    1094                      .dwattr $C$DW$83, DW_AT_type(*$C$DW$T$19)
TMS320C2000 Assembler PC v6.2.7 Thu Jul 02 08:31:31 2015

Tools Copyright (c) 1996-2014 Texas Instruments Incorporated
C:\Users\Tester\AppData\Local\Temp\0496010                           PAGE   22

    1095                      .dwattr $C$DW$83, DW_AT_name("GPIO12")
    1096                      .dwattr $C$DW$83, DW_AT_TI_symbol_name("_GPIO12")
    1097                      .dwattr $C$DW$83, DW_AT_bit_offset(0x03), DW_AT_bit_size(0x01)
    1098                      .dwattr $C$DW$83, DW_AT_data_member_location[DW_OP_plus_uconst 0x0]
    1099                      .dwattr $C$DW$83, DW_AT_accessibility(DW_ACCESS_public)
    1100              $C$DW$84        .dwtag  DW_TAG_member
    1101                      .dwattr $C$DW$84, DW_AT_type(*$C$DW$T$19)
    1102                      .dwattr $C$DW$84, DW_AT_name("GPIO13")
    1103                      .dwattr $C$DW$84, DW_AT_TI_symbol_name("_GPIO13")
    1104                      .dwattr $C$DW$84, DW_AT_bit_offset(0x02), DW_AT_bit_size(0x01)
    1105                      .dwattr $C$DW$84, DW_AT_data_member_location[DW_OP_plus_uconst 0x0]
    1106                      .dwattr $C$DW$84, DW_AT_accessibility(DW_ACCESS_public)
    1107              $C$DW$85        .dwtag  DW_TAG_member
    1108                      .dwattr $C$DW$85, DW_AT_type(*$C$DW$T$19)
    1109                      .dwattr $C$DW$85, DW_AT_name("GPIO14")
    1110                      .dwattr $C$DW$85, DW_AT_TI_symbol_name("_GPIO14")
    1111                      .dwattr $C$DW$85, DW_AT_bit_offset(0x01), DW_AT_bit_size(0x01)
    1112                      .dwattr $C$DW$85, DW_AT_data_member_location[DW_OP_plus_uconst 0x0]
    1113                      .dwattr $C$DW$85, DW_AT_accessibility(DW_ACCESS_public)
    1114              $C$DW$86        .dwtag  DW_TAG_member
    1115                      .dwattr $C$DW$86, DW_AT_type(*$C$DW$T$19)
    1116                      .dwattr $C$DW$86, DW_AT_name("GPIO15")
    1117                      .dwattr $C$DW$86, DW_AT_TI_symbol_name("_GPIO15")
    1118                      .dwattr $C$DW$86, DW_AT_bit_offset(0x00), DW_AT_bit_size(0x01)
    1119                      .dwattr $C$DW$86, DW_AT_data_member_location[DW_OP_plus_uconst 0x0]
    1120                      .dwattr $C$DW$86, DW_AT_accessibility(DW_ACCESS_public)
    1121              $C$DW$87        .dwtag  DW_TAG_member
    1122                      .dwattr $C$DW$87, DW_AT_type(*$C$DW$T$19)
    1123                      .dwattr $C$DW$87, DW_AT_name("GPIO16")
    1124                      .dwattr $C$DW$87, DW_AT_TI_symbol_name("_GPIO16")
    1125                      .dwattr $C$DW$87, DW_AT_bit_offset(0x0f), DW_AT_bit_size(0x01)
    1126                      .dwattr $C$DW$87, DW_AT_data_member_location[DW_OP_plus_uconst 0x1]
    1127                      .dwattr $C$DW$87, DW_AT_accessibility(DW_ACCESS_public)
    1128              $C$DW$88        .dwtag  DW_TAG_member
    1129                      .dwattr $C$DW$88, DW_AT_type(*$C$DW$T$19)
    1130                      .dwattr $C$DW$88, DW_AT_name("GPIO17")
    1131                      .dwattr $C$DW$88, DW_AT_TI_symbol_name("_GPIO17")
    1132                      .dwattr $C$DW$88, DW_AT_bit_offset(0x0e), DW_AT_bit_size(0x01)
    1133                      .dwattr $C$DW$88, DW_AT_data_member_location[DW_OP_plus_uconst 0x1]
    1134                      .dwattr $C$DW$88, DW_AT_accessibility(DW_ACCESS_public)
    1135              $C$DW$89        .dwtag  DW_TAG_member
    1136                      .dwattr $C$DW$89, DW_AT_type(*$C$DW$T$19)
    1137                      .dwattr $C$DW$89, DW_AT_name("GPIO18")
    1138                      .dwattr $C$DW$89, DW_AT_TI_symbol_name("_GPIO18")
    1139                      .dwattr $C$DW$89, DW_AT_bit_offset(0x0d), DW_AT_bit_size(0x01)
    1140                      .dwattr $C$DW$89, DW_AT_data_member_location[DW_OP_plus_uconst 0x1]
    1141                      .dwattr $C$DW$89, DW_AT_accessibility(DW_ACCESS_public)
    1142              $C$DW$90        .dwtag  DW_TAG_member
    1143                      .dwattr $C$DW$90, DW_AT_type(*$C$DW$T$19)
    1144                      .dwattr $C$DW$90, DW_AT_name("GPIO19")
    1145                      .dwattr $C$DW$90, DW_AT_TI_symbol_name("_GPIO19")
    1146                      .dwattr $C$DW$90, DW_AT_bit_offset(0x0c), DW_AT_bit_size(0x01)
    1147                      .dwattr $C$DW$90, DW_AT_data_member_location[DW_OP_plus_uconst 0x1]
    1148                      .dwattr $C$DW$90, DW_AT_accessibility(DW_ACCESS_public)
    1149              $C$DW$91        .dwtag  DW_TAG_member
TMS320C2000 Assembler PC v6.2.7 Thu Jul 02 08:31:31 2015

Tools Copyright (c) 1996-2014 Texas Instruments Incorporated
C:\Users\Tester\AppData\Local\Temp\0496010                           PAGE   23

    1150                      .dwattr $C$DW$91, DW_AT_type(*$C$DW$T$19)
    1151                      .dwattr $C$DW$91, DW_AT_name("GPIO20")
    1152                      .dwattr $C$DW$91, DW_AT_TI_symbol_name("_GPIO20")
    1153                      .dwattr $C$DW$91, DW_AT_bit_offset(0x0b), DW_AT_bit_size(0x01)
    1154                      .dwattr $C$DW$91, DW_AT_data_member_location[DW_OP_plus_uconst 0x1]
    1155                      .dwattr $C$DW$91, DW_AT_accessibility(DW_ACCESS_public)
    1156              $C$DW$92        .dwtag  DW_TAG_member
    1157                      .dwattr $C$DW$92, DW_AT_type(*$C$DW$T$19)
    1158                      .dwattr $C$DW$92, DW_AT_name("GPIO21")
    1159                      .dwattr $C$DW$92, DW_AT_TI_symbol_name("_GPIO21")
    1160                      .dwattr $C$DW$92, DW_AT_bit_offset(0x0a), DW_AT_bit_size(0x01)
    1161                      .dwattr $C$DW$92, DW_AT_data_member_location[DW_OP_plus_uconst 0x1]
    1162                      .dwattr $C$DW$92, DW_AT_accessibility(DW_ACCESS_public)
    1163              $C$DW$93        .dwtag  DW_TAG_member
    1164                      .dwattr $C$DW$93, DW_AT_type(*$C$DW$T$19)
    1165                      .dwattr $C$DW$93, DW_AT_name("GPIO22")
    1166                      .dwattr $C$DW$93, DW_AT_TI_symbol_name("_GPIO22")
    1167                      .dwattr $C$DW$93, DW_AT_bit_offset(0x09), DW_AT_bit_size(0x01)
    1168                      .dwattr $C$DW$93, DW_AT_data_member_location[DW_OP_plus_uconst 0x1]
    1169                      .dwattr $C$DW$93, DW_AT_accessibility(DW_ACCESS_public)
    1170              $C$DW$94        .dwtag  DW_TAG_member
    1171                      .dwattr $C$DW$94, DW_AT_type(*$C$DW$T$19)
    1172                      .dwattr $C$DW$94, DW_AT_name("GPIO23")
    1173                      .dwattr $C$DW$94, DW_AT_TI_symbol_name("_GPIO23")
    1174                      .dwattr $C$DW$94, DW_AT_bit_offset(0x08), DW_AT_bit_size(0x01)
    1175                      .dwattr $C$DW$94, DW_AT_data_member_location[DW_OP_plus_uconst 0x1]
    1176                      .dwattr $C$DW$94, DW_AT_accessibility(DW_ACCESS_public)
    1177              $C$DW$95        .dwtag  DW_TAG_member
    1178                      .dwattr $C$DW$95, DW_AT_type(*$C$DW$T$19)
    1179                      .dwattr $C$DW$95, DW_AT_name("GPIO24")
    1180                      .dwattr $C$DW$95, DW_AT_TI_symbol_name("_GPIO24")
    1181                      .dwattr $C$DW$95, DW_AT_bit_offset(0x07), DW_AT_bit_size(0x01)
    1182                      .dwattr $C$DW$95, DW_AT_data_member_location[DW_OP_plus_uconst 0x1]
    1183                      .dwattr $C$DW$95, DW_AT_accessibility(DW_ACCESS_public)
    1184              $C$DW$96        .dwtag  DW_TAG_member
    1185                      .dwattr $C$DW$96, DW_AT_type(*$C$DW$T$19)
    1186                      .dwattr $C$DW$96, DW_AT_name("GPIO25")
    1187                      .dwattr $C$DW$96, DW_AT_TI_symbol_name("_GPIO25")
    1188                      .dwattr $C$DW$96, DW_AT_bit_offset(0x06), DW_AT_bit_size(0x01)
    1189                      .dwattr $C$DW$96, DW_AT_data_member_location[DW_OP_plus_uconst 0x1]
    1190                      .dwattr $C$DW$96, DW_AT_accessibility(DW_ACCESS_public)
    1191              $C$DW$97        .dwtag  DW_TAG_member
    1192                      .dwattr $C$DW$97, DW_AT_type(*$C$DW$T$19)
    1193                      .dwattr $C$DW$97, DW_AT_name("GPIO26")
    1194                      .dwattr $C$DW$97, DW_AT_TI_symbol_name("_GPIO26")
    1195                      .dwattr $C$DW$97, DW_AT_bit_offset(0x05), DW_AT_bit_size(0x01)
    1196                      .dwattr $C$DW$97, DW_AT_data_member_location[DW_OP_plus_uconst 0x1]
    1197                      .dwattr $C$DW$97, DW_AT_accessibility(DW_ACCESS_public)
    1198              $C$DW$98        .dwtag  DW_TAG_member
    1199                      .dwattr $C$DW$98, DW_AT_type(*$C$DW$T$19)
    1200                      .dwattr $C$DW$98, DW_AT_name("GPIO27")
    1201                      .dwattr $C$DW$98, DW_AT_TI_symbol_name("_GPIO27")
    1202                      .dwattr $C$DW$98, DW_AT_bit_offset(0x04), DW_AT_bit_size(0x01)
    1203                      .dwattr $C$DW$98, DW_AT_data_member_location[DW_OP_plus_uconst 0x1]
    1204                      .dwattr $C$DW$98, DW_AT_accessibility(DW_ACCESS_public)
TMS320C2000 Assembler PC v6.2.7 Thu Jul 02 08:31:31 2015

Tools Copyright (c) 1996-2014 Texas Instruments Incorporated
C:\Users\Tester\AppData\Local\Temp\0496010                           PAGE   24

    1205              $C$DW$99        .dwtag  DW_TAG_member
    1206                      .dwattr $C$DW$99, DW_AT_type(*$C$DW$T$19)
    1207                      .dwattr $C$DW$99, DW_AT_name("GPIO28")
    1208                      .dwattr $C$DW$99, DW_AT_TI_symbol_name("_GPIO28")
    1209                      .dwattr $C$DW$99, DW_AT_bit_offset(0x03), DW_AT_bit_size(0x01)
    1210                      .dwattr $C$DW$99, DW_AT_data_member_location[DW_OP_plus_uconst 0x1]
    1211                      .dwattr $C$DW$99, DW_AT_accessibility(DW_ACCESS_public)
    1212              $C$DW$100       .dwtag  DW_TAG_member
    1213                      .dwattr $C$DW$100, DW_AT_type(*$C$DW$T$19)
    1214                      .dwattr $C$DW$100, DW_AT_name("GPIO29")
    1215                      .dwattr $C$DW$100, DW_AT_TI_symbol_name("_GPIO29")
    1216                      .dwattr $C$DW$100, DW_AT_bit_offset(0x02), DW_AT_bit_size(0x01)
    1217                      .dwattr $C$DW$100, DW_AT_data_member_location[DW_OP_plus_uconst 0x1]
    1218                      .dwattr $C$DW$100, DW_AT_accessibility(DW_ACCESS_public)
    1219              $C$DW$101       .dwtag  DW_TAG_member
    1220                      .dwattr $C$DW$101, DW_AT_type(*$C$DW$T$19)
    1221                      .dwattr $C$DW$101, DW_AT_name("GPIO30")
    1222                      .dwattr $C$DW$101, DW_AT_TI_symbol_name("_GPIO30")
    1223                      .dwattr $C$DW$101, DW_AT_bit_offset(0x01), DW_AT_bit_size(0x01)
    1224                      .dwattr $C$DW$101, DW_AT_data_member_location[DW_OP_plus_uconst 0x1]
    1225                      .dwattr $C$DW$101, DW_AT_accessibility(DW_ACCESS_public)
    1226              $C$DW$102       .dwtag  DW_TAG_member
    1227                      .dwattr $C$DW$102, DW_AT_type(*$C$DW$T$19)
    1228                      .dwattr $C$DW$102, DW_AT_name("GPIO31")
    1229                      .dwattr $C$DW$102, DW_AT_TI_symbol_name("_GPIO31")
    1230                      .dwattr $C$DW$102, DW_AT_bit_offset(0x00), DW_AT_bit_size(0x01)
    1231                      .dwattr $C$DW$102, DW_AT_data_member_location[DW_OP_plus_uconst 0x1]
    1232                      .dwattr $C$DW$102, DW_AT_accessibility(DW_ACCESS_public)
    1233                      .dwendtag $C$DW$T$27
    1234              
    1235              
    1236              $C$DW$T$28      .dwtag  DW_TAG_union_type
    1237                      .dwattr $C$DW$T$28, DW_AT_name("GPADAT_REG")
    1238                      .dwattr $C$DW$T$28, DW_AT_byte_size(0x02)
    1239              $C$DW$103       .dwtag  DW_TAG_member
    1240                      .dwattr $C$DW$103, DW_AT_type(*$C$DW$T$21)
    1241                      .dwattr $C$DW$103, DW_AT_name("all")
    1242                      .dwattr $C$DW$103, DW_AT_TI_symbol_name("_all")
    1243                      .dwattr $C$DW$103, DW_AT_data_member_location[DW_OP_plus_uconst 0x0]
    1244                      .dwattr $C$DW$103, DW_AT_accessibility(DW_ACCESS_public)
    1245              $C$DW$104       .dwtag  DW_TAG_member
    1246                      .dwattr $C$DW$104, DW_AT_type(*$C$DW$T$27)
    1247                      .dwattr $C$DW$104, DW_AT_name("bit")
    1248                      .dwattr $C$DW$104, DW_AT_TI_symbol_name("_bit")
    1249                      .dwattr $C$DW$104, DW_AT_data_member_location[DW_OP_plus_uconst 0x0]
    1250                      .dwattr $C$DW$104, DW_AT_accessibility(DW_ACCESS_public)
    1251                      .dwendtag $C$DW$T$28
    1252              
    1253              
    1254              $C$DW$T$29      .dwtag  DW_TAG_structure_type
    1255                      .dwattr $C$DW$T$29, DW_AT_name("GPB1_BITS")
    1256                      .dwattr $C$DW$T$29, DW_AT_byte_size(0x02)
    1257              $C$DW$105       .dwtag  DW_TAG_member
    1258                      .dwattr $C$DW$105, DW_AT_type(*$C$DW$T$19)
    1259                      .dwattr $C$DW$105, DW_AT_name("GPIO32")
TMS320C2000 Assembler PC v6.2.7 Thu Jul 02 08:31:31 2015

Tools Copyright (c) 1996-2014 Texas Instruments Incorporated
C:\Users\Tester\AppData\Local\Temp\0496010                           PAGE   25

    1260                      .dwattr $C$DW$105, DW_AT_TI_symbol_name("_GPIO32")
    1261                      .dwattr $C$DW$105, DW_AT_bit_offset(0x0e), DW_AT_bit_size(0x02)
    1262                      .dwattr $C$DW$105, DW_AT_data_member_location[DW_OP_plus_uconst 0x0]
    1263                      .dwattr $C$DW$105, DW_AT_accessibility(DW_ACCESS_public)
    1264              $C$DW$106       .dwtag  DW_TAG_member
    1265                      .dwattr $C$DW$106, DW_AT_type(*$C$DW$T$19)
    1266                      .dwattr $C$DW$106, DW_AT_name("GPIO33")
    1267                      .dwattr $C$DW$106, DW_AT_TI_symbol_name("_GPIO33")
    1268                      .dwattr $C$DW$106, DW_AT_bit_offset(0x0c), DW_AT_bit_size(0x02)
    1269                      .dwattr $C$DW$106, DW_AT_data_member_location[DW_OP_plus_uconst 0x0]
    1270                      .dwattr $C$DW$106, DW_AT_accessibility(DW_ACCESS_public)
    1271              $C$DW$107       .dwtag  DW_TAG_member
    1272                      .dwattr $C$DW$107, DW_AT_type(*$C$DW$T$19)
    1273                      .dwattr $C$DW$107, DW_AT_name("GPIO34")
    1274                      .dwattr $C$DW$107, DW_AT_TI_symbol_name("_GPIO34")
    1275                      .dwattr $C$DW$107, DW_AT_bit_offset(0x0a), DW_AT_bit_size(0x02)
    1276                      .dwattr $C$DW$107, DW_AT_data_member_location[DW_OP_plus_uconst 0x0]
    1277                      .dwattr $C$DW$107, DW_AT_accessibility(DW_ACCESS_public)
    1278              $C$DW$108       .dwtag  DW_TAG_member
    1279                      .dwattr $C$DW$108, DW_AT_type(*$C$DW$T$19)
    1280                      .dwattr $C$DW$108, DW_AT_name("GPIO35")
    1281                      .dwattr $C$DW$108, DW_AT_TI_symbol_name("_GPIO35")
    1282                      .dwattr $C$DW$108, DW_AT_bit_offset(0x08), DW_AT_bit_size(0x02)
    1283                      .dwattr $C$DW$108, DW_AT_data_member_location[DW_OP_plus_uconst 0x0]
    1284                      .dwattr $C$DW$108, DW_AT_accessibility(DW_ACCESS_public)
    1285              $C$DW$109       .dwtag  DW_TAG_member
    1286                      .dwattr $C$DW$109, DW_AT_type(*$C$DW$T$19)
    1287                      .dwattr $C$DW$109, DW_AT_name("GPIO36")
    1288                      .dwattr $C$DW$109, DW_AT_TI_symbol_name("_GPIO36")
    1289                      .dwattr $C$DW$109, DW_AT_bit_offset(0x06), DW_AT_bit_size(0x02)
    1290                      .dwattr $C$DW$109, DW_AT_data_member_location[DW_OP_plus_uconst 0x0]
    1291                      .dwattr $C$DW$109, DW_AT_accessibility(DW_ACCESS_public)
    1292              $C$DW$110       .dwtag  DW_TAG_member
    1293                      .dwattr $C$DW$110, DW_AT_type(*$C$DW$T$19)
    1294                      .dwattr $C$DW$110, DW_AT_name("GPIO37")
    1295                      .dwattr $C$DW$110, DW_AT_TI_symbol_name("_GPIO37")
    1296                      .dwattr $C$DW$110, DW_AT_bit_offset(0x04), DW_AT_bit_size(0x02)
    1297                      .dwattr $C$DW$110, DW_AT_data_member_location[DW_OP_plus_uconst 0x0]
    1298                      .dwattr $C$DW$110, DW_AT_accessibility(DW_ACCESS_public)
    1299              $C$DW$111       .dwtag  DW_TAG_member
    1300                      .dwattr $C$DW$111, DW_AT_type(*$C$DW$T$19)
    1301                      .dwattr $C$DW$111, DW_AT_name("GPIO38")
    1302                      .dwattr $C$DW$111, DW_AT_TI_symbol_name("_GPIO38")
    1303                      .dwattr $C$DW$111, DW_AT_bit_offset(0x02), DW_AT_bit_size(0x02)
    1304                      .dwattr $C$DW$111, DW_AT_data_member_location[DW_OP_plus_uconst 0x0]
    1305                      .dwattr $C$DW$111, DW_AT_accessibility(DW_ACCESS_public)
    1306              $C$DW$112       .dwtag  DW_TAG_member
    1307                      .dwattr $C$DW$112, DW_AT_type(*$C$DW$T$19)
    1308                      .dwattr $C$DW$112, DW_AT_name("GPIO39")
    1309                      .dwattr $C$DW$112, DW_AT_TI_symbol_name("_GPIO39")
    1310                      .dwattr $C$DW$112, DW_AT_bit_offset(0x00), DW_AT_bit_size(0x02)
    1311                      .dwattr $C$DW$112, DW_AT_data_member_location[DW_OP_plus_uconst 0x0]
    1312                      .dwattr $C$DW$112, DW_AT_accessibility(DW_ACCESS_public)
    1313              $C$DW$113       .dwtag  DW_TAG_member
    1314                      .dwattr $C$DW$113, DW_AT_type(*$C$DW$T$19)
TMS320C2000 Assembler PC v6.2.7 Thu Jul 02 08:31:31 2015

Tools Copyright (c) 1996-2014 Texas Instruments Incorporated
C:\Users\Tester\AppData\Local\Temp\0496010                           PAGE   26

    1315                      .dwattr $C$DW$113, DW_AT_name("GPIO40")
    1316                      .dwattr $C$DW$113, DW_AT_TI_symbol_name("_GPIO40")
    1317                      .dwattr $C$DW$113, DW_AT_bit_offset(0x0e), DW_AT_bit_size(0x02)
    1318                      .dwattr $C$DW$113, DW_AT_data_member_location[DW_OP_plus_uconst 0x1]
    1319                      .dwattr $C$DW$113, DW_AT_accessibility(DW_ACCESS_public)
    1320              $C$DW$114       .dwtag  DW_TAG_member
    1321                      .dwattr $C$DW$114, DW_AT_type(*$C$DW$T$19)
    1322                      .dwattr $C$DW$114, DW_AT_name("GPIO41")
    1323                      .dwattr $C$DW$114, DW_AT_TI_symbol_name("_GPIO41")
    1324                      .dwattr $C$DW$114, DW_AT_bit_offset(0x0c), DW_AT_bit_size(0x02)
    1325                      .dwattr $C$DW$114, DW_AT_data_member_location[DW_OP_plus_uconst 0x1]
    1326                      .dwattr $C$DW$114, DW_AT_accessibility(DW_ACCESS_public)
    1327              $C$DW$115       .dwtag  DW_TAG_member
    1328                      .dwattr $C$DW$115, DW_AT_type(*$C$DW$T$19)
    1329                      .dwattr $C$DW$115, DW_AT_name("GPIO42")
    1330                      .dwattr $C$DW$115, DW_AT_TI_symbol_name("_GPIO42")
    1331                      .dwattr $C$DW$115, DW_AT_bit_offset(0x0a), DW_AT_bit_size(0x02)
    1332                      .dwattr $C$DW$115, DW_AT_data_member_location[DW_OP_plus_uconst 0x1]
    1333                      .dwattr $C$DW$115, DW_AT_accessibility(DW_ACCESS_public)
    1334              $C$DW$116       .dwtag  DW_TAG_member
    1335                      .dwattr $C$DW$116, DW_AT_type(*$C$DW$T$19)
    1336                      .dwattr $C$DW$116, DW_AT_name("GPIO43")
    1337                      .dwattr $C$DW$116, DW_AT_TI_symbol_name("_GPIO43")
    1338                      .dwattr $C$DW$116, DW_AT_bit_offset(0x08), DW_AT_bit_size(0x02)
    1339                      .dwattr $C$DW$116, DW_AT_data_member_location[DW_OP_plus_uconst 0x1]
    1340                      .dwattr $C$DW$116, DW_AT_accessibility(DW_ACCESS_public)
    1341              $C$DW$117       .dwtag  DW_TAG_member
    1342                      .dwattr $C$DW$117, DW_AT_type(*$C$DW$T$19)
    1343                      .dwattr $C$DW$117, DW_AT_name("GPIO44")
    1344                      .dwattr $C$DW$117, DW_AT_TI_symbol_name("_GPIO44")
    1345                      .dwattr $C$DW$117, DW_AT_bit_offset(0x06), DW_AT_bit_size(0x02)
    1346                      .dwattr $C$DW$117, DW_AT_data_member_location[DW_OP_plus_uconst 0x1]
    1347                      .dwattr $C$DW$117, DW_AT_accessibility(DW_ACCESS_public)
    1348              $C$DW$118       .dwtag  DW_TAG_member
    1349                      .dwattr $C$DW$118, DW_AT_type(*$C$DW$T$19)
    1350                      .dwattr $C$DW$118, DW_AT_name("GPIO45")
    1351                      .dwattr $C$DW$118, DW_AT_TI_symbol_name("_GPIO45")
    1352                      .dwattr $C$DW$118, DW_AT_bit_offset(0x04), DW_AT_bit_size(0x02)
    1353                      .dwattr $C$DW$118, DW_AT_data_member_location[DW_OP_plus_uconst 0x1]
    1354                      .dwattr $C$DW$118, DW_AT_accessibility(DW_ACCESS_public)
    1355              $C$DW$119       .dwtag  DW_TAG_member
    1356                      .dwattr $C$DW$119, DW_AT_type(*$C$DW$T$19)
    1357                      .dwattr $C$DW$119, DW_AT_name("GPIO46")
    1358                      .dwattr $C$DW$119, DW_AT_TI_symbol_name("_GPIO46")
    1359                      .dwattr $C$DW$119, DW_AT_bit_offset(0x02), DW_AT_bit_size(0x02)
    1360                      .dwattr $C$DW$119, DW_AT_data_member_location[DW_OP_plus_uconst 0x1]
    1361                      .dwattr $C$DW$119, DW_AT_accessibility(DW_ACCESS_public)
    1362              $C$DW$120       .dwtag  DW_TAG_member
    1363                      .dwattr $C$DW$120, DW_AT_type(*$C$DW$T$19)
    1364                      .dwattr $C$DW$120, DW_AT_name("GPIO47")
    1365                      .dwattr $C$DW$120, DW_AT_TI_symbol_name("_GPIO47")
    1366                      .dwattr $C$DW$120, DW_AT_bit_offset(0x00), DW_AT_bit_size(0x02)
    1367                      .dwattr $C$DW$120, DW_AT_data_member_location[DW_OP_plus_uconst 0x1]
    1368                      .dwattr $C$DW$120, DW_AT_accessibility(DW_ACCESS_public)
    1369                      .dwendtag $C$DW$T$29
TMS320C2000 Assembler PC v6.2.7 Thu Jul 02 08:31:31 2015

Tools Copyright (c) 1996-2014 Texas Instruments Incorporated
C:\Users\Tester\AppData\Local\Temp\0496010                           PAGE   27

    1370              
    1371              
    1372              $C$DW$T$30      .dwtag  DW_TAG_union_type
    1373                      .dwattr $C$DW$T$30, DW_AT_name("GPB1_REG")
    1374                      .dwattr $C$DW$T$30, DW_AT_byte_size(0x02)
    1375              $C$DW$121       .dwtag  DW_TAG_member
    1376                      .dwattr $C$DW$121, DW_AT_type(*$C$DW$T$21)
    1377                      .dwattr $C$DW$121, DW_AT_name("all")
    1378                      .dwattr $C$DW$121, DW_AT_TI_symbol_name("_all")
    1379                      .dwattr $C$DW$121, DW_AT_data_member_location[DW_OP_plus_uconst 0x0]
    1380                      .dwattr $C$DW$121, DW_AT_accessibility(DW_ACCESS_public)
    1381              $C$DW$122       .dwtag  DW_TAG_member
    1382                      .dwattr $C$DW$122, DW_AT_type(*$C$DW$T$29)
    1383                      .dwattr $C$DW$122, DW_AT_name("bit")
    1384                      .dwattr $C$DW$122, DW_AT_TI_symbol_name("_bit")
    1385                      .dwattr $C$DW$122, DW_AT_data_member_location[DW_OP_plus_uconst 0x0]
    1386                      .dwattr $C$DW$122, DW_AT_accessibility(DW_ACCESS_public)
    1387                      .dwendtag $C$DW$T$30
    1388              
    1389              
    1390              $C$DW$T$31      .dwtag  DW_TAG_structure_type
    1391                      .dwattr $C$DW$T$31, DW_AT_name("GPB2_BITS")
    1392                      .dwattr $C$DW$T$31, DW_AT_byte_size(0x02)
    1393              $C$DW$123       .dwtag  DW_TAG_member
    1394                      .dwattr $C$DW$123, DW_AT_type(*$C$DW$T$19)
    1395                      .dwattr $C$DW$123, DW_AT_name("GPIO48")
    1396                      .dwattr $C$DW$123, DW_AT_TI_symbol_name("_GPIO48")
    1397                      .dwattr $C$DW$123, DW_AT_bit_offset(0x0e), DW_AT_bit_size(0x02)
    1398                      .dwattr $C$DW$123, DW_AT_data_member_location[DW_OP_plus_uconst 0x0]
    1399                      .dwattr $C$DW$123, DW_AT_accessibility(DW_ACCESS_public)
    1400              $C$DW$124       .dwtag  DW_TAG_member
    1401                      .dwattr $C$DW$124, DW_AT_type(*$C$DW$T$19)
    1402                      .dwattr $C$DW$124, DW_AT_name("GPIO49")
    1403                      .dwattr $C$DW$124, DW_AT_TI_symbol_name("_GPIO49")
    1404                      .dwattr $C$DW$124, DW_AT_bit_offset(0x0c), DW_AT_bit_size(0x02)
    1405                      .dwattr $C$DW$124, DW_AT_data_member_location[DW_OP_plus_uconst 0x0]
    1406                      .dwattr $C$DW$124, DW_AT_accessibility(DW_ACCESS_public)
    1407              $C$DW$125       .dwtag  DW_TAG_member
    1408                      .dwattr $C$DW$125, DW_AT_type(*$C$DW$T$19)
    1409                      .dwattr $C$DW$125, DW_AT_name("GPIO50")
    1410                      .dwattr $C$DW$125, DW_AT_TI_symbol_name("_GPIO50")
    1411                      .dwattr $C$DW$125, DW_AT_bit_offset(0x0a), DW_AT_bit_size(0x02)
    1412                      .dwattr $C$DW$125, DW_AT_data_member_location[DW_OP_plus_uconst 0x0]
    1413                      .dwattr $C$DW$125, DW_AT_accessibility(DW_ACCESS_public)
    1414              $C$DW$126       .dwtag  DW_TAG_member
    1415                      .dwattr $C$DW$126, DW_AT_type(*$C$DW$T$19)
    1416                      .dwattr $C$DW$126, DW_AT_name("GPIO51")
    1417                      .dwattr $C$DW$126, DW_AT_TI_symbol_name("_GPIO51")
    1418                      .dwattr $C$DW$126, DW_AT_bit_offset(0x08), DW_AT_bit_size(0x02)
    1419                      .dwattr $C$DW$126, DW_AT_data_member_location[DW_OP_plus_uconst 0x0]
    1420                      .dwattr $C$DW$126, DW_AT_accessibility(DW_ACCESS_public)
    1421              $C$DW$127       .dwtag  DW_TAG_member
    1422                      .dwattr $C$DW$127, DW_AT_type(*$C$DW$T$19)
    1423                      .dwattr $C$DW$127, DW_AT_name("GPIO52")
    1424                      .dwattr $C$DW$127, DW_AT_TI_symbol_name("_GPIO52")
TMS320C2000 Assembler PC v6.2.7 Thu Jul 02 08:31:31 2015

Tools Copyright (c) 1996-2014 Texas Instruments Incorporated
C:\Users\Tester\AppData\Local\Temp\0496010                           PAGE   28

    1425                      .dwattr $C$DW$127, DW_AT_bit_offset(0x06), DW_AT_bit_size(0x02)
    1426                      .dwattr $C$DW$127, DW_AT_data_member_location[DW_OP_plus_uconst 0x0]
    1427                      .dwattr $C$DW$127, DW_AT_accessibility(DW_ACCESS_public)
    1428              $C$DW$128       .dwtag  DW_TAG_member
    1429                      .dwattr $C$DW$128, DW_AT_type(*$C$DW$T$19)
    1430                      .dwattr $C$DW$128, DW_AT_name("GPIO53")
    1431                      .dwattr $C$DW$128, DW_AT_TI_symbol_name("_GPIO53")
    1432                      .dwattr $C$DW$128, DW_AT_bit_offset(0x04), DW_AT_bit_size(0x02)
    1433                      .dwattr $C$DW$128, DW_AT_data_member_location[DW_OP_plus_uconst 0x0]
    1434                      .dwattr $C$DW$128, DW_AT_accessibility(DW_ACCESS_public)
    1435              $C$DW$129       .dwtag  DW_TAG_member
    1436                      .dwattr $C$DW$129, DW_AT_type(*$C$DW$T$19)
    1437                      .dwattr $C$DW$129, DW_AT_name("GPIO54")
    1438                      .dwattr $C$DW$129, DW_AT_TI_symbol_name("_GPIO54")
    1439                      .dwattr $C$DW$129, DW_AT_bit_offset(0x02), DW_AT_bit_size(0x02)
    1440                      .dwattr $C$DW$129, DW_AT_data_member_location[DW_OP_plus_uconst 0x0]
    1441                      .dwattr $C$DW$129, DW_AT_accessibility(DW_ACCESS_public)
    1442              $C$DW$130       .dwtag  DW_TAG_member
    1443                      .dwattr $C$DW$130, DW_AT_type(*$C$DW$T$19)
    1444                      .dwattr $C$DW$130, DW_AT_name("GPIO55")
    1445                      .dwattr $C$DW$130, DW_AT_TI_symbol_name("_GPIO55")
    1446                      .dwattr $C$DW$130, DW_AT_bit_offset(0x00), DW_AT_bit_size(0x02)
    1447                      .dwattr $C$DW$130, DW_AT_data_member_location[DW_OP_plus_uconst 0x0]
    1448                      .dwattr $C$DW$130, DW_AT_accessibility(DW_ACCESS_public)
    1449              $C$DW$131       .dwtag  DW_TAG_member
    1450                      .dwattr $C$DW$131, DW_AT_type(*$C$DW$T$19)
    1451                      .dwattr $C$DW$131, DW_AT_name("GPIO56")
    1452                      .dwattr $C$DW$131, DW_AT_TI_symbol_name("_GPIO56")
    1453                      .dwattr $C$DW$131, DW_AT_bit_offset(0x0e), DW_AT_bit_size(0x02)
    1454                      .dwattr $C$DW$131, DW_AT_data_member_location[DW_OP_plus_uconst 0x1]
    1455                      .dwattr $C$DW$131, DW_AT_accessibility(DW_ACCESS_public)
    1456              $C$DW$132       .dwtag  DW_TAG_member
    1457                      .dwattr $C$DW$132, DW_AT_type(*$C$DW$T$19)
    1458                      .dwattr $C$DW$132, DW_AT_name("GPIO57")
    1459                      .dwattr $C$DW$132, DW_AT_TI_symbol_name("_GPIO57")
    1460                      .dwattr $C$DW$132, DW_AT_bit_offset(0x0c), DW_AT_bit_size(0x02)
    1461                      .dwattr $C$DW$132, DW_AT_data_member_location[DW_OP_plus_uconst 0x1]
    1462                      .dwattr $C$DW$132, DW_AT_accessibility(DW_ACCESS_public)
    1463              $C$DW$133       .dwtag  DW_TAG_member
    1464                      .dwattr $C$DW$133, DW_AT_type(*$C$DW$T$19)
    1465                      .dwattr $C$DW$133, DW_AT_name("GPIO58")
    1466                      .dwattr $C$DW$133, DW_AT_TI_symbol_name("_GPIO58")
    1467                      .dwattr $C$DW$133, DW_AT_bit_offset(0x0a), DW_AT_bit_size(0x02)
    1468                      .dwattr $C$DW$133, DW_AT_data_member_location[DW_OP_plus_uconst 0x1]
    1469                      .dwattr $C$DW$133, DW_AT_accessibility(DW_ACCESS_public)
    1470              $C$DW$134       .dwtag  DW_TAG_member
    1471                      .dwattr $C$DW$134, DW_AT_type(*$C$DW$T$19)
    1472                      .dwattr $C$DW$134, DW_AT_name("GPIO59")
    1473                      .dwattr $C$DW$134, DW_AT_TI_symbol_name("_GPIO59")
    1474                      .dwattr $C$DW$134, DW_AT_bit_offset(0x08), DW_AT_bit_size(0x02)
    1475                      .dwattr $C$DW$134, DW_AT_data_member_location[DW_OP_plus_uconst 0x1]
    1476                      .dwattr $C$DW$134, DW_AT_accessibility(DW_ACCESS_public)
    1477              $C$DW$135       .dwtag  DW_TAG_member
    1478                      .dwattr $C$DW$135, DW_AT_type(*$C$DW$T$19)
    1479                      .dwattr $C$DW$135, DW_AT_name("GPIO60")
TMS320C2000 Assembler PC v6.2.7 Thu Jul 02 08:31:31 2015

Tools Copyright (c) 1996-2014 Texas Instruments Incorporated
C:\Users\Tester\AppData\Local\Temp\0496010                           PAGE   29

    1480                      .dwattr $C$DW$135, DW_AT_TI_symbol_name("_GPIO60")
    1481                      .dwattr $C$DW$135, DW_AT_bit_offset(0x06), DW_AT_bit_size(0x02)
    1482                      .dwattr $C$DW$135, DW_AT_data_member_location[DW_OP_plus_uconst 0x1]
    1483                      .dwattr $C$DW$135, DW_AT_accessibility(DW_ACCESS_public)
    1484              $C$DW$136       .dwtag  DW_TAG_member
    1485                      .dwattr $C$DW$136, DW_AT_type(*$C$DW$T$19)
    1486                      .dwattr $C$DW$136, DW_AT_name("GPIO61")
    1487                      .dwattr $C$DW$136, DW_AT_TI_symbol_name("_GPIO61")
    1488                      .dwattr $C$DW$136, DW_AT_bit_offset(0x04), DW_AT_bit_size(0x02)
    1489                      .dwattr $C$DW$136, DW_AT_data_member_location[DW_OP_plus_uconst 0x1]
    1490                      .dwattr $C$DW$136, DW_AT_accessibility(DW_ACCESS_public)
    1491              $C$DW$137       .dwtag  DW_TAG_member
    1492                      .dwattr $C$DW$137, DW_AT_type(*$C$DW$T$19)
    1493                      .dwattr $C$DW$137, DW_AT_name("GPIO62")
    1494                      .dwattr $C$DW$137, DW_AT_TI_symbol_name("_GPIO62")
    1495                      .dwattr $C$DW$137, DW_AT_bit_offset(0x02), DW_AT_bit_size(0x02)
    1496                      .dwattr $C$DW$137, DW_AT_data_member_location[DW_OP_plus_uconst 0x1]
    1497                      .dwattr $C$DW$137, DW_AT_accessibility(DW_ACCESS_public)
    1498              $C$DW$138       .dwtag  DW_TAG_member
    1499                      .dwattr $C$DW$138, DW_AT_type(*$C$DW$T$19)
    1500                      .dwattr $C$DW$138, DW_AT_name("GPIO63")
    1501                      .dwattr $C$DW$138, DW_AT_TI_symbol_name("_GPIO63")
    1502                      .dwattr $C$DW$138, DW_AT_bit_offset(0x00), DW_AT_bit_size(0x02)
    1503                      .dwattr $C$DW$138, DW_AT_data_member_location[DW_OP_plus_uconst 0x1]
    1504                      .dwattr $C$DW$138, DW_AT_accessibility(DW_ACCESS_public)
    1505                      .dwendtag $C$DW$T$31
    1506              
    1507              
    1508              $C$DW$T$32      .dwtag  DW_TAG_union_type
    1509                      .dwattr $C$DW$T$32, DW_AT_name("GPB2_REG")
    1510                      .dwattr $C$DW$T$32, DW_AT_byte_size(0x02)
    1511              $C$DW$139       .dwtag  DW_TAG_member
    1512                      .dwattr $C$DW$139, DW_AT_type(*$C$DW$T$21)
    1513                      .dwattr $C$DW$139, DW_AT_name("all")
    1514                      .dwattr $C$DW$139, DW_AT_TI_symbol_name("_all")
    1515                      .dwattr $C$DW$139, DW_AT_data_member_location[DW_OP_plus_uconst 0x0]
    1516                      .dwattr $C$DW$139, DW_AT_accessibility(DW_ACCESS_public)
    1517              $C$DW$140       .dwtag  DW_TAG_member
    1518                      .dwattr $C$DW$140, DW_AT_type(*$C$DW$T$31)
    1519                      .dwattr $C$DW$140, DW_AT_name("bit")
    1520                      .dwattr $C$DW$140, DW_AT_TI_symbol_name("_bit")
    1521                      .dwattr $C$DW$140, DW_AT_data_member_location[DW_OP_plus_uconst 0x0]
    1522                      .dwattr $C$DW$140, DW_AT_accessibility(DW_ACCESS_public)
    1523                      .dwendtag $C$DW$T$32
    1524              
    1525              
    1526              $C$DW$T$33      .dwtag  DW_TAG_structure_type
    1527                      .dwattr $C$DW$T$33, DW_AT_name("GPBCTRL_BITS")
    1528                      .dwattr $C$DW$T$33, DW_AT_byte_size(0x02)
    1529              $C$DW$141       .dwtag  DW_TAG_member
    1530                      .dwattr $C$DW$141, DW_AT_type(*$C$DW$T$19)
    1531                      .dwattr $C$DW$141, DW_AT_name("QUALPRD0")
    1532                      .dwattr $C$DW$141, DW_AT_TI_symbol_name("_QUALPRD0")
    1533                      .dwattr $C$DW$141, DW_AT_bit_offset(0x08), DW_AT_bit_size(0x08)
    1534                      .dwattr $C$DW$141, DW_AT_data_member_location[DW_OP_plus_uconst 0x0]
TMS320C2000 Assembler PC v6.2.7 Thu Jul 02 08:31:31 2015

Tools Copyright (c) 1996-2014 Texas Instruments Incorporated
C:\Users\Tester\AppData\Local\Temp\0496010                           PAGE   30

    1535                      .dwattr $C$DW$141, DW_AT_accessibility(DW_ACCESS_public)
    1536              $C$DW$142       .dwtag  DW_TAG_member
    1537                      .dwattr $C$DW$142, DW_AT_type(*$C$DW$T$19)
    1538                      .dwattr $C$DW$142, DW_AT_name("QUALPRD1")
    1539                      .dwattr $C$DW$142, DW_AT_TI_symbol_name("_QUALPRD1")
    1540                      .dwattr $C$DW$142, DW_AT_bit_offset(0x00), DW_AT_bit_size(0x08)
    1541                      .dwattr $C$DW$142, DW_AT_data_member_location[DW_OP_plus_uconst 0x0]
    1542                      .dwattr $C$DW$142, DW_AT_accessibility(DW_ACCESS_public)
    1543              $C$DW$143       .dwtag  DW_TAG_member
    1544                      .dwattr $C$DW$143, DW_AT_type(*$C$DW$T$19)
    1545                      .dwattr $C$DW$143, DW_AT_name("QUALPRD2")
    1546                      .dwattr $C$DW$143, DW_AT_TI_symbol_name("_QUALPRD2")
    1547                      .dwattr $C$DW$143, DW_AT_bit_offset(0x08), DW_AT_bit_size(0x08)
    1548                      .dwattr $C$DW$143, DW_AT_data_member_location[DW_OP_plus_uconst 0x1]
    1549                      .dwattr $C$DW$143, DW_AT_accessibility(DW_ACCESS_public)
    1550              $C$DW$144       .dwtag  DW_TAG_member
    1551                      .dwattr $C$DW$144, DW_AT_type(*$C$DW$T$19)
    1552                      .dwattr $C$DW$144, DW_AT_name("QUALPRD3")
    1553                      .dwattr $C$DW$144, DW_AT_TI_symbol_name("_QUALPRD3")
    1554                      .dwattr $C$DW$144, DW_AT_bit_offset(0x00), DW_AT_bit_size(0x08)
    1555                      .dwattr $C$DW$144, DW_AT_data_member_location[DW_OP_plus_uconst 0x1]
    1556                      .dwattr $C$DW$144, DW_AT_accessibility(DW_ACCESS_public)
    1557                      .dwendtag $C$DW$T$33
    1558              
    1559              
    1560              $C$DW$T$34      .dwtag  DW_TAG_union_type
    1561                      .dwattr $C$DW$T$34, DW_AT_name("GPBCTRL_REG")
    1562                      .dwattr $C$DW$T$34, DW_AT_byte_size(0x02)
    1563              $C$DW$145       .dwtag  DW_TAG_member
    1564                      .dwattr $C$DW$145, DW_AT_type(*$C$DW$T$21)
    1565                      .dwattr $C$DW$145, DW_AT_name("all")
    1566                      .dwattr $C$DW$145, DW_AT_TI_symbol_name("_all")
    1567                      .dwattr $C$DW$145, DW_AT_data_member_location[DW_OP_plus_uconst 0x0]
    1568                      .dwattr $C$DW$145, DW_AT_accessibility(DW_ACCESS_public)
    1569              $C$DW$146       .dwtag  DW_TAG_member
    1570                      .dwattr $C$DW$146, DW_AT_type(*$C$DW$T$33)
    1571                      .dwattr $C$DW$146, DW_AT_name("bit")
    1572                      .dwattr $C$DW$146, DW_AT_TI_symbol_name("_bit")
    1573                      .dwattr $C$DW$146, DW_AT_data_member_location[DW_OP_plus_uconst 0x0]
    1574                      .dwattr $C$DW$146, DW_AT_accessibility(DW_ACCESS_public)
    1575                      .dwendtag $C$DW$T$34
    1576              
    1577              
    1578              $C$DW$T$35      .dwtag  DW_TAG_structure_type
    1579                      .dwattr $C$DW$T$35, DW_AT_name("GPBDAT_BITS")
    1580                      .dwattr $C$DW$T$35, DW_AT_byte_size(0x02)
    1581              $C$DW$147       .dwtag  DW_TAG_member
    1582                      .dwattr $C$DW$147, DW_AT_type(*$C$DW$T$19)
    1583                      .dwattr $C$DW$147, DW_AT_name("GPIO32")
    1584                      .dwattr $C$DW$147, DW_AT_TI_symbol_name("_GPIO32")
    1585                      .dwattr $C$DW$147, DW_AT_bit_offset(0x0f), DW_AT_bit_size(0x01)
    1586                      .dwattr $C$DW$147, DW_AT_data_member_location[DW_OP_plus_uconst 0x0]
    1587                      .dwattr $C$DW$147, DW_AT_accessibility(DW_ACCESS_public)
    1588              $C$DW$148       .dwtag  DW_TAG_member
    1589                      .dwattr $C$DW$148, DW_AT_type(*$C$DW$T$19)
TMS320C2000 Assembler PC v6.2.7 Thu Jul 02 08:31:31 2015

Tools Copyright (c) 1996-2014 Texas Instruments Incorporated
C:\Users\Tester\AppData\Local\Temp\0496010                           PAGE   31

    1590                      .dwattr $C$DW$148, DW_AT_name("GPIO33")
    1591                      .dwattr $C$DW$148, DW_AT_TI_symbol_name("_GPIO33")
    1592                      .dwattr $C$DW$148, DW_AT_bit_offset(0x0e), DW_AT_bit_size(0x01)
    1593                      .dwattr $C$DW$148, DW_AT_data_member_location[DW_OP_plus_uconst 0x0]
    1594                      .dwattr $C$DW$148, DW_AT_accessibility(DW_ACCESS_public)
    1595              $C$DW$149       .dwtag  DW_TAG_member
    1596                      .dwattr $C$DW$149, DW_AT_type(*$C$DW$T$19)
    1597                      .dwattr $C$DW$149, DW_AT_name("GPIO34")
    1598                      .dwattr $C$DW$149, DW_AT_TI_symbol_name("_GPIO34")
    1599                      .dwattr $C$DW$149, DW_AT_bit_offset(0x0d), DW_AT_bit_size(0x01)
    1600                      .dwattr $C$DW$149, DW_AT_data_member_location[DW_OP_plus_uconst 0x0]
    1601                      .dwattr $C$DW$149, DW_AT_accessibility(DW_ACCESS_public)
    1602              $C$DW$150       .dwtag  DW_TAG_member
    1603                      .dwattr $C$DW$150, DW_AT_type(*$C$DW$T$19)
    1604                      .dwattr $C$DW$150, DW_AT_name("GPIO35")
    1605                      .dwattr $C$DW$150, DW_AT_TI_symbol_name("_GPIO35")
    1606                      .dwattr $C$DW$150, DW_AT_bit_offset(0x0c), DW_AT_bit_size(0x01)
    1607                      .dwattr $C$DW$150, DW_AT_data_member_location[DW_OP_plus_uconst 0x0]
    1608                      .dwattr $C$DW$150, DW_AT_accessibility(DW_ACCESS_public)
    1609              $C$DW$151       .dwtag  DW_TAG_member
    1610                      .dwattr $C$DW$151, DW_AT_type(*$C$DW$T$19)
    1611                      .dwattr $C$DW$151, DW_AT_name("GPIO36")
    1612                      .dwattr $C$DW$151, DW_AT_TI_symbol_name("_GPIO36")
    1613                      .dwattr $C$DW$151, DW_AT_bit_offset(0x0b), DW_AT_bit_size(0x01)
    1614                      .dwattr $C$DW$151, DW_AT_data_member_location[DW_OP_plus_uconst 0x0]
    1615                      .dwattr $C$DW$151, DW_AT_accessibility(DW_ACCESS_public)
    1616              $C$DW$152       .dwtag  DW_TAG_member
    1617                      .dwattr $C$DW$152, DW_AT_type(*$C$DW$T$19)
    1618                      .dwattr $C$DW$152, DW_AT_name("GPIO37")
    1619                      .dwattr $C$DW$152, DW_AT_TI_symbol_name("_GPIO37")
    1620                      .dwattr $C$DW$152, DW_AT_bit_offset(0x0a), DW_AT_bit_size(0x01)
    1621                      .dwattr $C$DW$152, DW_AT_data_member_location[DW_OP_plus_uconst 0x0]
    1622                      .dwattr $C$DW$152, DW_AT_accessibility(DW_ACCESS_public)
    1623              $C$DW$153       .dwtag  DW_TAG_member
    1624                      .dwattr $C$DW$153, DW_AT_type(*$C$DW$T$19)
    1625                      .dwattr $C$DW$153, DW_AT_name("GPIO38")
    1626                      .dwattr $C$DW$153, DW_AT_TI_symbol_name("_GPIO38")
    1627                      .dwattr $C$DW$153, DW_AT_bit_offset(0x09), DW_AT_bit_size(0x01)
    1628                      .dwattr $C$DW$153, DW_AT_data_member_location[DW_OP_plus_uconst 0x0]
    1629                      .dwattr $C$DW$153, DW_AT_accessibility(DW_ACCESS_public)
    1630              $C$DW$154       .dwtag  DW_TAG_member
    1631                      .dwattr $C$DW$154, DW_AT_type(*$C$DW$T$19)
    1632                      .dwattr $C$DW$154, DW_AT_name("GPIO39")
    1633                      .dwattr $C$DW$154, DW_AT_TI_symbol_name("_GPIO39")
    1634                      .dwattr $C$DW$154, DW_AT_bit_offset(0x08), DW_AT_bit_size(0x01)
    1635                      .dwattr $C$DW$154, DW_AT_data_member_location[DW_OP_plus_uconst 0x0]
    1636                      .dwattr $C$DW$154, DW_AT_accessibility(DW_ACCESS_public)
    1637              $C$DW$155       .dwtag  DW_TAG_member
    1638                      .dwattr $C$DW$155, DW_AT_type(*$C$DW$T$19)
    1639                      .dwattr $C$DW$155, DW_AT_name("GPIO40")
    1640                      .dwattr $C$DW$155, DW_AT_TI_symbol_name("_GPIO40")
    1641                      .dwattr $C$DW$155, DW_AT_bit_offset(0x07), DW_AT_bit_size(0x01)
    1642                      .dwattr $C$DW$155, DW_AT_data_member_location[DW_OP_plus_uconst 0x0]
    1643                      .dwattr $C$DW$155, DW_AT_accessibility(DW_ACCESS_public)
    1644              $C$DW$156       .dwtag  DW_TAG_member
TMS320C2000 Assembler PC v6.2.7 Thu Jul 02 08:31:31 2015

Tools Copyright (c) 1996-2014 Texas Instruments Incorporated
C:\Users\Tester\AppData\Local\Temp\0496010                           PAGE   32

    1645                      .dwattr $C$DW$156, DW_AT_type(*$C$DW$T$19)
    1646                      .dwattr $C$DW$156, DW_AT_name("GPIO41")
    1647                      .dwattr $C$DW$156, DW_AT_TI_symbol_name("_GPIO41")
    1648                      .dwattr $C$DW$156, DW_AT_bit_offset(0x06), DW_AT_bit_size(0x01)
    1649                      .dwattr $C$DW$156, DW_AT_data_member_location[DW_OP_plus_uconst 0x0]
    1650                      .dwattr $C$DW$156, DW_AT_accessibility(DW_ACCESS_public)
    1651              $C$DW$157       .dwtag  DW_TAG_member
    1652                      .dwattr $C$DW$157, DW_AT_type(*$C$DW$T$19)
    1653                      .dwattr $C$DW$157, DW_AT_name("GPIO42")
    1654                      .dwattr $C$DW$157, DW_AT_TI_symbol_name("_GPIO42")
    1655                      .dwattr $C$DW$157, DW_AT_bit_offset(0x05), DW_AT_bit_size(0x01)
    1656                      .dwattr $C$DW$157, DW_AT_data_member_location[DW_OP_plus_uconst 0x0]
    1657                      .dwattr $C$DW$157, DW_AT_accessibility(DW_ACCESS_public)
    1658              $C$DW$158       .dwtag  DW_TAG_member
    1659                      .dwattr $C$DW$158, DW_AT_type(*$C$DW$T$19)
    1660                      .dwattr $C$DW$158, DW_AT_name("GPIO43")
    1661                      .dwattr $C$DW$158, DW_AT_TI_symbol_name("_GPIO43")
    1662                      .dwattr $C$DW$158, DW_AT_bit_offset(0x04), DW_AT_bit_size(0x01)
    1663                      .dwattr $C$DW$158, DW_AT_data_member_location[DW_OP_plus_uconst 0x0]
    1664                      .dwattr $C$DW$158, DW_AT_accessibility(DW_ACCESS_public)
    1665              $C$DW$159       .dwtag  DW_TAG_member
    1666                      .dwattr $C$DW$159, DW_AT_type(*$C$DW$T$19)
    1667                      .dwattr $C$DW$159, DW_AT_name("GPIO44")
    1668                      .dwattr $C$DW$159, DW_AT_TI_symbol_name("_GPIO44")
    1669                      .dwattr $C$DW$159, DW_AT_bit_offset(0x03), DW_AT_bit_size(0x01)
    1670                      .dwattr $C$DW$159, DW_AT_data_member_location[DW_OP_plus_uconst 0x0]
    1671                      .dwattr $C$DW$159, DW_AT_accessibility(DW_ACCESS_public)
    1672              $C$DW$160       .dwtag  DW_TAG_member
    1673                      .dwattr $C$DW$160, DW_AT_type(*$C$DW$T$19)
    1674                      .dwattr $C$DW$160, DW_AT_name("GPIO45")
    1675                      .dwattr $C$DW$160, DW_AT_TI_symbol_name("_GPIO45")
    1676                      .dwattr $C$DW$160, DW_AT_bit_offset(0x02), DW_AT_bit_size(0x01)
    1677                      .dwattr $C$DW$160, DW_AT_data_member_location[DW_OP_plus_uconst 0x0]
    1678                      .dwattr $C$DW$160, DW_AT_accessibility(DW_ACCESS_public)
    1679              $C$DW$161       .dwtag  DW_TAG_member
    1680                      .dwattr $C$DW$161, DW_AT_type(*$C$DW$T$19)
    1681                      .dwattr $C$DW$161, DW_AT_name("GPIO46")
    1682                      .dwattr $C$DW$161, DW_AT_TI_symbol_name("_GPIO46")
    1683                      .dwattr $C$DW$161, DW_AT_bit_offset(0x01), DW_AT_bit_size(0x01)
    1684                      .dwattr $C$DW$161, DW_AT_data_member_location[DW_OP_plus_uconst 0x0]
    1685                      .dwattr $C$DW$161, DW_AT_accessibility(DW_ACCESS_public)
    1686              $C$DW$162       .dwtag  DW_TAG_member
    1687                      .dwattr $C$DW$162, DW_AT_type(*$C$DW$T$19)
    1688                      .dwattr $C$DW$162, DW_AT_name("GPIO47")
    1689                      .dwattr $C$DW$162, DW_AT_TI_symbol_name("_GPIO47")
    1690                      .dwattr $C$DW$162, DW_AT_bit_offset(0x00), DW_AT_bit_size(0x01)
    1691                      .dwattr $C$DW$162, DW_AT_data_member_location[DW_OP_plus_uconst 0x0]
    1692                      .dwattr $C$DW$162, DW_AT_accessibility(DW_ACCESS_public)
    1693              $C$DW$163       .dwtag  DW_TAG_member
    1694                      .dwattr $C$DW$163, DW_AT_type(*$C$DW$T$19)
    1695                      .dwattr $C$DW$163, DW_AT_name("GPIO48")
    1696                      .dwattr $C$DW$163, DW_AT_TI_symbol_name("_GPIO48")
    1697                      .dwattr $C$DW$163, DW_AT_bit_offset(0x0f), DW_AT_bit_size(0x01)
    1698                      .dwattr $C$DW$163, DW_AT_data_member_location[DW_OP_plus_uconst 0x1]
    1699                      .dwattr $C$DW$163, DW_AT_accessibility(DW_ACCESS_public)
TMS320C2000 Assembler PC v6.2.7 Thu Jul 02 08:31:31 2015

Tools Copyright (c) 1996-2014 Texas Instruments Incorporated
C:\Users\Tester\AppData\Local\Temp\0496010                           PAGE   33

    1700              $C$DW$164       .dwtag  DW_TAG_member
    1701                      .dwattr $C$DW$164, DW_AT_type(*$C$DW$T$19)
    1702                      .dwattr $C$DW$164, DW_AT_name("GPIO49")
    1703                      .dwattr $C$DW$164, DW_AT_TI_symbol_name("_GPIO49")
    1704                      .dwattr $C$DW$164, DW_AT_bit_offset(0x0e), DW_AT_bit_size(0x01)
    1705                      .dwattr $C$DW$164, DW_AT_data_member_location[DW_OP_plus_uconst 0x1]
    1706                      .dwattr $C$DW$164, DW_AT_accessibility(DW_ACCESS_public)
    1707              $C$DW$165       .dwtag  DW_TAG_member
    1708                      .dwattr $C$DW$165, DW_AT_type(*$C$DW$T$19)
    1709                      .dwattr $C$DW$165, DW_AT_name("GPIO50")
    1710                      .dwattr $C$DW$165, DW_AT_TI_symbol_name("_GPIO50")
    1711                      .dwattr $C$DW$165, DW_AT_bit_offset(0x0d), DW_AT_bit_size(0x01)
    1712                      .dwattr $C$DW$165, DW_AT_data_member_location[DW_OP_plus_uconst 0x1]
    1713                      .dwattr $C$DW$165, DW_AT_accessibility(DW_ACCESS_public)
    1714              $C$DW$166       .dwtag  DW_TAG_member
    1715                      .dwattr $C$DW$166, DW_AT_type(*$C$DW$T$19)
    1716                      .dwattr $C$DW$166, DW_AT_name("GPIO51")
    1717                      .dwattr $C$DW$166, DW_AT_TI_symbol_name("_GPIO51")
    1718                      .dwattr $C$DW$166, DW_AT_bit_offset(0x0c), DW_AT_bit_size(0x01)
    1719                      .dwattr $C$DW$166, DW_AT_data_member_location[DW_OP_plus_uconst 0x1]
    1720                      .dwattr $C$DW$166, DW_AT_accessibility(DW_ACCESS_public)
    1721              $C$DW$167       .dwtag  DW_TAG_member
    1722                      .dwattr $C$DW$167, DW_AT_type(*$C$DW$T$19)
    1723                      .dwattr $C$DW$167, DW_AT_name("GPIO52")
    1724                      .dwattr $C$DW$167, DW_AT_TI_symbol_name("_GPIO52")
    1725                      .dwattr $C$DW$167, DW_AT_bit_offset(0x0b), DW_AT_bit_size(0x01)
    1726                      .dwattr $C$DW$167, DW_AT_data_member_location[DW_OP_plus_uconst 0x1]
    1727                      .dwattr $C$DW$167, DW_AT_accessibility(DW_ACCESS_public)
    1728              $C$DW$168       .dwtag  DW_TAG_member
    1729                      .dwattr $C$DW$168, DW_AT_type(*$C$DW$T$19)
    1730                      .dwattr $C$DW$168, DW_AT_name("GPIO53")
    1731                      .dwattr $C$DW$168, DW_AT_TI_symbol_name("_GPIO53")
    1732                      .dwattr $C$DW$168, DW_AT_bit_offset(0x0a), DW_AT_bit_size(0x01)
    1733                      .dwattr $C$DW$168, DW_AT_data_member_location[DW_OP_plus_uconst 0x1]
    1734                      .dwattr $C$DW$168, DW_AT_accessibility(DW_ACCESS_public)
    1735              $C$DW$169       .dwtag  DW_TAG_member
    1736                      .dwattr $C$DW$169, DW_AT_type(*$C$DW$T$19)
    1737                      .dwattr $C$DW$169, DW_AT_name("GPIO54")
    1738                      .dwattr $C$DW$169, DW_AT_TI_symbol_name("_GPIO54")
    1739                      .dwattr $C$DW$169, DW_AT_bit_offset(0x09), DW_AT_bit_size(0x01)
    1740                      .dwattr $C$DW$169, DW_AT_data_member_location[DW_OP_plus_uconst 0x1]
    1741                      .dwattr $C$DW$169, DW_AT_accessibility(DW_ACCESS_public)
    1742              $C$DW$170       .dwtag  DW_TAG_member
    1743                      .dwattr $C$DW$170, DW_AT_type(*$C$DW$T$19)
    1744                      .dwattr $C$DW$170, DW_AT_name("GPIO55")
    1745                      .dwattr $C$DW$170, DW_AT_TI_symbol_name("_GPIO55")
    1746                      .dwattr $C$DW$170, DW_AT_bit_offset(0x08), DW_AT_bit_size(0x01)
    1747                      .dwattr $C$DW$170, DW_AT_data_member_location[DW_OP_plus_uconst 0x1]
    1748                      .dwattr $C$DW$170, DW_AT_accessibility(DW_ACCESS_public)
    1749              $C$DW$171       .dwtag  DW_TAG_member
    1750                      .dwattr $C$DW$171, DW_AT_type(*$C$DW$T$19)
    1751                      .dwattr $C$DW$171, DW_AT_name("GPIO56")
    1752                      .dwattr $C$DW$171, DW_AT_TI_symbol_name("_GPIO56")
    1753                      .dwattr $C$DW$171, DW_AT_bit_offset(0x07), DW_AT_bit_size(0x01)
    1754                      .dwattr $C$DW$171, DW_AT_data_member_location[DW_OP_plus_uconst 0x1]
TMS320C2000 Assembler PC v6.2.7 Thu Jul 02 08:31:31 2015

Tools Copyright (c) 1996-2014 Texas Instruments Incorporated
C:\Users\Tester\AppData\Local\Temp\0496010                           PAGE   34

    1755                      .dwattr $C$DW$171, DW_AT_accessibility(DW_ACCESS_public)
    1756              $C$DW$172       .dwtag  DW_TAG_member
    1757                      .dwattr $C$DW$172, DW_AT_type(*$C$DW$T$19)
    1758                      .dwattr $C$DW$172, DW_AT_name("GPIO57")
    1759                      .dwattr $C$DW$172, DW_AT_TI_symbol_name("_GPIO57")
    1760                      .dwattr $C$DW$172, DW_AT_bit_offset(0x06), DW_AT_bit_size(0x01)
    1761                      .dwattr $C$DW$172, DW_AT_data_member_location[DW_OP_plus_uconst 0x1]
    1762                      .dwattr $C$DW$172, DW_AT_accessibility(DW_ACCESS_public)
    1763              $C$DW$173       .dwtag  DW_TAG_member
    1764                      .dwattr $C$DW$173, DW_AT_type(*$C$DW$T$19)
    1765                      .dwattr $C$DW$173, DW_AT_name("GPIO58")
    1766                      .dwattr $C$DW$173, DW_AT_TI_symbol_name("_GPIO58")
    1767                      .dwattr $C$DW$173, DW_AT_bit_offset(0x05), DW_AT_bit_size(0x01)
    1768                      .dwattr $C$DW$173, DW_AT_data_member_location[DW_OP_plus_uconst 0x1]
    1769                      .dwattr $C$DW$173, DW_AT_accessibility(DW_ACCESS_public)
    1770              $C$DW$174       .dwtag  DW_TAG_member
    1771                      .dwattr $C$DW$174, DW_AT_type(*$C$DW$T$19)
    1772                      .dwattr $C$DW$174, DW_AT_name("GPIO59")
    1773                      .dwattr $C$DW$174, DW_AT_TI_symbol_name("_GPIO59")
    1774                      .dwattr $C$DW$174, DW_AT_bit_offset(0x04), DW_AT_bit_size(0x01)
    1775                      .dwattr $C$DW$174, DW_AT_data_member_location[DW_OP_plus_uconst 0x1]
    1776                      .dwattr $C$DW$174, DW_AT_accessibility(DW_ACCESS_public)
    1777              $C$DW$175       .dwtag  DW_TAG_member
    1778                      .dwattr $C$DW$175, DW_AT_type(*$C$DW$T$19)
    1779                      .dwattr $C$DW$175, DW_AT_name("GPIO60")
    1780                      .dwattr $C$DW$175, DW_AT_TI_symbol_name("_GPIO60")
    1781                      .dwattr $C$DW$175, DW_AT_bit_offset(0x03), DW_AT_bit_size(0x01)
    1782                      .dwattr $C$DW$175, DW_AT_data_member_location[DW_OP_plus_uconst 0x1]
    1783                      .dwattr $C$DW$175, DW_AT_accessibility(DW_ACCESS_public)
    1784              $C$DW$176       .dwtag  DW_TAG_member
    1785                      .dwattr $C$DW$176, DW_AT_type(*$C$DW$T$19)
    1786                      .dwattr $C$DW$176, DW_AT_name("GPIO61")
    1787                      .dwattr $C$DW$176, DW_AT_TI_symbol_name("_GPIO61")
    1788                      .dwattr $C$DW$176, DW_AT_bit_offset(0x02), DW_AT_bit_size(0x01)
    1789                      .dwattr $C$DW$176, DW_AT_data_member_location[DW_OP_plus_uconst 0x1]
    1790                      .dwattr $C$DW$176, DW_AT_accessibility(DW_ACCESS_public)
    1791              $C$DW$177       .dwtag  DW_TAG_member
    1792                      .dwattr $C$DW$177, DW_AT_type(*$C$DW$T$19)
    1793                      .dwattr $C$DW$177, DW_AT_name("GPIO62")
    1794                      .dwattr $C$DW$177, DW_AT_TI_symbol_name("_GPIO62")
    1795                      .dwattr $C$DW$177, DW_AT_bit_offset(0x01), DW_AT_bit_size(0x01)
    1796                      .dwattr $C$DW$177, DW_AT_data_member_location[DW_OP_plus_uconst 0x1]
    1797                      .dwattr $C$DW$177, DW_AT_accessibility(DW_ACCESS_public)
    1798              $C$DW$178       .dwtag  DW_TAG_member
    1799                      .dwattr $C$DW$178, DW_AT_type(*$C$DW$T$19)
    1800                      .dwattr $C$DW$178, DW_AT_name("GPIO63")
    1801                      .dwattr $C$DW$178, DW_AT_TI_symbol_name("_GPIO63")
    1802                      .dwattr $C$DW$178, DW_AT_bit_offset(0x00), DW_AT_bit_size(0x01)
    1803                      .dwattr $C$DW$178, DW_AT_data_member_location[DW_OP_plus_uconst 0x1]
    1804                      .dwattr $C$DW$178, DW_AT_accessibility(DW_ACCESS_public)
    1805                      .dwendtag $C$DW$T$35
    1806              
    1807              
    1808              $C$DW$T$36      .dwtag  DW_TAG_union_type
    1809                      .dwattr $C$DW$T$36, DW_AT_name("GPBDAT_REG")
TMS320C2000 Assembler PC v6.2.7 Thu Jul 02 08:31:31 2015

Tools Copyright (c) 1996-2014 Texas Instruments Incorporated
C:\Users\Tester\AppData\Local\Temp\0496010                           PAGE   35

    1810                      .dwattr $C$DW$T$36, DW_AT_byte_size(0x02)
    1811              $C$DW$179       .dwtag  DW_TAG_member
    1812                      .dwattr $C$DW$179, DW_AT_type(*$C$DW$T$21)
    1813                      .dwattr $C$DW$179, DW_AT_name("all")
    1814                      .dwattr $C$DW$179, DW_AT_TI_symbol_name("_all")
    1815                      .dwattr $C$DW$179, DW_AT_data_member_location[DW_OP_plus_uconst 0x0]
    1816                      .dwattr $C$DW$179, DW_AT_accessibility(DW_ACCESS_public)
    1817              $C$DW$180       .dwtag  DW_TAG_member
    1818                      .dwattr $C$DW$180, DW_AT_type(*$C$DW$T$35)
    1819                      .dwattr $C$DW$180, DW_AT_name("bit")
    1820                      .dwattr $C$DW$180, DW_AT_TI_symbol_name("_bit")
    1821                      .dwattr $C$DW$180, DW_AT_data_member_location[DW_OP_plus_uconst 0x0]
    1822                      .dwattr $C$DW$180, DW_AT_accessibility(DW_ACCESS_public)
    1823                      .dwendtag $C$DW$T$36
    1824              
    1825              
    1826              $C$DW$T$37      .dwtag  DW_TAG_structure_type
    1827                      .dwattr $C$DW$T$37, DW_AT_name("GPC1_BITS")
    1828                      .dwattr $C$DW$T$37, DW_AT_byte_size(0x02)
    1829              $C$DW$181       .dwtag  DW_TAG_member
    1830                      .dwattr $C$DW$181, DW_AT_type(*$C$DW$T$19)
    1831                      .dwattr $C$DW$181, DW_AT_name("GPIO64")
    1832                      .dwattr $C$DW$181, DW_AT_TI_symbol_name("_GPIO64")
    1833                      .dwattr $C$DW$181, DW_AT_bit_offset(0x0e), DW_AT_bit_size(0x02)
    1834                      .dwattr $C$DW$181, DW_AT_data_member_location[DW_OP_plus_uconst 0x0]
    1835                      .dwattr $C$DW$181, DW_AT_accessibility(DW_ACCESS_public)
    1836              $C$DW$182       .dwtag  DW_TAG_member
    1837                      .dwattr $C$DW$182, DW_AT_type(*$C$DW$T$19)
    1838                      .dwattr $C$DW$182, DW_AT_name("GPIO65")
    1839                      .dwattr $C$DW$182, DW_AT_TI_symbol_name("_GPIO65")
    1840                      .dwattr $C$DW$182, DW_AT_bit_offset(0x0c), DW_AT_bit_size(0x02)
    1841                      .dwattr $C$DW$182, DW_AT_data_member_location[DW_OP_plus_uconst 0x0]
    1842                      .dwattr $C$DW$182, DW_AT_accessibility(DW_ACCESS_public)
    1843              $C$DW$183       .dwtag  DW_TAG_member
    1844                      .dwattr $C$DW$183, DW_AT_type(*$C$DW$T$19)
    1845                      .dwattr $C$DW$183, DW_AT_name("GPIO66")
    1846                      .dwattr $C$DW$183, DW_AT_TI_symbol_name("_GPIO66")
    1847                      .dwattr $C$DW$183, DW_AT_bit_offset(0x0a), DW_AT_bit_size(0x02)
    1848                      .dwattr $C$DW$183, DW_AT_data_member_location[DW_OP_plus_uconst 0x0]
    1849                      .dwattr $C$DW$183, DW_AT_accessibility(DW_ACCESS_public)
    1850              $C$DW$184       .dwtag  DW_TAG_member
    1851                      .dwattr $C$DW$184, DW_AT_type(*$C$DW$T$19)
    1852                      .dwattr $C$DW$184, DW_AT_name("GPIO67")
    1853                      .dwattr $C$DW$184, DW_AT_TI_symbol_name("_GPIO67")
    1854                      .dwattr $C$DW$184, DW_AT_bit_offset(0x08), DW_AT_bit_size(0x02)
    1855                      .dwattr $C$DW$184, DW_AT_data_member_location[DW_OP_plus_uconst 0x0]
    1856                      .dwattr $C$DW$184, DW_AT_accessibility(DW_ACCESS_public)
    1857              $C$DW$185       .dwtag  DW_TAG_member
    1858                      .dwattr $C$DW$185, DW_AT_type(*$C$DW$T$19)
    1859                      .dwattr $C$DW$185, DW_AT_name("GPIO68")
    1860                      .dwattr $C$DW$185, DW_AT_TI_symbol_name("_GPIO68")
    1861                      .dwattr $C$DW$185, DW_AT_bit_offset(0x06), DW_AT_bit_size(0x02)
    1862                      .dwattr $C$DW$185, DW_AT_data_member_location[DW_OP_plus_uconst 0x0]
    1863                      .dwattr $C$DW$185, DW_AT_accessibility(DW_ACCESS_public)
    1864              $C$DW$186       .dwtag  DW_TAG_member
TMS320C2000 Assembler PC v6.2.7 Thu Jul 02 08:31:31 2015

Tools Copyright (c) 1996-2014 Texas Instruments Incorporated
C:\Users\Tester\AppData\Local\Temp\0496010                           PAGE   36

    1865                      .dwattr $C$DW$186, DW_AT_type(*$C$DW$T$19)
    1866                      .dwattr $C$DW$186, DW_AT_name("GPIO69")
    1867                      .dwattr $C$DW$186, DW_AT_TI_symbol_name("_GPIO69")
    1868                      .dwattr $C$DW$186, DW_AT_bit_offset(0x04), DW_AT_bit_size(0x02)
    1869                      .dwattr $C$DW$186, DW_AT_data_member_location[DW_OP_plus_uconst 0x0]
    1870                      .dwattr $C$DW$186, DW_AT_accessibility(DW_ACCESS_public)
    1871              $C$DW$187       .dwtag  DW_TAG_member
    1872                      .dwattr $C$DW$187, DW_AT_type(*$C$DW$T$19)
    1873                      .dwattr $C$DW$187, DW_AT_name("GPIO70")
    1874                      .dwattr $C$DW$187, DW_AT_TI_symbol_name("_GPIO70")
    1875                      .dwattr $C$DW$187, DW_AT_bit_offset(0x02), DW_AT_bit_size(0x02)
    1876                      .dwattr $C$DW$187, DW_AT_data_member_location[DW_OP_plus_uconst 0x0]
    1877                      .dwattr $C$DW$187, DW_AT_accessibility(DW_ACCESS_public)
    1878              $C$DW$188       .dwtag  DW_TAG_member
    1879                      .dwattr $C$DW$188, DW_AT_type(*$C$DW$T$19)
    1880                      .dwattr $C$DW$188, DW_AT_name("GPIO71")
    1881                      .dwattr $C$DW$188, DW_AT_TI_symbol_name("_GPIO71")
    1882                      .dwattr $C$DW$188, DW_AT_bit_offset(0x00), DW_AT_bit_size(0x02)
    1883                      .dwattr $C$DW$188, DW_AT_data_member_location[DW_OP_plus_uconst 0x0]
    1884                      .dwattr $C$DW$188, DW_AT_accessibility(DW_ACCESS_public)
    1885              $C$DW$189       .dwtag  DW_TAG_member
    1886                      .dwattr $C$DW$189, DW_AT_type(*$C$DW$T$19)
    1887                      .dwattr $C$DW$189, DW_AT_name("GPIO72")
    1888                      .dwattr $C$DW$189, DW_AT_TI_symbol_name("_GPIO72")
    1889                      .dwattr $C$DW$189, DW_AT_bit_offset(0x0e), DW_AT_bit_size(0x02)
    1890                      .dwattr $C$DW$189, DW_AT_data_member_location[DW_OP_plus_uconst 0x1]
    1891                      .dwattr $C$DW$189, DW_AT_accessibility(DW_ACCESS_public)
    1892              $C$DW$190       .dwtag  DW_TAG_member
    1893                      .dwattr $C$DW$190, DW_AT_type(*$C$DW$T$19)
    1894                      .dwattr $C$DW$190, DW_AT_name("GPIO73")
    1895                      .dwattr $C$DW$190, DW_AT_TI_symbol_name("_GPIO73")
    1896                      .dwattr $C$DW$190, DW_AT_bit_offset(0x0c), DW_AT_bit_size(0x02)
    1897                      .dwattr $C$DW$190, DW_AT_data_member_location[DW_OP_plus_uconst 0x1]
    1898                      .dwattr $C$DW$190, DW_AT_accessibility(DW_ACCESS_public)
    1899              $C$DW$191       .dwtag  DW_TAG_member
    1900                      .dwattr $C$DW$191, DW_AT_type(*$C$DW$T$19)
    1901                      .dwattr $C$DW$191, DW_AT_name("GPIO74")
    1902                      .dwattr $C$DW$191, DW_AT_TI_symbol_name("_GPIO74")
    1903                      .dwattr $C$DW$191, DW_AT_bit_offset(0x0a), DW_AT_bit_size(0x02)
    1904                      .dwattr $C$DW$191, DW_AT_data_member_location[DW_OP_plus_uconst 0x1]
    1905                      .dwattr $C$DW$191, DW_AT_accessibility(DW_ACCESS_public)
    1906              $C$DW$192       .dwtag  DW_TAG_member
    1907                      .dwattr $C$DW$192, DW_AT_type(*$C$DW$T$19)
    1908                      .dwattr $C$DW$192, DW_AT_name("GPIO75")
    1909                      .dwattr $C$DW$192, DW_AT_TI_symbol_name("_GPIO75")
    1910                      .dwattr $C$DW$192, DW_AT_bit_offset(0x08), DW_AT_bit_size(0x02)
    1911                      .dwattr $C$DW$192, DW_AT_data_member_location[DW_OP_plus_uconst 0x1]
    1912                      .dwattr $C$DW$192, DW_AT_accessibility(DW_ACCESS_public)
    1913              $C$DW$193       .dwtag  DW_TAG_member
    1914                      .dwattr $C$DW$193, DW_AT_type(*$C$DW$T$19)
    1915                      .dwattr $C$DW$193, DW_AT_name("GPIO76")
    1916                      .dwattr $C$DW$193, DW_AT_TI_symbol_name("_GPIO76")
    1917                      .dwattr $C$DW$193, DW_AT_bit_offset(0x06), DW_AT_bit_size(0x02)
    1918                      .dwattr $C$DW$193, DW_AT_data_member_location[DW_OP_plus_uconst 0x1]
    1919                      .dwattr $C$DW$193, DW_AT_accessibility(DW_ACCESS_public)
TMS320C2000 Assembler PC v6.2.7 Thu Jul 02 08:31:31 2015

Tools Copyright (c) 1996-2014 Texas Instruments Incorporated
C:\Users\Tester\AppData\Local\Temp\0496010                           PAGE   37

    1920              $C$DW$194       .dwtag  DW_TAG_member
    1921                      .dwattr $C$DW$194, DW_AT_type(*$C$DW$T$19)
    1922                      .dwattr $C$DW$194, DW_AT_name("GPIO77")
    1923                      .dwattr $C$DW$194, DW_AT_TI_symbol_name("_GPIO77")
    1924                      .dwattr $C$DW$194, DW_AT_bit_offset(0x04), DW_AT_bit_size(0x02)
    1925                      .dwattr $C$DW$194, DW_AT_data_member_location[DW_OP_plus_uconst 0x1]
    1926                      .dwattr $C$DW$194, DW_AT_accessibility(DW_ACCESS_public)
    1927              $C$DW$195       .dwtag  DW_TAG_member
    1928                      .dwattr $C$DW$195, DW_AT_type(*$C$DW$T$19)
    1929                      .dwattr $C$DW$195, DW_AT_name("GPIO78")
    1930                      .dwattr $C$DW$195, DW_AT_TI_symbol_name("_GPIO78")
    1931                      .dwattr $C$DW$195, DW_AT_bit_offset(0x02), DW_AT_bit_size(0x02)
    1932                      .dwattr $C$DW$195, DW_AT_data_member_location[DW_OP_plus_uconst 0x1]
    1933                      .dwattr $C$DW$195, DW_AT_accessibility(DW_ACCESS_public)
    1934              $C$DW$196       .dwtag  DW_TAG_member
    1935                      .dwattr $C$DW$196, DW_AT_type(*$C$DW$T$19)
    1936                      .dwattr $C$DW$196, DW_AT_name("GPIO79")
    1937                      .dwattr $C$DW$196, DW_AT_TI_symbol_name("_GPIO79")
    1938                      .dwattr $C$DW$196, DW_AT_bit_offset(0x00), DW_AT_bit_size(0x02)
    1939                      .dwattr $C$DW$196, DW_AT_data_member_location[DW_OP_plus_uconst 0x1]
    1940                      .dwattr $C$DW$196, DW_AT_accessibility(DW_ACCESS_public)
    1941                      .dwendtag $C$DW$T$37
    1942              
    1943              
    1944              $C$DW$T$38      .dwtag  DW_TAG_union_type
    1945                      .dwattr $C$DW$T$38, DW_AT_name("GPC1_REG")
    1946                      .dwattr $C$DW$T$38, DW_AT_byte_size(0x02)
    1947              $C$DW$197       .dwtag  DW_TAG_member
    1948                      .dwattr $C$DW$197, DW_AT_type(*$C$DW$T$21)
    1949                      .dwattr $C$DW$197, DW_AT_name("all")
    1950                      .dwattr $C$DW$197, DW_AT_TI_symbol_name("_all")
    1951                      .dwattr $C$DW$197, DW_AT_data_member_location[DW_OP_plus_uconst 0x0]
    1952                      .dwattr $C$DW$197, DW_AT_accessibility(DW_ACCESS_public)
    1953              $C$DW$198       .dwtag  DW_TAG_member
    1954                      .dwattr $C$DW$198, DW_AT_type(*$C$DW$T$37)
    1955                      .dwattr $C$DW$198, DW_AT_name("bit")
    1956                      .dwattr $C$DW$198, DW_AT_TI_symbol_name("_bit")
    1957                      .dwattr $C$DW$198, DW_AT_data_member_location[DW_OP_plus_uconst 0x0]
    1958                      .dwattr $C$DW$198, DW_AT_accessibility(DW_ACCESS_public)
    1959                      .dwendtag $C$DW$T$38
    1960              
    1961              
    1962              $C$DW$T$39      .dwtag  DW_TAG_structure_type
    1963                      .dwattr $C$DW$T$39, DW_AT_name("GPC2_BITS")
    1964                      .dwattr $C$DW$T$39, DW_AT_byte_size(0x02)
    1965              $C$DW$199       .dwtag  DW_TAG_member
    1966                      .dwattr $C$DW$199, DW_AT_type(*$C$DW$T$19)
    1967                      .dwattr $C$DW$199, DW_AT_name("GPIO80")
    1968                      .dwattr $C$DW$199, DW_AT_TI_symbol_name("_GPIO80")
    1969                      .dwattr $C$DW$199, DW_AT_bit_offset(0x0e), DW_AT_bit_size(0x02)
    1970                      .dwattr $C$DW$199, DW_AT_data_member_location[DW_OP_plus_uconst 0x0]
    1971                      .dwattr $C$DW$199, DW_AT_accessibility(DW_ACCESS_public)
    1972              $C$DW$200       .dwtag  DW_TAG_member
    1973                      .dwattr $C$DW$200, DW_AT_type(*$C$DW$T$19)
    1974                      .dwattr $C$DW$200, DW_AT_name("GPIO81")
TMS320C2000 Assembler PC v6.2.7 Thu Jul 02 08:31:31 2015

Tools Copyright (c) 1996-2014 Texas Instruments Incorporated
C:\Users\Tester\AppData\Local\Temp\0496010                           PAGE   38

    1975                      .dwattr $C$DW$200, DW_AT_TI_symbol_name("_GPIO81")
    1976                      .dwattr $C$DW$200, DW_AT_bit_offset(0x0c), DW_AT_bit_size(0x02)
    1977                      .dwattr $C$DW$200, DW_AT_data_member_location[DW_OP_plus_uconst 0x0]
    1978                      .dwattr $C$DW$200, DW_AT_accessibility(DW_ACCESS_public)
    1979              $C$DW$201       .dwtag  DW_TAG_member
    1980                      .dwattr $C$DW$201, DW_AT_type(*$C$DW$T$19)
    1981                      .dwattr $C$DW$201, DW_AT_name("GPIO82")
    1982                      .dwattr $C$DW$201, DW_AT_TI_symbol_name("_GPIO82")
    1983                      .dwattr $C$DW$201, DW_AT_bit_offset(0x0a), DW_AT_bit_size(0x02)
    1984                      .dwattr $C$DW$201, DW_AT_data_member_location[DW_OP_plus_uconst 0x0]
    1985                      .dwattr $C$DW$201, DW_AT_accessibility(DW_ACCESS_public)
    1986              $C$DW$202       .dwtag  DW_TAG_member
    1987                      .dwattr $C$DW$202, DW_AT_type(*$C$DW$T$19)
    1988                      .dwattr $C$DW$202, DW_AT_name("GPIO83")
    1989                      .dwattr $C$DW$202, DW_AT_TI_symbol_name("_GPIO83")
    1990                      .dwattr $C$DW$202, DW_AT_bit_offset(0x08), DW_AT_bit_size(0x02)
    1991                      .dwattr $C$DW$202, DW_AT_data_member_location[DW_OP_plus_uconst 0x0]
    1992                      .dwattr $C$DW$202, DW_AT_accessibility(DW_ACCESS_public)
    1993              $C$DW$203       .dwtag  DW_TAG_member
    1994                      .dwattr $C$DW$203, DW_AT_type(*$C$DW$T$19)
    1995                      .dwattr $C$DW$203, DW_AT_name("GPIO84")
    1996                      .dwattr $C$DW$203, DW_AT_TI_symbol_name("_GPIO84")
    1997                      .dwattr $C$DW$203, DW_AT_bit_offset(0x06), DW_AT_bit_size(0x02)
    1998                      .dwattr $C$DW$203, DW_AT_data_member_location[DW_OP_plus_uconst 0x0]
    1999                      .dwattr $C$DW$203, DW_AT_accessibility(DW_ACCESS_public)
    2000              $C$DW$204       .dwtag  DW_TAG_member
    2001                      .dwattr $C$DW$204, DW_AT_type(*$C$DW$T$19)
    2002                      .dwattr $C$DW$204, DW_AT_name("GPIO85")
    2003                      .dwattr $C$DW$204, DW_AT_TI_symbol_name("_GPIO85")
    2004                      .dwattr $C$DW$204, DW_AT_bit_offset(0x04), DW_AT_bit_size(0x02)
    2005                      .dwattr $C$DW$204, DW_AT_data_member_location[DW_OP_plus_uconst 0x0]
    2006                      .dwattr $C$DW$204, DW_AT_accessibility(DW_ACCESS_public)
    2007              $C$DW$205       .dwtag  DW_TAG_member
    2008                      .dwattr $C$DW$205, DW_AT_type(*$C$DW$T$19)
    2009                      .dwattr $C$DW$205, DW_AT_name("GPIO86")
    2010                      .dwattr $C$DW$205, DW_AT_TI_symbol_name("_GPIO86")
    2011                      .dwattr $C$DW$205, DW_AT_bit_offset(0x02), DW_AT_bit_size(0x02)
    2012                      .dwattr $C$DW$205, DW_AT_data_member_location[DW_OP_plus_uconst 0x0]
    2013                      .dwattr $C$DW$205, DW_AT_accessibility(DW_ACCESS_public)
    2014              $C$DW$206       .dwtag  DW_TAG_member
    2015                      .dwattr $C$DW$206, DW_AT_type(*$C$DW$T$19)
    2016                      .dwattr $C$DW$206, DW_AT_name("GPIO87")
    2017                      .dwattr $C$DW$206, DW_AT_TI_symbol_name("_GPIO87")
    2018                      .dwattr $C$DW$206, DW_AT_bit_offset(0x00), DW_AT_bit_size(0x02)
    2019                      .dwattr $C$DW$206, DW_AT_data_member_location[DW_OP_plus_uconst 0x0]
    2020                      .dwattr $C$DW$206, DW_AT_accessibility(DW_ACCESS_public)
    2021              $C$DW$207       .dwtag  DW_TAG_member
    2022                      .dwattr $C$DW$207, DW_AT_type(*$C$DW$T$19)
    2023                      .dwattr $C$DW$207, DW_AT_name("rsvd")
    2024                      .dwattr $C$DW$207, DW_AT_TI_symbol_name("_rsvd")
    2025                      .dwattr $C$DW$207, DW_AT_bit_offset(0x00), DW_AT_bit_size(0x10)
    2026                      .dwattr $C$DW$207, DW_AT_data_member_location[DW_OP_plus_uconst 0x1]
    2027                      .dwattr $C$DW$207, DW_AT_accessibility(DW_ACCESS_public)
    2028                      .dwendtag $C$DW$T$39
    2029              
TMS320C2000 Assembler PC v6.2.7 Thu Jul 02 08:31:31 2015

Tools Copyright (c) 1996-2014 Texas Instruments Incorporated
C:\Users\Tester\AppData\Local\Temp\0496010                           PAGE   39

    2030              
    2031              $C$DW$T$40      .dwtag  DW_TAG_union_type
    2032                      .dwattr $C$DW$T$40, DW_AT_name("GPC2_REG")
    2033                      .dwattr $C$DW$T$40, DW_AT_byte_size(0x02)
    2034              $C$DW$208       .dwtag  DW_TAG_member
    2035                      .dwattr $C$DW$208, DW_AT_type(*$C$DW$T$21)
    2036                      .dwattr $C$DW$208, DW_AT_name("all")
    2037                      .dwattr $C$DW$208, DW_AT_TI_symbol_name("_all")
    2038                      .dwattr $C$DW$208, DW_AT_data_member_location[DW_OP_plus_uconst 0x0]
    2039                      .dwattr $C$DW$208, DW_AT_accessibility(DW_ACCESS_public)
    2040              $C$DW$209       .dwtag  DW_TAG_member
    2041                      .dwattr $C$DW$209, DW_AT_type(*$C$DW$T$39)
    2042                      .dwattr $C$DW$209, DW_AT_name("bit")
    2043                      .dwattr $C$DW$209, DW_AT_TI_symbol_name("_bit")
    2044                      .dwattr $C$DW$209, DW_AT_data_member_location[DW_OP_plus_uconst 0x0]
    2045                      .dwattr $C$DW$209, DW_AT_accessibility(DW_ACCESS_public)
    2046                      .dwendtag $C$DW$T$40
    2047              
    2048              
    2049              $C$DW$T$41      .dwtag  DW_TAG_structure_type
    2050                      .dwattr $C$DW$T$41, DW_AT_name("GPCDAT_BITS")
    2051                      .dwattr $C$DW$T$41, DW_AT_byte_size(0x02)
    2052              $C$DW$210       .dwtag  DW_TAG_member
    2053                      .dwattr $C$DW$210, DW_AT_type(*$C$DW$T$19)
    2054                      .dwattr $C$DW$210, DW_AT_name("GPIO64")
    2055                      .dwattr $C$DW$210, DW_AT_TI_symbol_name("_GPIO64")
    2056                      .dwattr $C$DW$210, DW_AT_bit_offset(0x0f), DW_AT_bit_size(0x01)
    2057                      .dwattr $C$DW$210, DW_AT_data_member_location[DW_OP_plus_uconst 0x0]
    2058                      .dwattr $C$DW$210, DW_AT_accessibility(DW_ACCESS_public)
    2059              $C$DW$211       .dwtag  DW_TAG_member
    2060                      .dwattr $C$DW$211, DW_AT_type(*$C$DW$T$19)
    2061                      .dwattr $C$DW$211, DW_AT_name("GPIO65")
    2062                      .dwattr $C$DW$211, DW_AT_TI_symbol_name("_GPIO65")
    2063                      .dwattr $C$DW$211, DW_AT_bit_offset(0x0e), DW_AT_bit_size(0x01)
    2064                      .dwattr $C$DW$211, DW_AT_data_member_location[DW_OP_plus_uconst 0x0]
    2065                      .dwattr $C$DW$211, DW_AT_accessibility(DW_ACCESS_public)
    2066              $C$DW$212       .dwtag  DW_TAG_member
    2067                      .dwattr $C$DW$212, DW_AT_type(*$C$DW$T$19)
    2068                      .dwattr $C$DW$212, DW_AT_name("GPIO66")
    2069                      .dwattr $C$DW$212, DW_AT_TI_symbol_name("_GPIO66")
    2070                      .dwattr $C$DW$212, DW_AT_bit_offset(0x0d), DW_AT_bit_size(0x01)
    2071                      .dwattr $C$DW$212, DW_AT_data_member_location[DW_OP_plus_uconst 0x0]
    2072                      .dwattr $C$DW$212, DW_AT_accessibility(DW_ACCESS_public)
    2073              $C$DW$213       .dwtag  DW_TAG_member
    2074                      .dwattr $C$DW$213, DW_AT_type(*$C$DW$T$19)
    2075                      .dwattr $C$DW$213, DW_AT_name("GPIO67")
    2076                      .dwattr $C$DW$213, DW_AT_TI_symbol_name("_GPIO67")
    2077                      .dwattr $C$DW$213, DW_AT_bit_offset(0x0c), DW_AT_bit_size(0x01)
    2078                      .dwattr $C$DW$213, DW_AT_data_member_location[DW_OP_plus_uconst 0x0]
    2079                      .dwattr $C$DW$213, DW_AT_accessibility(DW_ACCESS_public)
    2080              $C$DW$214       .dwtag  DW_TAG_member
    2081                      .dwattr $C$DW$214, DW_AT_type(*$C$DW$T$19)
    2082                      .dwattr $C$DW$214, DW_AT_name("GPIO68")
    2083                      .dwattr $C$DW$214, DW_AT_TI_symbol_name("_GPIO68")
    2084                      .dwattr $C$DW$214, DW_AT_bit_offset(0x0b), DW_AT_bit_size(0x01)
TMS320C2000 Assembler PC v6.2.7 Thu Jul 02 08:31:31 2015

Tools Copyright (c) 1996-2014 Texas Instruments Incorporated
C:\Users\Tester\AppData\Local\Temp\0496010                           PAGE   40

    2085                      .dwattr $C$DW$214, DW_AT_data_member_location[DW_OP_plus_uconst 0x0]
    2086                      .dwattr $C$DW$214, DW_AT_accessibility(DW_ACCESS_public)
    2087              $C$DW$215       .dwtag  DW_TAG_member
    2088                      .dwattr $C$DW$215, DW_AT_type(*$C$DW$T$19)
    2089                      .dwattr $C$DW$215, DW_AT_name("GPIO69")
    2090                      .dwattr $C$DW$215, DW_AT_TI_symbol_name("_GPIO69")
    2091                      .dwattr $C$DW$215, DW_AT_bit_offset(0x0a), DW_AT_bit_size(0x01)
    2092                      .dwattr $C$DW$215, DW_AT_data_member_location[DW_OP_plus_uconst 0x0]
    2093                      .dwattr $C$DW$215, DW_AT_accessibility(DW_ACCESS_public)
    2094              $C$DW$216       .dwtag  DW_TAG_member
    2095                      .dwattr $C$DW$216, DW_AT_type(*$C$DW$T$19)
    2096                      .dwattr $C$DW$216, DW_AT_name("GPIO70")
    2097                      .dwattr $C$DW$216, DW_AT_TI_symbol_name("_GPIO70")
    2098                      .dwattr $C$DW$216, DW_AT_bit_offset(0x09), DW_AT_bit_size(0x01)
    2099                      .dwattr $C$DW$216, DW_AT_data_member_location[DW_OP_plus_uconst 0x0]
    2100                      .dwattr $C$DW$216, DW_AT_accessibility(DW_ACCESS_public)
    2101              $C$DW$217       .dwtag  DW_TAG_member
    2102                      .dwattr $C$DW$217, DW_AT_type(*$C$DW$T$19)
    2103                      .dwattr $C$DW$217, DW_AT_name("GPIO71")
    2104                      .dwattr $C$DW$217, DW_AT_TI_symbol_name("_GPIO71")
    2105                      .dwattr $C$DW$217, DW_AT_bit_offset(0x08), DW_AT_bit_size(0x01)
    2106                      .dwattr $C$DW$217, DW_AT_data_member_location[DW_OP_plus_uconst 0x0]
    2107                      .dwattr $C$DW$217, DW_AT_accessibility(DW_ACCESS_public)
    2108              $C$DW$218       .dwtag  DW_TAG_member
    2109                      .dwattr $C$DW$218, DW_AT_type(*$C$DW$T$19)
    2110                      .dwattr $C$DW$218, DW_AT_name("GPIO72")
    2111                      .dwattr $C$DW$218, DW_AT_TI_symbol_name("_GPIO72")
    2112                      .dwattr $C$DW$218, DW_AT_bit_offset(0x07), DW_AT_bit_size(0x01)
    2113                      .dwattr $C$DW$218, DW_AT_data_member_location[DW_OP_plus_uconst 0x0]
    2114                      .dwattr $C$DW$218, DW_AT_accessibility(DW_ACCESS_public)
    2115              $C$DW$219       .dwtag  DW_TAG_member
    2116                      .dwattr $C$DW$219, DW_AT_type(*$C$DW$T$19)
    2117                      .dwattr $C$DW$219, DW_AT_name("GPIO73")
    2118                      .dwattr $C$DW$219, DW_AT_TI_symbol_name("_GPIO73")
    2119                      .dwattr $C$DW$219, DW_AT_bit_offset(0x06), DW_AT_bit_size(0x01)
    2120                      .dwattr $C$DW$219, DW_AT_data_member_location[DW_OP_plus_uconst 0x0]
    2121                      .dwattr $C$DW$219, DW_AT_accessibility(DW_ACCESS_public)
    2122              $C$DW$220       .dwtag  DW_TAG_member
    2123                      .dwattr $C$DW$220, DW_AT_type(*$C$DW$T$19)
    2124                      .dwattr $C$DW$220, DW_AT_name("GPIO74")
    2125                      .dwattr $C$DW$220, DW_AT_TI_symbol_name("_GPIO74")
    2126                      .dwattr $C$DW$220, DW_AT_bit_offset(0x05), DW_AT_bit_size(0x01)
    2127                      .dwattr $C$DW$220, DW_AT_data_member_location[DW_OP_plus_uconst 0x0]
    2128                      .dwattr $C$DW$220, DW_AT_accessibility(DW_ACCESS_public)
    2129              $C$DW$221       .dwtag  DW_TAG_member
    2130                      .dwattr $C$DW$221, DW_AT_type(*$C$DW$T$19)
    2131                      .dwattr $C$DW$221, DW_AT_name("GPIO75")
    2132                      .dwattr $C$DW$221, DW_AT_TI_symbol_name("_GPIO75")
    2133                      .dwattr $C$DW$221, DW_AT_bit_offset(0x04), DW_AT_bit_size(0x01)
    2134                      .dwattr $C$DW$221, DW_AT_data_member_location[DW_OP_plus_uconst 0x0]
    2135                      .dwattr $C$DW$221, DW_AT_accessibility(DW_ACCESS_public)
    2136              $C$DW$222       .dwtag  DW_TAG_member
    2137                      .dwattr $C$DW$222, DW_AT_type(*$C$DW$T$19)
    2138                      .dwattr $C$DW$222, DW_AT_name("GPIO76")
    2139                      .dwattr $C$DW$222, DW_AT_TI_symbol_name("_GPIO76")
TMS320C2000 Assembler PC v6.2.7 Thu Jul 02 08:31:31 2015

Tools Copyright (c) 1996-2014 Texas Instruments Incorporated
C:\Users\Tester\AppData\Local\Temp\0496010                           PAGE   41

    2140                      .dwattr $C$DW$222, DW_AT_bit_offset(0x03), DW_AT_bit_size(0x01)
    2141                      .dwattr $C$DW$222, DW_AT_data_member_location[DW_OP_plus_uconst 0x0]
    2142                      .dwattr $C$DW$222, DW_AT_accessibility(DW_ACCESS_public)
    2143              $C$DW$223       .dwtag  DW_TAG_member
    2144                      .dwattr $C$DW$223, DW_AT_type(*$C$DW$T$19)
    2145                      .dwattr $C$DW$223, DW_AT_name("GPIO77")
    2146                      .dwattr $C$DW$223, DW_AT_TI_symbol_name("_GPIO77")
    2147                      .dwattr $C$DW$223, DW_AT_bit_offset(0x02), DW_AT_bit_size(0x01)
    2148                      .dwattr $C$DW$223, DW_AT_data_member_location[DW_OP_plus_uconst 0x0]
    2149                      .dwattr $C$DW$223, DW_AT_accessibility(DW_ACCESS_public)
    2150              $C$DW$224       .dwtag  DW_TAG_member
    2151                      .dwattr $C$DW$224, DW_AT_type(*$C$DW$T$19)
    2152                      .dwattr $C$DW$224, DW_AT_name("GPIO78")
    2153                      .dwattr $C$DW$224, DW_AT_TI_symbol_name("_GPIO78")
    2154                      .dwattr $C$DW$224, DW_AT_bit_offset(0x01), DW_AT_bit_size(0x01)
    2155                      .dwattr $C$DW$224, DW_AT_data_member_location[DW_OP_plus_uconst 0x0]
    2156                      .dwattr $C$DW$224, DW_AT_accessibility(DW_ACCESS_public)
    2157              $C$DW$225       .dwtag  DW_TAG_member
    2158                      .dwattr $C$DW$225, DW_AT_type(*$C$DW$T$19)
    2159                      .dwattr $C$DW$225, DW_AT_name("GPIO79")
    2160                      .dwattr $C$DW$225, DW_AT_TI_symbol_name("_GPIO79")
    2161                      .dwattr $C$DW$225, DW_AT_bit_offset(0x00), DW_AT_bit_size(0x01)
    2162                      .dwattr $C$DW$225, DW_AT_data_member_location[DW_OP_plus_uconst 0x0]
    2163                      .dwattr $C$DW$225, DW_AT_accessibility(DW_ACCESS_public)
    2164              $C$DW$226       .dwtag  DW_TAG_member
    2165                      .dwattr $C$DW$226, DW_AT_type(*$C$DW$T$19)
    2166                      .dwattr $C$DW$226, DW_AT_name("GPIO80")
    2167                      .dwattr $C$DW$226, DW_AT_TI_symbol_name("_GPIO80")
    2168                      .dwattr $C$DW$226, DW_AT_bit_offset(0x0f), DW_AT_bit_size(0x01)
    2169                      .dwattr $C$DW$226, DW_AT_data_member_location[DW_OP_plus_uconst 0x1]
    2170                      .dwattr $C$DW$226, DW_AT_accessibility(DW_ACCESS_public)
    2171              $C$DW$227       .dwtag  DW_TAG_member
    2172                      .dwattr $C$DW$227, DW_AT_type(*$C$DW$T$19)
    2173                      .dwattr $C$DW$227, DW_AT_name("GPIO81")
    2174                      .dwattr $C$DW$227, DW_AT_TI_symbol_name("_GPIO81")
    2175                      .dwattr $C$DW$227, DW_AT_bit_offset(0x0e), DW_AT_bit_size(0x01)
    2176                      .dwattr $C$DW$227, DW_AT_data_member_location[DW_OP_plus_uconst 0x1]
    2177                      .dwattr $C$DW$227, DW_AT_accessibility(DW_ACCESS_public)
    2178              $C$DW$228       .dwtag  DW_TAG_member
    2179                      .dwattr $C$DW$228, DW_AT_type(*$C$DW$T$19)
    2180                      .dwattr $C$DW$228, DW_AT_name("GPIO82")
    2181                      .dwattr $C$DW$228, DW_AT_TI_symbol_name("_GPIO82")
    2182                      .dwattr $C$DW$228, DW_AT_bit_offset(0x0d), DW_AT_bit_size(0x01)
    2183                      .dwattr $C$DW$228, DW_AT_data_member_location[DW_OP_plus_uconst 0x1]
    2184                      .dwattr $C$DW$228, DW_AT_accessibility(DW_ACCESS_public)
    2185              $C$DW$229       .dwtag  DW_TAG_member
    2186                      .dwattr $C$DW$229, DW_AT_type(*$C$DW$T$19)
    2187                      .dwattr $C$DW$229, DW_AT_name("GPIO83")
    2188                      .dwattr $C$DW$229, DW_AT_TI_symbol_name("_GPIO83")
    2189                      .dwattr $C$DW$229, DW_AT_bit_offset(0x0c), DW_AT_bit_size(0x01)
    2190                      .dwattr $C$DW$229, DW_AT_data_member_location[DW_OP_plus_uconst 0x1]
    2191                      .dwattr $C$DW$229, DW_AT_accessibility(DW_ACCESS_public)
    2192              $C$DW$230       .dwtag  DW_TAG_member
    2193                      .dwattr $C$DW$230, DW_AT_type(*$C$DW$T$19)
    2194                      .dwattr $C$DW$230, DW_AT_name("GPIO84")
TMS320C2000 Assembler PC v6.2.7 Thu Jul 02 08:31:31 2015

Tools Copyright (c) 1996-2014 Texas Instruments Incorporated
C:\Users\Tester\AppData\Local\Temp\0496010                           PAGE   42

    2195                      .dwattr $C$DW$230, DW_AT_TI_symbol_name("_GPIO84")
    2196                      .dwattr $C$DW$230, DW_AT_bit_offset(0x0b), DW_AT_bit_size(0x01)
    2197                      .dwattr $C$DW$230, DW_AT_data_member_location[DW_OP_plus_uconst 0x1]
    2198                      .dwattr $C$DW$230, DW_AT_accessibility(DW_ACCESS_public)
    2199              $C$DW$231       .dwtag  DW_TAG_member
    2200                      .dwattr $C$DW$231, DW_AT_type(*$C$DW$T$19)
    2201                      .dwattr $C$DW$231, DW_AT_name("GPIO85")
    2202                      .dwattr $C$DW$231, DW_AT_TI_symbol_name("_GPIO85")
    2203                      .dwattr $C$DW$231, DW_AT_bit_offset(0x0a), DW_AT_bit_size(0x01)
    2204                      .dwattr $C$DW$231, DW_AT_data_member_location[DW_OP_plus_uconst 0x1]
    2205                      .dwattr $C$DW$231, DW_AT_accessibility(DW_ACCESS_public)
    2206              $C$DW$232       .dwtag  DW_TAG_member
    2207                      .dwattr $C$DW$232, DW_AT_type(*$C$DW$T$19)
    2208                      .dwattr $C$DW$232, DW_AT_name("GPIO86")
    2209                      .dwattr $C$DW$232, DW_AT_TI_symbol_name("_GPIO86")
    2210                      .dwattr $C$DW$232, DW_AT_bit_offset(0x09), DW_AT_bit_size(0x01)
    2211                      .dwattr $C$DW$232, DW_AT_data_member_location[DW_OP_plus_uconst 0x1]
    2212                      .dwattr $C$DW$232, DW_AT_accessibility(DW_ACCESS_public)
    2213              $C$DW$233       .dwtag  DW_TAG_member
    2214                      .dwattr $C$DW$233, DW_AT_type(*$C$DW$T$19)
    2215                      .dwattr $C$DW$233, DW_AT_name("GPIO87")
    2216                      .dwattr $C$DW$233, DW_AT_TI_symbol_name("_GPIO87")
    2217                      .dwattr $C$DW$233, DW_AT_bit_offset(0x08), DW_AT_bit_size(0x01)
    2218                      .dwattr $C$DW$233, DW_AT_data_member_location[DW_OP_plus_uconst 0x1]
    2219                      .dwattr $C$DW$233, DW_AT_accessibility(DW_ACCESS_public)
    2220              $C$DW$234       .dwtag  DW_TAG_member
    2221                      .dwattr $C$DW$234, DW_AT_type(*$C$DW$T$19)
    2222                      .dwattr $C$DW$234, DW_AT_name("rsvd1")
    2223                      .dwattr $C$DW$234, DW_AT_TI_symbol_name("_rsvd1")
    2224                      .dwattr $C$DW$234, DW_AT_bit_offset(0x00), DW_AT_bit_size(0x08)
    2225                      .dwattr $C$DW$234, DW_AT_data_member_location[DW_OP_plus_uconst 0x1]
    2226                      .dwattr $C$DW$234, DW_AT_accessibility(DW_ACCESS_public)
    2227                      .dwendtag $C$DW$T$41
    2228              
    2229              
    2230              $C$DW$T$42      .dwtag  DW_TAG_union_type
    2231                      .dwattr $C$DW$T$42, DW_AT_name("GPCDAT_REG")
    2232                      .dwattr $C$DW$T$42, DW_AT_byte_size(0x02)
    2233              $C$DW$235       .dwtag  DW_TAG_member
    2234                      .dwattr $C$DW$235, DW_AT_type(*$C$DW$T$21)
    2235                      .dwattr $C$DW$235, DW_AT_name("all")
    2236                      .dwattr $C$DW$235, DW_AT_TI_symbol_name("_all")
    2237                      .dwattr $C$DW$235, DW_AT_data_member_location[DW_OP_plus_uconst 0x0]
    2238                      .dwattr $C$DW$235, DW_AT_accessibility(DW_ACCESS_public)
    2239              $C$DW$236       .dwtag  DW_TAG_member
    2240                      .dwattr $C$DW$236, DW_AT_type(*$C$DW$T$41)
    2241                      .dwattr $C$DW$236, DW_AT_name("bit")
    2242                      .dwattr $C$DW$236, DW_AT_TI_symbol_name("_bit")
    2243                      .dwattr $C$DW$236, DW_AT_data_member_location[DW_OP_plus_uconst 0x0]
    2244                      .dwattr $C$DW$236, DW_AT_accessibility(DW_ACCESS_public)
    2245                      .dwendtag $C$DW$T$42
    2246              
    2247              
    2248              $C$DW$T$44      .dwtag  DW_TAG_structure_type
    2249                      .dwattr $C$DW$T$44, DW_AT_name("GPIO_CTRL_REGS")
TMS320C2000 Assembler PC v6.2.7 Thu Jul 02 08:31:31 2015

Tools Copyright (c) 1996-2014 Texas Instruments Incorporated
C:\Users\Tester\AppData\Local\Temp\0496010                           PAGE   43

    2250                      .dwattr $C$DW$T$44, DW_AT_byte_size(0x2e)
    2251              $C$DW$237       .dwtag  DW_TAG_member
    2252                      .dwattr $C$DW$237, DW_AT_type(*$C$DW$T$26)
    2253                      .dwattr $C$DW$237, DW_AT_name("GPACTRL")
    2254                      .dwattr $C$DW$237, DW_AT_TI_symbol_name("_GPACTRL")
    2255                      .dwattr $C$DW$237, DW_AT_data_member_location[DW_OP_plus_uconst 0x0]
    2256                      .dwattr $C$DW$237, DW_AT_accessibility(DW_ACCESS_public)
    2257              $C$DW$238       .dwtag  DW_TAG_member
    2258                      .dwattr $C$DW$238, DW_AT_type(*$C$DW$T$22)
    2259                      .dwattr $C$DW$238, DW_AT_name("GPAQSEL1")
    2260                      .dwattr $C$DW$238, DW_AT_TI_symbol_name("_GPAQSEL1")
    2261                      .dwattr $C$DW$238, DW_AT_data_member_location[DW_OP_plus_uconst 0x2]
    2262                      .dwattr $C$DW$238, DW_AT_accessibility(DW_ACCESS_public)
    2263              $C$DW$239       .dwtag  DW_TAG_member
    2264                      .dwattr $C$DW$239, DW_AT_type(*$C$DW$T$24)
    2265                      .dwattr $C$DW$239, DW_AT_name("GPAQSEL2")
    2266                      .dwattr $C$DW$239, DW_AT_TI_symbol_name("_GPAQSEL2")
    2267                      .dwattr $C$DW$239, DW_AT_data_member_location[DW_OP_plus_uconst 0x4]
    2268                      .dwattr $C$DW$239, DW_AT_accessibility(DW_ACCESS_public)
    2269              $C$DW$240       .dwtag  DW_TAG_member
    2270                      .dwattr $C$DW$240, DW_AT_type(*$C$DW$T$22)
    2271                      .dwattr $C$DW$240, DW_AT_name("GPAMUX1")
    2272                      .dwattr $C$DW$240, DW_AT_TI_symbol_name("_GPAMUX1")
    2273                      .dwattr $C$DW$240, DW_AT_data_member_location[DW_OP_plus_uconst 0x6]
    2274                      .dwattr $C$DW$240, DW_AT_accessibility(DW_ACCESS_public)
    2275              $C$DW$241       .dwtag  DW_TAG_member
    2276                      .dwattr $C$DW$241, DW_AT_type(*$C$DW$T$24)
    2277                      .dwattr $C$DW$241, DW_AT_name("GPAMUX2")
    2278                      .dwattr $C$DW$241, DW_AT_TI_symbol_name("_GPAMUX2")
    2279                      .dwattr $C$DW$241, DW_AT_data_member_location[DW_OP_plus_uconst 0x8]
    2280                      .dwattr $C$DW$241, DW_AT_accessibility(DW_ACCESS_public)
    2281              $C$DW$242       .dwtag  DW_TAG_member
    2282                      .dwattr $C$DW$242, DW_AT_type(*$C$DW$T$28)
    2283                      .dwattr $C$DW$242, DW_AT_name("GPADIR")
    2284                      .dwattr $C$DW$242, DW_AT_TI_symbol_name("_GPADIR")
    2285                      .dwattr $C$DW$242, DW_AT_data_member_location[DW_OP_plus_uconst 0xa]
    2286                      .dwattr $C$DW$242, DW_AT_accessibility(DW_ACCESS_public)
    2287              $C$DW$243       .dwtag  DW_TAG_member
    2288                      .dwattr $C$DW$243, DW_AT_type(*$C$DW$T$28)
    2289                      .dwattr $C$DW$243, DW_AT_name("GPAPUD")
    2290                      .dwattr $C$DW$243, DW_AT_TI_symbol_name("_GPAPUD")
    2291                      .dwattr $C$DW$243, DW_AT_data_member_location[DW_OP_plus_uconst 0xc]
    2292                      .dwattr $C$DW$243, DW_AT_accessibility(DW_ACCESS_public)
    2293              $C$DW$244       .dwtag  DW_TAG_member
    2294                      .dwattr $C$DW$244, DW_AT_type(*$C$DW$T$21)
    2295                      .dwattr $C$DW$244, DW_AT_name("rsvd1")
    2296                      .dwattr $C$DW$244, DW_AT_TI_symbol_name("_rsvd1")
    2297                      .dwattr $C$DW$244, DW_AT_data_member_location[DW_OP_plus_uconst 0xe]
    2298                      .dwattr $C$DW$244, DW_AT_accessibility(DW_ACCESS_public)
    2299              $C$DW$245       .dwtag  DW_TAG_member
    2300                      .dwattr $C$DW$245, DW_AT_type(*$C$DW$T$34)
    2301                      .dwattr $C$DW$245, DW_AT_name("GPBCTRL")
    2302                      .dwattr $C$DW$245, DW_AT_TI_symbol_name("_GPBCTRL")
    2303                      .dwattr $C$DW$245, DW_AT_data_member_location[DW_OP_plus_uconst 0x10]
    2304                      .dwattr $C$DW$245, DW_AT_accessibility(DW_ACCESS_public)
TMS320C2000 Assembler PC v6.2.7 Thu Jul 02 08:31:31 2015

Tools Copyright (c) 1996-2014 Texas Instruments Incorporated
C:\Users\Tester\AppData\Local\Temp\0496010                           PAGE   44

    2305              $C$DW$246       .dwtag  DW_TAG_member
    2306                      .dwattr $C$DW$246, DW_AT_type(*$C$DW$T$30)
    2307                      .dwattr $C$DW$246, DW_AT_name("GPBQSEL1")
    2308                      .dwattr $C$DW$246, DW_AT_TI_symbol_name("_GPBQSEL1")
    2309                      .dwattr $C$DW$246, DW_AT_data_member_location[DW_OP_plus_uconst 0x12]
    2310                      .dwattr $C$DW$246, DW_AT_accessibility(DW_ACCESS_public)
    2311              $C$DW$247       .dwtag  DW_TAG_member
    2312                      .dwattr $C$DW$247, DW_AT_type(*$C$DW$T$32)
    2313                      .dwattr $C$DW$247, DW_AT_name("GPBQSEL2")
    2314                      .dwattr $C$DW$247, DW_AT_TI_symbol_name("_GPBQSEL2")
    2315                      .dwattr $C$DW$247, DW_AT_data_member_location[DW_OP_plus_uconst 0x14]
    2316                      .dwattr $C$DW$247, DW_AT_accessibility(DW_ACCESS_public)
    2317              $C$DW$248       .dwtag  DW_TAG_member
    2318                      .dwattr $C$DW$248, DW_AT_type(*$C$DW$T$30)
    2319                      .dwattr $C$DW$248, DW_AT_name("GPBMUX1")
    2320                      .dwattr $C$DW$248, DW_AT_TI_symbol_name("_GPBMUX1")
    2321                      .dwattr $C$DW$248, DW_AT_data_member_location[DW_OP_plus_uconst 0x16]
    2322                      .dwattr $C$DW$248, DW_AT_accessibility(DW_ACCESS_public)
    2323              $C$DW$249       .dwtag  DW_TAG_member
    2324                      .dwattr $C$DW$249, DW_AT_type(*$C$DW$T$32)
    2325                      .dwattr $C$DW$249, DW_AT_name("GPBMUX2")
    2326                      .dwattr $C$DW$249, DW_AT_TI_symbol_name("_GPBMUX2")
    2327                      .dwattr $C$DW$249, DW_AT_data_member_location[DW_OP_plus_uconst 0x18]
    2328                      .dwattr $C$DW$249, DW_AT_accessibility(DW_ACCESS_public)
    2329              $C$DW$250       .dwtag  DW_TAG_member
    2330                      .dwattr $C$DW$250, DW_AT_type(*$C$DW$T$36)
    2331                      .dwattr $C$DW$250, DW_AT_name("GPBDIR")
    2332                      .dwattr $C$DW$250, DW_AT_TI_symbol_name("_GPBDIR")
    2333                      .dwattr $C$DW$250, DW_AT_data_member_location[DW_OP_plus_uconst 0x1a]
    2334                      .dwattr $C$DW$250, DW_AT_accessibility(DW_ACCESS_public)
    2335              $C$DW$251       .dwtag  DW_TAG_member
    2336                      .dwattr $C$DW$251, DW_AT_type(*$C$DW$T$36)
    2337                      .dwattr $C$DW$251, DW_AT_name("GPBPUD")
    2338                      .dwattr $C$DW$251, DW_AT_TI_symbol_name("_GPBPUD")
    2339                      .dwattr $C$DW$251, DW_AT_data_member_location[DW_OP_plus_uconst 0x1c]
    2340                      .dwattr $C$DW$251, DW_AT_accessibility(DW_ACCESS_public)
    2341              $C$DW$252       .dwtag  DW_TAG_member
    2342                      .dwattr $C$DW$252, DW_AT_type(*$C$DW$T$43)
    2343                      .dwattr $C$DW$252, DW_AT_name("rsvd2")
    2344                      .dwattr $C$DW$252, DW_AT_TI_symbol_name("_rsvd2")
    2345                      .dwattr $C$DW$252, DW_AT_data_member_location[DW_OP_plus_uconst 0x1e]
    2346                      .dwattr $C$DW$252, DW_AT_accessibility(DW_ACCESS_public)
    2347              $C$DW$253       .dwtag  DW_TAG_member
    2348                      .dwattr $C$DW$253, DW_AT_type(*$C$DW$T$38)
    2349                      .dwattr $C$DW$253, DW_AT_name("GPCMUX1")
    2350                      .dwattr $C$DW$253, DW_AT_TI_symbol_name("_GPCMUX1")
    2351                      .dwattr $C$DW$253, DW_AT_data_member_location[DW_OP_plus_uconst 0x26]
    2352                      .dwattr $C$DW$253, DW_AT_accessibility(DW_ACCESS_public)
    2353              $C$DW$254       .dwtag  DW_TAG_member
    2354                      .dwattr $C$DW$254, DW_AT_type(*$C$DW$T$40)
    2355                      .dwattr $C$DW$254, DW_AT_name("GPCMUX2")
    2356                      .dwattr $C$DW$254, DW_AT_TI_symbol_name("_GPCMUX2")
    2357                      .dwattr $C$DW$254, DW_AT_data_member_location[DW_OP_plus_uconst 0x28]
    2358                      .dwattr $C$DW$254, DW_AT_accessibility(DW_ACCESS_public)
    2359              $C$DW$255       .dwtag  DW_TAG_member
TMS320C2000 Assembler PC v6.2.7 Thu Jul 02 08:31:31 2015

Tools Copyright (c) 1996-2014 Texas Instruments Incorporated
C:\Users\Tester\AppData\Local\Temp\0496010                           PAGE   45

    2360                      .dwattr $C$DW$255, DW_AT_type(*$C$DW$T$42)
    2361                      .dwattr $C$DW$255, DW_AT_name("GPCDIR")
    2362                      .dwattr $C$DW$255, DW_AT_TI_symbol_name("_GPCDIR")
    2363                      .dwattr $C$DW$255, DW_AT_data_member_location[DW_OP_plus_uconst 0x2a]
    2364                      .dwattr $C$DW$255, DW_AT_accessibility(DW_ACCESS_public)
    2365              $C$DW$256       .dwtag  DW_TAG_member
    2366                      .dwattr $C$DW$256, DW_AT_type(*$C$DW$T$42)
    2367                      .dwattr $C$DW$256, DW_AT_name("GPCPUD")
    2368                      .dwattr $C$DW$256, DW_AT_TI_symbol_name("_GPCPUD")
    2369                      .dwattr $C$DW$256, DW_AT_data_member_location[DW_OP_plus_uconst 0x2c]
    2370                      .dwattr $C$DW$256, DW_AT_accessibility(DW_ACCESS_public)
    2371                      .dwendtag $C$DW$T$44
    2372              
    2373              $C$DW$257       .dwtag  DW_TAG_TI_far_type
    2374                      .dwattr $C$DW$257, DW_AT_type(*$C$DW$T$44)
    2375              $C$DW$T$58      .dwtag  DW_TAG_volatile_type
    2376                      .dwattr $C$DW$T$58, DW_AT_type(*$C$DW$257)
    2377              
    2378              $C$DW$T$45      .dwtag  DW_TAG_structure_type
    2379                      .dwattr $C$DW$T$45, DW_AT_name("GPIO_DATA_REGS")
    2380                      .dwattr $C$DW$T$45, DW_AT_byte_size(0x20)
    2381              $C$DW$258       .dwtag  DW_TAG_member
    2382                      .dwattr $C$DW$258, DW_AT_type(*$C$DW$T$28)
    2383                      .dwattr $C$DW$258, DW_AT_name("GPADAT")
    2384                      .dwattr $C$DW$258, DW_AT_TI_symbol_name("_GPADAT")
    2385                      .dwattr $C$DW$258, DW_AT_data_member_location[DW_OP_plus_uconst 0x0]
    2386                      .dwattr $C$DW$258, DW_AT_accessibility(DW_ACCESS_public)
    2387              $C$DW$259       .dwtag  DW_TAG_member
    2388                      .dwattr $C$DW$259, DW_AT_type(*$C$DW$T$28)
    2389                      .dwattr $C$DW$259, DW_AT_name("GPASET")
    2390                      .dwattr $C$DW$259, DW_AT_TI_symbol_name("_GPASET")
    2391                      .dwattr $C$DW$259, DW_AT_data_member_location[DW_OP_plus_uconst 0x2]
    2392                      .dwattr $C$DW$259, DW_AT_accessibility(DW_ACCESS_public)
    2393              $C$DW$260       .dwtag  DW_TAG_member
    2394                      .dwattr $C$DW$260, DW_AT_type(*$C$DW$T$28)
    2395                      .dwattr $C$DW$260, DW_AT_name("GPACLEAR")
    2396                      .dwattr $C$DW$260, DW_AT_TI_symbol_name("_GPACLEAR")
    2397                      .dwattr $C$DW$260, DW_AT_data_member_location[DW_OP_plus_uconst 0x4]
    2398                      .dwattr $C$DW$260, DW_AT_accessibility(DW_ACCESS_public)
    2399              $C$DW$261       .dwtag  DW_TAG_member
    2400                      .dwattr $C$DW$261, DW_AT_type(*$C$DW$T$28)
    2401                      .dwattr $C$DW$261, DW_AT_name("GPATOGGLE")
    2402                      .dwattr $C$DW$261, DW_AT_TI_symbol_name("_GPATOGGLE")
    2403                      .dwattr $C$DW$261, DW_AT_data_member_location[DW_OP_plus_uconst 0x6]
    2404                      .dwattr $C$DW$261, DW_AT_accessibility(DW_ACCESS_public)
    2405              $C$DW$262       .dwtag  DW_TAG_member
    2406                      .dwattr $C$DW$262, DW_AT_type(*$C$DW$T$36)
    2407                      .dwattr $C$DW$262, DW_AT_name("GPBDAT")
    2408                      .dwattr $C$DW$262, DW_AT_TI_symbol_name("_GPBDAT")
    2409                      .dwattr $C$DW$262, DW_AT_data_member_location[DW_OP_plus_uconst 0x8]
    2410                      .dwattr $C$DW$262, DW_AT_accessibility(DW_ACCESS_public)
    2411              $C$DW$263       .dwtag  DW_TAG_member
    2412                      .dwattr $C$DW$263, DW_AT_type(*$C$DW$T$36)
    2413                      .dwattr $C$DW$263, DW_AT_name("GPBSET")
    2414                      .dwattr $C$DW$263, DW_AT_TI_symbol_name("_GPBSET")
TMS320C2000 Assembler PC v6.2.7 Thu Jul 02 08:31:31 2015

Tools Copyright (c) 1996-2014 Texas Instruments Incorporated
C:\Users\Tester\AppData\Local\Temp\0496010                           PAGE   46

    2415                      .dwattr $C$DW$263, DW_AT_data_member_location[DW_OP_plus_uconst 0xa]
    2416                      .dwattr $C$DW$263, DW_AT_accessibility(DW_ACCESS_public)
    2417              $C$DW$264       .dwtag  DW_TAG_member
    2418                      .dwattr $C$DW$264, DW_AT_type(*$C$DW$T$36)
    2419                      .dwattr $C$DW$264, DW_AT_name("GPBCLEAR")
    2420                      .dwattr $C$DW$264, DW_AT_TI_symbol_name("_GPBCLEAR")
    2421                      .dwattr $C$DW$264, DW_AT_data_member_location[DW_OP_plus_uconst 0xc]
    2422                      .dwattr $C$DW$264, DW_AT_accessibility(DW_ACCESS_public)
    2423              $C$DW$265       .dwtag  DW_TAG_member
    2424                      .dwattr $C$DW$265, DW_AT_type(*$C$DW$T$36)
    2425                      .dwattr $C$DW$265, DW_AT_name("GPBTOGGLE")
    2426                      .dwattr $C$DW$265, DW_AT_TI_symbol_name("_GPBTOGGLE")
    2427                      .dwattr $C$DW$265, DW_AT_data_member_location[DW_OP_plus_uconst 0xe]
    2428                      .dwattr $C$DW$265, DW_AT_accessibility(DW_ACCESS_public)
    2429              $C$DW$266       .dwtag  DW_TAG_member
    2430                      .dwattr $C$DW$266, DW_AT_type(*$C$DW$T$42)
    2431                      .dwattr $C$DW$266, DW_AT_name("GPCDAT")
    2432                      .dwattr $C$DW$266, DW_AT_TI_symbol_name("_GPCDAT")
    2433                      .dwattr $C$DW$266, DW_AT_data_member_location[DW_OP_plus_uconst 0x10]
    2434                      .dwattr $C$DW$266, DW_AT_accessibility(DW_ACCESS_public)
    2435              $C$DW$267       .dwtag  DW_TAG_member
    2436                      .dwattr $C$DW$267, DW_AT_type(*$C$DW$T$42)
    2437                      .dwattr $C$DW$267, DW_AT_name("GPCSET")
    2438                      .dwattr $C$DW$267, DW_AT_TI_symbol_name("_GPCSET")
    2439                      .dwattr $C$DW$267, DW_AT_data_member_location[DW_OP_plus_uconst 0x12]
    2440                      .dwattr $C$DW$267, DW_AT_accessibility(DW_ACCESS_public)
    2441              $C$DW$268       .dwtag  DW_TAG_member
    2442                      .dwattr $C$DW$268, DW_AT_type(*$C$DW$T$42)
    2443                      .dwattr $C$DW$268, DW_AT_name("GPCCLEAR")
    2444                      .dwattr $C$DW$268, DW_AT_TI_symbol_name("_GPCCLEAR")
    2445                      .dwattr $C$DW$268, DW_AT_data_member_location[DW_OP_plus_uconst 0x14]
    2446                      .dwattr $C$DW$268, DW_AT_accessibility(DW_ACCESS_public)
    2447              $C$DW$269       .dwtag  DW_TAG_member
    2448                      .dwattr $C$DW$269, DW_AT_type(*$C$DW$T$42)
    2449                      .dwattr $C$DW$269, DW_AT_name("GPCTOGGLE")
    2450                      .dwattr $C$DW$269, DW_AT_TI_symbol_name("_GPCTOGGLE")
    2451                      .dwattr $C$DW$269, DW_AT_data_member_location[DW_OP_plus_uconst 0x16]
    2452                      .dwattr $C$DW$269, DW_AT_accessibility(DW_ACCESS_public)
    2453              $C$DW$270       .dwtag  DW_TAG_member
    2454                      .dwattr $C$DW$270, DW_AT_type(*$C$DW$T$43)
    2455                      .dwattr $C$DW$270, DW_AT_name("rsvd1")
    2456                      .dwattr $C$DW$270, DW_AT_TI_symbol_name("_rsvd1")
    2457                      .dwattr $C$DW$270, DW_AT_data_member_location[DW_OP_plus_uconst 0x18]
    2458                      .dwattr $C$DW$270, DW_AT_accessibility(DW_ACCESS_public)
    2459                      .dwendtag $C$DW$T$45
    2460              
    2461              $C$DW$271       .dwtag  DW_TAG_TI_far_type
    2462                      .dwattr $C$DW$271, DW_AT_type(*$C$DW$T$45)
    2463              $C$DW$T$59      .dwtag  DW_TAG_volatile_type
    2464                      .dwattr $C$DW$T$59, DW_AT_type(*$C$DW$271)
    2465              $C$DW$T$4       .dwtag  DW_TAG_base_type
    2466                      .dwattr $C$DW$T$4, DW_AT_encoding(DW_ATE_boolean)
    2467                      .dwattr $C$DW$T$4, DW_AT_name("bool")
    2468                      .dwattr $C$DW$T$4, DW_AT_byte_size(0x01)
    2469              $C$DW$T$5       .dwtag  DW_TAG_base_type
TMS320C2000 Assembler PC v6.2.7 Thu Jul 02 08:31:31 2015

Tools Copyright (c) 1996-2014 Texas Instruments Incorporated
C:\Users\Tester\AppData\Local\Temp\0496010                           PAGE   47

    2470                      .dwattr $C$DW$T$5, DW_AT_encoding(DW_ATE_signed_char)
    2471                      .dwattr $C$DW$T$5, DW_AT_name("signed char")
    2472                      .dwattr $C$DW$T$5, DW_AT_byte_size(0x01)
    2473              $C$DW$T$6       .dwtag  DW_TAG_base_type
    2474                      .dwattr $C$DW$T$6, DW_AT_encoding(DW_ATE_unsigned_char)
    2475                      .dwattr $C$DW$T$6, DW_AT_name("unsigned char")
    2476                      .dwattr $C$DW$T$6, DW_AT_byte_size(0x01)
    2477              $C$DW$T$7       .dwtag  DW_TAG_base_type
    2478                      .dwattr $C$DW$T$7, DW_AT_encoding(DW_ATE_signed_char)
    2479                      .dwattr $C$DW$T$7, DW_AT_name("wchar_t")
    2480                      .dwattr $C$DW$T$7, DW_AT_byte_size(0x01)
    2481              $C$DW$T$8       .dwtag  DW_TAG_base_type
    2482                      .dwattr $C$DW$T$8, DW_AT_encoding(DW_ATE_signed)
    2483                      .dwattr $C$DW$T$8, DW_AT_name("short")
    2484                      .dwattr $C$DW$T$8, DW_AT_byte_size(0x01)
    2485              $C$DW$T$9       .dwtag  DW_TAG_base_type
    2486                      .dwattr $C$DW$T$9, DW_AT_encoding(DW_ATE_unsigned)
    2487                      .dwattr $C$DW$T$9, DW_AT_name("unsigned short")
    2488                      .dwattr $C$DW$T$9, DW_AT_byte_size(0x01)
    2489              $C$DW$T$10      .dwtag  DW_TAG_base_type
    2490                      .dwattr $C$DW$T$10, DW_AT_encoding(DW_ATE_signed)
    2491                      .dwattr $C$DW$T$10, DW_AT_name("int")
    2492                      .dwattr $C$DW$T$10, DW_AT_byte_size(0x01)
    2493              $C$DW$T$11      .dwtag  DW_TAG_base_type
    2494                      .dwattr $C$DW$T$11, DW_AT_encoding(DW_ATE_unsigned)
    2495                      .dwattr $C$DW$T$11, DW_AT_name("unsigned int")
    2496                      .dwattr $C$DW$T$11, DW_AT_byte_size(0x01)
    2497              $C$DW$T$19      .dwtag  DW_TAG_typedef, DW_AT_name("Uint16")
    2498                      .dwattr $C$DW$T$19, DW_AT_type(*$C$DW$T$11)
    2499                      .dwattr $C$DW$T$19, DW_AT_language(DW_LANG_C)
    2500              
    2501              $C$DW$T$43      .dwtag  DW_TAG_array_type
    2502                      .dwattr $C$DW$T$43, DW_AT_type(*$C$DW$T$19)
    2503                      .dwattr $C$DW$T$43, DW_AT_language(DW_LANG_C)
    2504                      .dwattr $C$DW$T$43, DW_AT_byte_size(0x08)
    2505              $C$DW$272       .dwtag  DW_TAG_subrange_type
    2506                      .dwattr $C$DW$272, DW_AT_upper_bound(0x07)
    2507                      .dwendtag $C$DW$T$43
    2508              
    2509              $C$DW$T$12      .dwtag  DW_TAG_base_type
    2510                      .dwattr $C$DW$T$12, DW_AT_encoding(DW_ATE_signed)
    2511                      .dwattr $C$DW$T$12, DW_AT_name("long")
    2512                      .dwattr $C$DW$T$12, DW_AT_byte_size(0x02)
    2513              $C$DW$T$13      .dwtag  DW_TAG_base_type
    2514                      .dwattr $C$DW$T$13, DW_AT_encoding(DW_ATE_unsigned)
    2515                      .dwattr $C$DW$T$13, DW_AT_name("unsigned long")
    2516                      .dwattr $C$DW$T$13, DW_AT_byte_size(0x02)
    2517              $C$DW$T$21      .dwtag  DW_TAG_typedef, DW_AT_name("Uint32")
    2518                      .dwattr $C$DW$T$21, DW_AT_type(*$C$DW$T$13)
    2519                      .dwattr $C$DW$T$21, DW_AT_language(DW_LANG_C)
    2520              $C$DW$T$14      .dwtag  DW_TAG_base_type
    2521                      .dwattr $C$DW$T$14, DW_AT_encoding(DW_ATE_signed)
    2522                      .dwattr $C$DW$T$14, DW_AT_name("long long")
    2523                      .dwattr $C$DW$T$14, DW_AT_byte_size(0x04)
    2524              $C$DW$T$15      .dwtag  DW_TAG_base_type
TMS320C2000 Assembler PC v6.2.7 Thu Jul 02 08:31:31 2015

Tools Copyright (c) 1996-2014 Texas Instruments Incorporated
C:\Users\Tester\AppData\Local\Temp\0496010                           PAGE   48

    2525                      .dwattr $C$DW$T$15, DW_AT_encoding(DW_ATE_unsigned)
    2526                      .dwattr $C$DW$T$15, DW_AT_name("unsigned long long")
    2527                      .dwattr $C$DW$T$15, DW_AT_byte_size(0x04)
    2528              $C$DW$T$16      .dwtag  DW_TAG_base_type
    2529                      .dwattr $C$DW$T$16, DW_AT_encoding(DW_ATE_float)
    2530                      .dwattr $C$DW$T$16, DW_AT_name("float")
    2531                      .dwattr $C$DW$T$16, DW_AT_byte_size(0x02)
    2532              $C$DW$T$17      .dwtag  DW_TAG_base_type
    2533                      .dwattr $C$DW$T$17, DW_AT_encoding(DW_ATE_float)
    2534                      .dwattr $C$DW$T$17, DW_AT_name("double")
    2535                      .dwattr $C$DW$T$17, DW_AT_byte_size(0x02)
    2536              $C$DW$T$18      .dwtag  DW_TAG_base_type
    2537                      .dwattr $C$DW$T$18, DW_AT_encoding(DW_ATE_float)
    2538                      .dwattr $C$DW$T$18, DW_AT_name("long double")
    2539                      .dwattr $C$DW$T$18, DW_AT_byte_size(0x04)
    2540                      .dwattr $C$DW$CU, DW_AT_language(DW_LANG_C)
    2541              
    2542              ;***************************************************************
    2543              ;* DWARF CIE ENTRIES                                           *
    2544              ;***************************************************************
    2545              
    2546              $C$DW$CIE       .dwcie 78
    2547                      .dwcfi  cfa_register, 20
    2548                      .dwcfi  cfa_offset, 0
    2549                      .dwcfi  undefined, 0
    2550                      .dwcfi  undefined, 1
    2551                      .dwcfi  undefined, 2
    2552                      .dwcfi  undefined, 3
    2553                      .dwcfi  undefined, 20
    2554                      .dwcfi  undefined, 21
    2555                      .dwcfi  undefined, 22
    2556                      .dwcfi  undefined, 23
    2557                      .dwcfi  undefined, 24
    2558                      .dwcfi  undefined, 25
    2559                      .dwcfi  undefined, 26
    2560                      .dwcfi  same_value, 28
    2561                      .dwcfi  undefined, 29
    2562                      .dwcfi  undefined, 30
    2563                      .dwcfi  undefined, 31
    2564                      .dwcfi  undefined, 32
    2565                      .dwcfi  undefined, 33
    2566                      .dwcfi  undefined, 34
    2567                      .dwcfi  undefined, 35
    2568                      .dwcfi  undefined, 36
    2569                      .dwcfi  undefined, 37
    2570                      .dwcfi  undefined, 38
    2571                      .dwcfi  undefined, 75
    2572                      .dwcfi  undefined, 76
    2573                      .dwcfi  undefined, 77
    2574                      .dwcfi  undefined, 4
    2575                      .dwcfi  same_value, 6
    2576                      .dwcfi  same_value, 8
    2577                      .dwcfi  same_value, 10
    2578                      .dwcfi  undefined, 12
    2579                      .dwcfi  undefined, 14
TMS320C2000 Assembler PC v6.2.7 Thu Jul 02 08:31:31 2015

Tools Copyright (c) 1996-2014 Texas Instruments Incorporated
C:\Users\Tester\AppData\Local\Temp\0496010                           PAGE   49

    2580                      .dwcfi  undefined, 16
    2581                      .dwcfi  undefined, 17
    2582                      .dwcfi  undefined, 18
    2583                      .dwcfi  undefined, 19
    2584                      .dwcfi  undefined, 5
    2585                      .dwcfi  same_value, 7
    2586                      .dwcfi  same_value, 9
    2587                      .dwcfi  same_value, 11
    2588                      .dwcfi  undefined, 13
    2589                      .dwcfi  undefined, 15
    2590                      .dwcfi  undefined, 43
    2591                      .dwcfi  undefined, 44
    2592                      .dwcfi  undefined, 47
    2593                      .dwcfi  undefined, 48
    2594                      .dwcfi  undefined, 51
    2595                      .dwcfi  undefined, 52
    2596                      .dwcfi  undefined, 55
    2597                      .dwcfi  undefined, 56
    2598                      .dwcfi  same_value, 59
    2599                      .dwcfi  same_value, 60
    2600                      .dwcfi  same_value, 63
    2601                      .dwcfi  same_value, 64
    2602                      .dwcfi  same_value, 67
    2603                      .dwcfi  same_value, 68
    2604                      .dwcfi  same_value, 71
    2605                      .dwcfi  same_value, 72
    2606                      .dwcfi  undefined, 73
    2607                      .dwcfi  undefined, 74
    2608                      .dwcfi  undefined, 39
    2609                      .dwcfi  undefined, 40
    2610                      .dwcfi  undefined, 27
    2611                      .dwcfi  undefined, 78
    2612                      .dwendentry
    2613              
    2614              ;***************************************************************
    2615              ;* DWARF REGISTER MAP                                          *
    2616              ;***************************************************************
    2617              
    2618              $C$DW$273       .dwtag  DW_TAG_TI_assign_register, DW_AT_name("AL")
    2619                      .dwattr $C$DW$273, DW_AT_location[DW_OP_reg0]
    2620              $C$DW$274       .dwtag  DW_TAG_TI_assign_register, DW_AT_name("AH")
    2621                      .dwattr $C$DW$274, DW_AT_location[DW_OP_reg1]
    2622              $C$DW$275       .dwtag  DW_TAG_TI_assign_register, DW_AT_name("PL")
    2623                      .dwattr $C$DW$275, DW_AT_location[DW_OP_reg2]
    2624              $C$DW$276       .dwtag  DW_TAG_TI_assign_register, DW_AT_name("PH")
    2625                      .dwattr $C$DW$276, DW_AT_location[DW_OP_reg3]
    2626              $C$DW$277       .dwtag  DW_TAG_TI_assign_register, DW_AT_name("SP")
    2627                      .dwattr $C$DW$277, DW_AT_location[DW_OP_reg20]
    2628              $C$DW$278       .dwtag  DW_TAG_TI_assign_register, DW_AT_name("XT")
    2629                      .dwattr $C$DW$278, DW_AT_location[DW_OP_reg21]
    2630              $C$DW$279       .dwtag  DW_TAG_TI_assign_register, DW_AT_name("T")
    2631                      .dwattr $C$DW$279, DW_AT_location[DW_OP_reg22]
    2632              $C$DW$280       .dwtag  DW_TAG_TI_assign_register, DW_AT_name("ST0")
    2633                      .dwattr $C$DW$280, DW_AT_location[DW_OP_reg23]
    2634              $C$DW$281       .dwtag  DW_TAG_TI_assign_register, DW_AT_name("ST1")
TMS320C2000 Assembler PC v6.2.7 Thu Jul 02 08:31:31 2015

Tools Copyright (c) 1996-2014 Texas Instruments Incorporated
C:\Users\Tester\AppData\Local\Temp\0496010                           PAGE   50

    2635                      .dwattr $C$DW$281, DW_AT_location[DW_OP_reg24]
    2636              $C$DW$282       .dwtag  DW_TAG_TI_assign_register, DW_AT_name("PC")
    2637                      .dwattr $C$DW$282, DW_AT_location[DW_OP_reg25]
    2638              $C$DW$283       .dwtag  DW_TAG_TI_assign_register, DW_AT_name("RPC")
    2639                      .dwattr $C$DW$283, DW_AT_location[DW_OP_reg26]
    2640              $C$DW$284       .dwtag  DW_TAG_TI_assign_register, DW_AT_name("FP")
    2641                      .dwattr $C$DW$284, DW_AT_location[DW_OP_reg28]
    2642              $C$DW$285       .dwtag  DW_TAG_TI_assign_register, DW_AT_name("DP")
    2643                      .dwattr $C$DW$285, DW_AT_location[DW_OP_reg29]
    2644              $C$DW$286       .dwtag  DW_TAG_TI_assign_register, DW_AT_name("SXM")
    2645                      .dwattr $C$DW$286, DW_AT_location[DW_OP_reg30]
    2646              $C$DW$287       .dwtag  DW_TAG_TI_assign_register, DW_AT_name("PM")
    2647                      .dwattr $C$DW$287, DW_AT_location[DW_OP_reg31]
    2648              $C$DW$288       .dwtag  DW_TAG_TI_assign_register, DW_AT_name("OVM")
    2649                      .dwattr $C$DW$288, DW_AT_location[DW_OP_regx 0x20]
    2650              $C$DW$289       .dwtag  DW_TAG_TI_assign_register, DW_AT_name("PAGE0")
    2651                      .dwattr $C$DW$289, DW_AT_location[DW_OP_regx 0x21]
    2652              $C$DW$290       .dwtag  DW_TAG_TI_assign_register, DW_AT_name("AMODE")
    2653                      .dwattr $C$DW$290, DW_AT_location[DW_OP_regx 0x22]
    2654              $C$DW$291       .dwtag  DW_TAG_TI_assign_register, DW_AT_name("INTM")
    2655                      .dwattr $C$DW$291, DW_AT_location[DW_OP_regx 0x23]
    2656              $C$DW$292       .dwtag  DW_TAG_TI_assign_register, DW_AT_name("IFR")
    2657                      .dwattr $C$DW$292, DW_AT_location[DW_OP_regx 0x24]
    2658              $C$DW$293       .dwtag  DW_TAG_TI_assign_register, DW_AT_name("IER")
    2659                      .dwattr $C$DW$293, DW_AT_location[DW_OP_regx 0x25]
    2660              $C$DW$294       .dwtag  DW_TAG_TI_assign_register, DW_AT_name("V")
    2661                      .dwattr $C$DW$294, DW_AT_location[DW_OP_regx 0x26]
    2662              $C$DW$295       .dwtag  DW_TAG_TI_assign_register, DW_AT_name("PSEUDOH")
    2663                      .dwattr $C$DW$295, DW_AT_location[DW_OP_regx 0x4c]
    2664              $C$DW$296       .dwtag  DW_TAG_TI_assign_register, DW_AT_name("VOL")
    2665                      .dwattr $C$DW$296, DW_AT_location[DW_OP_regx 0x4d]
    2666              $C$DW$297       .dwtag  DW_TAG_TI_assign_register, DW_AT_name("AR0")
    2667                      .dwattr $C$DW$297, DW_AT_location[DW_OP_reg4]
    2668              $C$DW$298       .dwtag  DW_TAG_TI_assign_register, DW_AT_name("AR1")
    2669                      .dwattr $C$DW$298, DW_AT_location[DW_OP_reg6]
    2670              $C$DW$299       .dwtag  DW_TAG_TI_assign_register, DW_AT_name("AR2")
    2671                      .dwattr $C$DW$299, DW_AT_location[DW_OP_reg8]
    2672              $C$DW$300       .dwtag  DW_TAG_TI_assign_register, DW_AT_name("AR3")
    2673                      .dwattr $C$DW$300, DW_AT_location[DW_OP_reg10]
    2674              $C$DW$301       .dwtag  DW_TAG_TI_assign_register, DW_AT_name("AR4")
    2675                      .dwattr $C$DW$301, DW_AT_location[DW_OP_reg12]
    2676              $C$DW$302       .dwtag  DW_TAG_TI_assign_register, DW_AT_name("AR5")
    2677                      .dwattr $C$DW$302, DW_AT_location[DW_OP_reg14]
    2678              $C$DW$303       .dwtag  DW_TAG_TI_assign_register, DW_AT_name("AR6")
    2679                      .dwattr $C$DW$303, DW_AT_location[DW_OP_reg16]
    2680              $C$DW$304       .dwtag  DW_TAG_TI_assign_register, DW_AT_name("XAR6")
    2681                      .dwattr $C$DW$304, DW_AT_location[DW_OP_reg17]
    2682              $C$DW$305       .dwtag  DW_TAG_TI_assign_register, DW_AT_name("AR7")
    2683                      .dwattr $C$DW$305, DW_AT_location[DW_OP_reg18]
    2684              $C$DW$306       .dwtag  DW_TAG_TI_assign_register, DW_AT_name("XAR7")
    2685                      .dwattr $C$DW$306, DW_AT_location[DW_OP_reg19]
    2686              $C$DW$307       .dwtag  DW_TAG_TI_assign_register, DW_AT_name("XAR0")
    2687                      .dwattr $C$DW$307, DW_AT_location[DW_OP_reg5]
    2688              $C$DW$308       .dwtag  DW_TAG_TI_assign_register, DW_AT_name("XAR1")
    2689                      .dwattr $C$DW$308, DW_AT_location[DW_OP_reg7]
TMS320C2000 Assembler PC v6.2.7 Thu Jul 02 08:31:31 2015

Tools Copyright (c) 1996-2014 Texas Instruments Incorporated
C:\Users\Tester\AppData\Local\Temp\0496010                           PAGE   51

    2690              $C$DW$309       .dwtag  DW_TAG_TI_assign_register, DW_AT_name("XAR2")
    2691                      .dwattr $C$DW$309, DW_AT_location[DW_OP_reg9]
    2692              $C$DW$310       .dwtag  DW_TAG_TI_assign_register, DW_AT_name("XAR3")
    2693                      .dwattr $C$DW$310, DW_AT_location[DW_OP_reg11]
    2694              $C$DW$311       .dwtag  DW_TAG_TI_assign_register, DW_AT_name("XAR4")
    2695                      .dwattr $C$DW$311, DW_AT_location[DW_OP_reg13]
    2696              $C$DW$312       .dwtag  DW_TAG_TI_assign_register, DW_AT_name("XAR5")
    2697                      .dwattr $C$DW$312, DW_AT_location[DW_OP_reg15]
    2698              $C$DW$313       .dwtag  DW_TAG_TI_assign_register, DW_AT_name("R0HL")
    2699                      .dwattr $C$DW$313, DW_AT_location[DW_OP_regx 0x2b]
    2700              $C$DW$314       .dwtag  DW_TAG_TI_assign_register, DW_AT_name("R0H")
    2701                      .dwattr $C$DW$314, DW_AT_location[DW_OP_regx 0x2c]
    2702              $C$DW$315       .dwtag  DW_TAG_TI_assign_register, DW_AT_name("R1HL")
    2703                      .dwattr $C$DW$315, DW_AT_location[DW_OP_regx 0x2f]
    2704              $C$DW$316       .dwtag  DW_TAG_TI_assign_register, DW_AT_name("R1H")
    2705                      .dwattr $C$DW$316, DW_AT_location[DW_OP_regx 0x30]
    2706              $C$DW$317       .dwtag  DW_TAG_TI_assign_register, DW_AT_name("R2HL")
    2707                      .dwattr $C$DW$317, DW_AT_location[DW_OP_regx 0x33]
    2708              $C$DW$318       .dwtag  DW_TAG_TI_assign_register, DW_AT_name("R2H")
    2709                      .dwattr $C$DW$318, DW_AT_location[DW_OP_regx 0x34]
    2710              $C$DW$319       .dwtag  DW_TAG_TI_assign_register, DW_AT_name("R3HL")
    2711                      .dwattr $C$DW$319, DW_AT_location[DW_OP_regx 0x37]
    2712              $C$DW$320       .dwtag  DW_TAG_TI_assign_register, DW_AT_name("R3H")
    2713                      .dwattr $C$DW$320, DW_AT_location[DW_OP_regx 0x38]
    2714              $C$DW$321       .dwtag  DW_TAG_TI_assign_register, DW_AT_name("R4HL")
    2715                      .dwattr $C$DW$321, DW_AT_location[DW_OP_regx 0x3b]
    2716              $C$DW$322       .dwtag  DW_TAG_TI_assign_register, DW_AT_name("R4H")
    2717                      .dwattr $C$DW$322, DW_AT_location[DW_OP_regx 0x3c]
    2718              $C$DW$323       .dwtag  DW_TAG_TI_assign_register, DW_AT_name("R5HL")
    2719                      .dwattr $C$DW$323, DW_AT_location[DW_OP_regx 0x3f]
    2720              $C$DW$324       .dwtag  DW_TAG_TI_assign_register, DW_AT_name("R5H")
    2721                      .dwattr $C$DW$324, DW_AT_location[DW_OP_regx 0x40]
    2722              $C$DW$325       .dwtag  DW_TAG_TI_assign_register, DW_AT_name("R6HL")
    2723                      .dwattr $C$DW$325, DW_AT_location[DW_OP_regx 0x43]
    2724              $C$DW$326       .dwtag  DW_TAG_TI_assign_register, DW_AT_name("R6H")
    2725                      .dwattr $C$DW$326, DW_AT_location[DW_OP_regx 0x44]
    2726              $C$DW$327       .dwtag  DW_TAG_TI_assign_register, DW_AT_name("R7HL")
    2727                      .dwattr $C$DW$327, DW_AT_location[DW_OP_regx 0x47]
    2728              $C$DW$328       .dwtag  DW_TAG_TI_assign_register, DW_AT_name("R7H")
    2729                      .dwattr $C$DW$328, DW_AT_location[DW_OP_regx 0x48]
    2730              $C$DW$329       .dwtag  DW_TAG_TI_assign_register, DW_AT_name("RBL")
    2731                      .dwattr $C$DW$329, DW_AT_location[DW_OP_regx 0x49]
    2732              $C$DW$330       .dwtag  DW_TAG_TI_assign_register, DW_AT_name("RB")
    2733                      .dwattr $C$DW$330, DW_AT_location[DW_OP_regx 0x4a]
    2734              $C$DW$331       .dwtag  DW_TAG_TI_assign_register, DW_AT_name("STFL")
    2735                      .dwattr $C$DW$331, DW_AT_location[DW_OP_regx 0x27]
    2736              $C$DW$332       .dwtag  DW_TAG_TI_assign_register, DW_AT_name("STF")
    2737                      .dwattr $C$DW$332, DW_AT_location[DW_OP_regx 0x28]
    2738              $C$DW$333       .dwtag  DW_TAG_TI_assign_register, DW_AT_name("FPUHAZ")
    2739                      .dwattr $C$DW$333, DW_AT_location[DW_OP_reg27]
    2740              $C$DW$334       .dwtag  DW_TAG_TI_assign_register, DW_AT_name("CIE_RETA")
    2741                      .dwattr $C$DW$334, DW_AT_location[DW_OP_regx 0x4e]
    2742                      .dwendtag $C$DW$CU
    2743              

No Assembly Errors, No Assembly Warnings
