TMS320C2000 Assembler PC v6.2.7 Thu Jul 02 08:31:06 2015

Tools Copyright (c) 1996-2014 Texas Instruments Incorporated
C:\Users\Tester\AppData\Local\Temp\0465610                           PAGE    1

       1              ;***************************************************************
       2              ;* TMS320C2000 C/C++ Codegen                         PC v6.2.7 *
       3              ;* Date/Time created: Thu Jul 02 08:31:06 2015                 *
       4              ;***************************************************************
       5                      .compiler_opts --diag_wrap=off --float_support=fpu32 --hll_source=on --mem_model:code=flat --mem_mode
       6        0002  FP      .set    XAR2
       7              
       8              $C$DW$CU        .dwtag  DW_TAG_compile_unit
       9                      .dwattr $C$DW$CU, DW_AT_name("../cntrlI2C/I2Ccore.c")
      10                      .dwattr $C$DW$CU, DW_AT_producer("TMS320C2000 C/C++ Codegen PC v6.2.7 Copyright (c) 1996-2014 Texas I
      11                      .dwattr $C$DW$CU, DW_AT_TI_version(0x01)
      12                      .dwattr $C$DW$CU, DW_AT_comp_dir("D:\ActiveProject\EKT5\PKMT_NONBIOS\InvertorCntrl\ISPprg")
      13              $C$DW$1 .dwtag  DW_TAG_variable, DW_AT_name("I2caRegs")
      14                      .dwattr $C$DW$1, DW_AT_TI_symbol_name("_I2caRegs")
      15                      .dwattr $C$DW$1, DW_AT_type(*$C$DW$T$74)
      16                      .dwattr $C$DW$1, DW_AT_declaration
      17                      .dwattr $C$DW$1, DW_AT_external
      18              $C$DW$2 .dwtag  DW_TAG_variable, DW_AT_name("GpioCtrlRegs")
      19                      .dwattr $C$DW$2, DW_AT_TI_symbol_name("_GpioCtrlRegs")
      20                      .dwattr $C$DW$2, DW_AT_type(*$C$DW$T$65)
      21                      .dwattr $C$DW$2, DW_AT_declaration
      22                      .dwattr $C$DW$2, DW_AT_external
      23              ;       C:\ti\ccsv6\tools\compiler\c2000_6.2.7\bin\ac2000.exe -@C:\\Users\\Tester\\AppData\\Local\\Temp\\0465
      24 00000000               .sect   ".text"
      25                      .clink
      26                      .global _InitI2CCore
      27              
      28              $C$DW$3 .dwtag  DW_TAG_subprogram, DW_AT_name("InitI2CCore")
      29                      .dwattr $C$DW$3, DW_AT_low_pc(_InitI2CCore)
      30                      .dwattr $C$DW$3, DW_AT_high_pc(0x00)
      31                      .dwattr $C$DW$3, DW_AT_TI_symbol_name("_InitI2CCore")
      32                      .dwattr $C$DW$3, DW_AT_external
      33                      .dwattr $C$DW$3, DW_AT_TI_begin_file("../cntrlI2C/I2Ccore.c")
      34                      .dwattr $C$DW$3, DW_AT_TI_begin_line(0x136)
      35                      .dwattr $C$DW$3, DW_AT_TI_begin_column(0x06)
      36                      .dwattr $C$DW$3, DW_AT_TI_max_frame_size(-2)
      37                      .dwpsn  file "../cntrlI2C/I2Ccore.c",line 311,column 1,is_stmt,address _InitI2CCore
      38              
      39                      .dwfde $C$DW$CIE, _InitI2CCore
      40              
      41              ;***************************************************************
      42              ;* FNAME: _InitI2CCore                  FR SIZE:   0           *
      43              ;*                                                             *
      44              ;* FUNCTION ENVIRONMENT                                        *
      45              ;*                                                             *
      46              ;* FUNCTION PROPERTIES                                         *
      47              ;*                            0 Parameter,  0 Auto,  0 SOE     *
      48              ;***************************************************************
      49              
      50 00000000       _InitI2CCore:
      51                      .dwcfi  cfa_offset, -2
      52                      .dwcfi  save_reg_to_mem, 26, 0
      53                      .dwcfi  save_reg_to_reg, 78, 26
      54                      .dwpsn  file "../cntrlI2C/I2Ccore.c",line 314,column 5,is_stmt
      55 00000000 7622   EALLOW
TMS320C2000 Assembler PC v6.2.7 Thu Jul 02 08:31:06 2015

Tools Copyright (c) 1996-2014 Texas Instruments Incorporated
C:\Users\Tester\AppData\Local\Temp\0465610                           PAGE    2

      56                      .dwpsn  file "../cntrlI2C/I2Ccore.c",line 320,column 3,is_stmt
      57 00000001 761F!         MOVW      DP,#_GpioCtrlRegs+28  ; [CPU_U] 
         00000002 0000 
      58 00000003 181C!         AND       @_GpioCtrlRegs+28,#0xfffe ; [CPU_] |320| 
         00000004 FFFE 
      59                      .dwpsn  file "../cntrlI2C/I2Ccore.c",line 321,column 3,is_stmt
      60 00000005 181C!         AND       @_GpioCtrlRegs+28,#0xfffd ; [CPU_] |321| 
         00000006 FFFD 
      61                      .dwpsn  file "../cntrlI2C/I2Ccore.c",line 327,column 3,is_stmt
      62 00000007 1A12!         OR        @_GpioCtrlRegs+18,#0x0003 ; [CPU_] |327| 
         00000008 0003 
      63                      .dwpsn  file "../cntrlI2C/I2Ccore.c",line 328,column 6,is_stmt
      64 00000009 1A12!         OR        @_GpioCtrlRegs+18,#0x000c ; [CPU_] |328| 
         0000000a 000C 
      65                      .dwpsn  file "../cntrlI2C/I2Ccore.c",line 334,column 3,is_stmt
      66 0000000b CC16!         AND       AL,@_GpioCtrlRegs+22,#0xfffc ; [CPU_] |334| 
         0000000c FFFC 
      67 0000000d 5001          ORB       AL,#0x01              ; [CPU_] |334| 
      68 0000000e 9616!         MOV       @_GpioCtrlRegs+22,AL  ; [CPU_] |334| 
      69                      .dwpsn  file "../cntrlI2C/I2Ccore.c",line 335,column 3,is_stmt
      70 0000000f CC16!         AND       AL,@_GpioCtrlRegs+22,#0xfff3 ; [CPU_] |335| 
         00000010 FFF3 
      71 00000011 5004          ORB       AL,#0x04              ; [CPU_] |335| 
      72 00000012 9616!         MOV       @_GpioCtrlRegs+22,AL  ; [CPU_] |335| 
      73                      .dwpsn  file "../cntrlI2C/I2Ccore.c",line 337,column 6,is_stmt
      74 00000013 761A   EDIS
      75                      .dwpsn  file "../cntrlI2C/I2Ccore.c",line 340,column 6,is_stmt
      76 00000014 761F!         MOVW      DP,#_I2caRegs+7       ; [CPU_U] 
         00000015 0000 
      77 00000016 56BF!         MOVB      @_I2caRegs+7,#80,UNC  ; [CPU_] |340| 
         00000017 5007 
      78                      .dwpsn  file "../cntrlI2C/I2Ccore.c",line 346,column 8,is_stmt
      79 00000018 56BF!         MOVB      @_I2caRegs+12,#9,UNC  ; [CPU_] |346| 
         00000019 090C 
      80                      .dwpsn  file "../cntrlI2C/I2Ccore.c",line 349,column 6,is_stmt
      81 0000001a 56BF!         MOVB      @_I2caRegs+3,#10,UNC  ; [CPU_] |349| 
         0000001b 0A03 
      82                      .dwpsn  file "../cntrlI2C/I2Ccore.c",line 350,column 6,is_stmt
      83 0000001c 56BF!         MOVB      @_I2caRegs+4,#5,UNC   ; [CPU_] |350| 
         0000001d 0504 
      84                      .dwpsn  file "../cntrlI2C/I2Ccore.c",line 351,column 6,is_stmt
      85 0000001e 2B01!         MOV       @_I2caRegs+1,#0       ; [CPU_] |351| 
      86                      .dwpsn  file "../cntrlI2C/I2Ccore.c",line 353,column 6,is_stmt
      87 0000001f 56BF!         MOVB      @_I2caRegs+9,#32,UNC  ; [CPU_] |353| 
         00000020 2009 
      88                      .dwpsn  file "../cntrlI2C/I2Ccore.c",line 356,column 6,is_stmt
      89 00000021 2820!         MOV       @_I2caRegs+32,#24576  ; [CPU_] |356| 
         00000022 6000 
      90                      .dwpsn  file "../cntrlI2C/I2Ccore.c",line 357,column 6,is_stmt
      91 00000023 2821!         MOV       @_I2caRegs+33,#8256   ; [CPU_] |357| 
         00000024 2040 
      92                      .dwpsn  file "../cntrlI2C/I2Ccore.c",line 358,column 1,is_stmt
      93 00000025 FF69          SPM       #0                    ; [CPU_] 
      94              $C$DW$4 .dwtag  DW_TAG_TI_branch
      95                      .dwattr $C$DW$4, DW_AT_low_pc(0x00)
TMS320C2000 Assembler PC v6.2.7 Thu Jul 02 08:31:06 2015

Tools Copyright (c) 1996-2014 Texas Instruments Incorporated
C:\Users\Tester\AppData\Local\Temp\0465610                           PAGE    3

      96                      .dwattr $C$DW$4, DW_AT_TI_return
      97 00000026 0006          LRETR     ; [CPU_] 
      98                      ; return occurs ; [] 
      99                      .dwattr $C$DW$3, DW_AT_TI_end_file("../cntrlI2C/I2Ccore.c")
     100                      .dwattr $C$DW$3, DW_AT_TI_end_line(0x166)
     101                      .dwattr $C$DW$3, DW_AT_TI_end_column(0x01)
     102                      .dwendentry
     103                      .dwendtag $C$DW$3
     104              
     105 00000027               .sect   ".text"
     106                      .clink
     107                      .global _writeI2Cmsg
     108              
     109              $C$DW$5 .dwtag  DW_TAG_subprogram, DW_AT_name("writeI2Cmsg")
     110                      .dwattr $C$DW$5, DW_AT_low_pc(_writeI2Cmsg)
     111                      .dwattr $C$DW$5, DW_AT_high_pc(0x00)
     112                      .dwattr $C$DW$5, DW_AT_TI_symbol_name("_writeI2Cmsg")
     113                      .dwattr $C$DW$5, DW_AT_external
     114                      .dwattr $C$DW$5, DW_AT_type(*$C$DW$T$5)
     115                      .dwattr $C$DW$5, DW_AT_TI_begin_file("../cntrlI2C/I2Ccore.c")
     116                      .dwattr $C$DW$5, DW_AT_TI_begin_line(0x168)
     117                      .dwattr $C$DW$5, DW_AT_TI_begin_column(0x06)
     118                      .dwattr $C$DW$5, DW_AT_TI_max_frame_size(-8)
     119                      .dwpsn  file "../cntrlI2C/I2Ccore.c",line 361,column 1,is_stmt,address _writeI2Cmsg
     120              
     121                      .dwfde $C$DW$CIE, _writeI2Cmsg
     122              $C$DW$6 .dwtag  DW_TAG_formal_parameter, DW_AT_name("adr")
     123                      .dwattr $C$DW$6, DW_AT_TI_symbol_name("_adr")
     124                      .dwattr $C$DW$6, DW_AT_type(*$C$DW$T$5)
     125                      .dwattr $C$DW$6, DW_AT_location[DW_OP_reg0]
     126              $C$DW$7 .dwtag  DW_TAG_formal_parameter, DW_AT_name("data")
     127                      .dwattr $C$DW$7, DW_AT_TI_symbol_name("_data")
     128                      .dwattr $C$DW$7, DW_AT_type(*$C$DW$T$79)
     129                      .dwattr $C$DW$7, DW_AT_location[DW_OP_reg12]
     130              $C$DW$8 .dwtag  DW_TAG_formal_parameter, DW_AT_name("num")
     131                      .dwattr $C$DW$8, DW_AT_TI_symbol_name("_num")
     132                      .dwattr $C$DW$8, DW_AT_type(*$C$DW$T$5)
     133                      .dwattr $C$DW$8, DW_AT_location[DW_OP_reg1]
     134              
     135              ;***************************************************************
     136              ;* FNAME: _writeI2Cmsg                  FR SIZE:   6           *
     137              ;*                                                             *
     138              ;* FUNCTION ENVIRONMENT                                        *
     139              ;*                                                             *
     140              ;* FUNCTION PROPERTIES                                         *
     141              ;*                            0 Parameter,  6 Auto,  0 SOE     *
     142              ;***************************************************************
     143              
     144 00000027       _writeI2Cmsg:
     145                      .dwcfi  cfa_offset, -2
     146                      .dwcfi  save_reg_to_mem, 26, 0
     147                      .dwcfi  save_reg_to_reg, 78, 26
     148 00000027 FE06          ADDB      SP,#6                 ; [CPU_U] 
     149                      .dwcfi  cfa_offset, -8
     150              $C$DW$9 .dwtag  DW_TAG_variable, DW_AT_name("adr")
TMS320C2000 Assembler PC v6.2.7 Thu Jul 02 08:31:06 2015

Tools Copyright (c) 1996-2014 Texas Instruments Incorporated
C:\Users\Tester\AppData\Local\Temp\0465610                           PAGE    4

     151                      .dwattr $C$DW$9, DW_AT_TI_symbol_name("_adr")
     152                      .dwattr $C$DW$9, DW_AT_type(*$C$DW$T$5)
     153                      .dwattr $C$DW$9, DW_AT_location[DW_OP_breg20 -1]
     154              $C$DW$10        .dwtag  DW_TAG_variable, DW_AT_name("data")
     155                      .dwattr $C$DW$10, DW_AT_TI_symbol_name("_data")
     156                      .dwattr $C$DW$10, DW_AT_type(*$C$DW$T$79)
     157                      .dwattr $C$DW$10, DW_AT_location[DW_OP_breg20 -4]
     158              $C$DW$11        .dwtag  DW_TAG_variable, DW_AT_name("num")
     159                      .dwattr $C$DW$11, DW_AT_TI_symbol_name("_num")
     160                      .dwattr $C$DW$11, DW_AT_type(*$C$DW$T$5)
     161                      .dwattr $C$DW$11, DW_AT_location[DW_OP_breg20 -5]
     162              $C$DW$12        .dwtag  DW_TAG_variable, DW_AT_name("i")
     163                      .dwattr $C$DW$12, DW_AT_TI_symbol_name("_i")
     164                      .dwattr $C$DW$12, DW_AT_type(*$C$DW$T$5)
     165                      .dwattr $C$DW$12, DW_AT_location[DW_OP_breg20 -6]
     166 00000028 9745          MOV       *-SP[5],AH            ; [CPU_] |361| 
     167 00000029 A844          MOVL      *-SP[4],XAR4          ; [CPU_] |361| 
     168 0000002a 9641          MOV       *-SP[1],AL            ; [CPU_] |361| 
     169                      .dwpsn  file "../cntrlI2C/I2Ccore.c",line 364,column 2,is_stmt
     170 0000002b 9245          MOV       AL,*-SP[5]            ; [CPU_] |364| 
     171 0000002c 5210          CMPB      AL,#16                ; [CPU_] |364| 
     172 0000002d 6504          B         $C$L1,LEQ             ; [CPU_] |364| 
     173                      ; branchcc occurs ; [] |364| 
     174                      .dwpsn  file "../cntrlI2C/I2Ccore.c",line 365,column 3,is_stmt
     175 0000002e 28A9          MOV       AL,#-1                ; [CPU_] |365| 
         0000002f FFFF 
     176 00000030 6F16          B         $C$L4,UNC             ; [CPU_] |365| 
     177                      ; branch occurs ; [] |365| 
     178 00000031       $C$L1:    
     179                      .dwpsn  file "../cntrlI2C/I2Ccore.c",line 367,column 2,is_stmt
     180 00000031 9241          MOV       AL,*-SP[1]            ; [CPU_] |367| 
     181 00000032 761F!         MOVW      DP,#_I2caRegs+7       ; [CPU_U] 
         00000033 0000 
     182 00000034 9607!         MOV       @_I2caRegs+7,AL       ; [CPU_] |367| 
     183                      .dwpsn  file "../cntrlI2C/I2Ccore.c",line 368,column 2,is_stmt
     184 00000035 9245          MOV       AL,*-SP[5]            ; [CPU_] |368| 
     185 00000036 9605!         MOV       @_I2caRegs+5,AL       ; [CPU_] |368| 
     186                      .dwpsn  file "../cntrlI2C/I2Ccore.c",line 369,column 6,is_stmt
     187 00000037 2B46          MOV       *-SP[6],#0            ; [CPU_] |369| 
     188 00000038 6F08          B         $C$L3,UNC             ; [CPU_] |369| 
     189                      ; branch occurs ; [] |369| 
     190 00000039       $C$L2:    
     191                      .dwpsn  file "../cntrlI2C/I2Ccore.c",line 370,column 3,is_stmt
     192 00000039 C544          MOVL      XAR7,*-SP[4]          ; [CPU_] |370| 
     193 0000003a 92C7          MOV       AL,*XAR7              ; [CPU_] |370| 
     194 0000003b 9608!         MOV       @_I2caRegs+8,AL       ; [CPU_] |370| 
     195                      .dwpsn  file "../cntrlI2C/I2Ccore.c",line 371,column 3,is_stmt
     196 0000003c 0201          MOVB      ACC,#1                ; [CPU_] |371| 
     197 0000003d 5601          ADDL      *-SP[4],ACC           ; [CPU_] |371| 
         0000003e 0044 
     198                      .dwpsn  file "../cntrlI2C/I2Ccore.c",line 369,column 18,is_stmt
     199 0000003f 0A46          INC       *-SP[6]               ; [CPU_] |369| 
     200 00000040       $C$L3:    
     201                      .dwpsn  file "../cntrlI2C/I2Ccore.c",line 369,column 11,is_stmt
     202 00000040 9245          MOV       AL,*-SP[5]            ; [CPU_] |369| 
TMS320C2000 Assembler PC v6.2.7 Thu Jul 02 08:31:06 2015

Tools Copyright (c) 1996-2014 Texas Instruments Incorporated
C:\Users\Tester\AppData\Local\Temp\0465610                           PAGE    5

     203 00000041 5446          CMP       AL,*-SP[6]            ; [CPU_] |369| 
     204 00000042 62F7          B         $C$L2,GT              ; [CPU_] |369| 
     205                      ; branchcc occurs ; [] |369| 
     206                      .dwpsn  file "../cntrlI2C/I2Ccore.c",line 373,column 2,is_stmt
     207 00000043 2809!         MOV       @_I2caRegs+9,#11808   ; [CPU_] |373| 
         00000044 2E20 
     208                      .dwpsn  file "../cntrlI2C/I2Ccore.c",line 374,column 2,is_stmt
     209 00000045 9A00          MOVB      AL,#0                 ; [CPU_] |374| 
     210 00000046       $C$L4:    
     211                      .dwpsn  file "../cntrlI2C/I2Ccore.c",line 375,column 1,is_stmt
     212 00000046 FE86          SUBB      SP,#6                 ; [CPU_U] 
     213                      .dwcfi  cfa_offset, -2
     214              $C$DW$13        .dwtag  DW_TAG_TI_branch
     215                      .dwattr $C$DW$13, DW_AT_low_pc(0x00)
     216                      .dwattr $C$DW$13, DW_AT_TI_return
     217 00000047 0006          LRETR     ; [CPU_] 
     218                      ; return occurs ; [] 
     219                      .dwattr $C$DW$5, DW_AT_TI_end_file("../cntrlI2C/I2Ccore.c")
     220                      .dwattr $C$DW$5, DW_AT_TI_end_line(0x177)
     221                      .dwattr $C$DW$5, DW_AT_TI_end_column(0x01)
     222                      .dwendentry
     223                      .dwendtag $C$DW$5
     224              
     225 00000048               .sect   ".text"
     226                      .clink
     227                      .global _restartI2Cwrite
     228              
     229              $C$DW$14        .dwtag  DW_TAG_subprogram, DW_AT_name("restartI2Cwrite")
     230                      .dwattr $C$DW$14, DW_AT_low_pc(_restartI2Cwrite)
     231                      .dwattr $C$DW$14, DW_AT_high_pc(0x00)
     232                      .dwattr $C$DW$14, DW_AT_TI_symbol_name("_restartI2Cwrite")
     233                      .dwattr $C$DW$14, DW_AT_external
     234                      .dwattr $C$DW$14, DW_AT_TI_begin_file("../cntrlI2C/I2Ccore.c")
     235                      .dwattr $C$DW$14, DW_AT_TI_begin_line(0x179)
     236                      .dwattr $C$DW$14, DW_AT_TI_begin_column(0x06)
     237                      .dwattr $C$DW$14, DW_AT_TI_max_frame_size(-2)
     238                      .dwpsn  file "../cntrlI2C/I2Ccore.c",line 377,column 27,is_stmt,address _restartI2Cwrite
     239              
     240                      .dwfde $C$DW$CIE, _restartI2Cwrite
     241              
     242              ;***************************************************************
     243              ;* FNAME: _restartI2Cwrite              FR SIZE:   0           *
     244              ;*                                                             *
     245              ;* FUNCTION ENVIRONMENT                                        *
     246              ;*                                                             *
     247              ;* FUNCTION PROPERTIES                                         *
     248              ;*                            0 Parameter,  0 Auto,  0 SOE     *
     249              ;***************************************************************
     250              
     251 00000048       _restartI2Cwrite:
     252                      .dwcfi  cfa_offset, -2
     253                      .dwcfi  save_reg_to_mem, 26, 0
     254                      .dwcfi  save_reg_to_reg, 78, 26
     255                      .dwpsn  file "../cntrlI2C/I2Ccore.c",line 378,column 2,is_stmt
     256 00000048 761F!         MOVW      DP,#_I2caRegs+9       ; [CPU_U] 
TMS320C2000 Assembler PC v6.2.7 Thu Jul 02 08:31:06 2015

Tools Copyright (c) 1996-2014 Texas Instruments Incorporated
C:\Users\Tester\AppData\Local\Temp\0465610                           PAGE    6

         00000049 0000 
     257 0000004a 2809!         MOV       @_I2caRegs+9,#11808   ; [CPU_] |378| 
         0000004b 2E20 
     258                      .dwpsn  file "../cntrlI2C/I2Ccore.c",line 379,column 1,is_stmt
     259              $C$DW$15        .dwtag  DW_TAG_TI_branch
     260                      .dwattr $C$DW$15, DW_AT_low_pc(0x00)
     261                      .dwattr $C$DW$15, DW_AT_TI_return
     262 0000004c 0006          LRETR     ; [CPU_] 
     263                      ; return occurs ; [] 
     264                      .dwattr $C$DW$14, DW_AT_TI_end_file("../cntrlI2C/I2Ccore.c")
     265                      .dwattr $C$DW$14, DW_AT_TI_end_line(0x17b)
     266                      .dwattr $C$DW$14, DW_AT_TI_end_column(0x01)
     267                      .dwendentry
     268                      .dwendtag $C$DW$14
     269              
     270 0000004d               .sect   ".text"
     271                      .clink
     272                      .global _stopI2Cmsg
     273              
     274              $C$DW$16        .dwtag  DW_TAG_subprogram, DW_AT_name("stopI2Cmsg")
     275                      .dwattr $C$DW$16, DW_AT_low_pc(_stopI2Cmsg)
     276                      .dwattr $C$DW$16, DW_AT_high_pc(0x00)
     277                      .dwattr $C$DW$16, DW_AT_TI_symbol_name("_stopI2Cmsg")
     278                      .dwattr $C$DW$16, DW_AT_external
     279                      .dwattr $C$DW$16, DW_AT_type(*$C$DW$T$5)
     280                      .dwattr $C$DW$16, DW_AT_TI_begin_file("../cntrlI2C/I2Ccore.c")
     281                      .dwattr $C$DW$16, DW_AT_TI_begin_line(0x17d)
     282                      .dwattr $C$DW$16, DW_AT_TI_begin_column(0x06)
     283                      .dwattr $C$DW$16, DW_AT_TI_max_frame_size(-2)
     284                      .dwpsn  file "../cntrlI2C/I2Ccore.c",line 382,column 1,is_stmt,address _stopI2Cmsg
     285              
     286                      .dwfde $C$DW$CIE, _stopI2Cmsg
     287              
     288              ;***************************************************************
     289              ;* FNAME: _stopI2Cmsg                   FR SIZE:   0           *
     290              ;*                                                             *
     291              ;* FUNCTION ENVIRONMENT                                        *
     292              ;*                                                             *
     293              ;* FUNCTION PROPERTIES                                         *
     294              ;*                            0 Parameter,  0 Auto,  0 SOE     *
     295              ;***************************************************************
     296              
     297 0000004d       _stopI2Cmsg:
     298                      .dwcfi  cfa_offset, -2
     299                      .dwcfi  save_reg_to_mem, 26, 0
     300                      .dwcfi  save_reg_to_reg, 78, 26
     301                      .dwpsn  file "../cntrlI2C/I2Ccore.c",line 383,column 2,is_stmt
     302 0000004d 761F!         MOVW      DP,#_I2caRegs+9       ; [CPU_U] 
         0000004e 0000 
     303 0000004f 1A09!         OR        @_I2caRegs+9,#0x0800  ; [CPU_] |383| 
         00000050 0800 
     304                      .dwpsn  file "../cntrlI2C/I2Ccore.c",line 384,column 2,is_stmt
     305 00000051 9A00          MOVB      AL,#0                 ; [CPU_] |384| 
     306                      .dwpsn  file "../cntrlI2C/I2Ccore.c",line 385,column 1,is_stmt
     307              $C$DW$17        .dwtag  DW_TAG_TI_branch
TMS320C2000 Assembler PC v6.2.7 Thu Jul 02 08:31:06 2015

Tools Copyright (c) 1996-2014 Texas Instruments Incorporated
C:\Users\Tester\AppData\Local\Temp\0465610                           PAGE    7

     308                      .dwattr $C$DW$17, DW_AT_low_pc(0x00)
     309                      .dwattr $C$DW$17, DW_AT_TI_return
     310 00000052 0006          LRETR     ; [CPU_] 
     311                      ; return occurs ; [] 
     312                      .dwattr $C$DW$16, DW_AT_TI_end_file("../cntrlI2C/I2Ccore.c")
     313                      .dwattr $C$DW$16, DW_AT_TI_end_line(0x181)
     314                      .dwattr $C$DW$16, DW_AT_TI_end_column(0x01)
     315                      .dwendentry
     316                      .dwendtag $C$DW$16
     317              
     318 00000053               .sect   ".text"
     319                      .clink
     320                      .global _testI2cNACK
     321              
     322              $C$DW$18        .dwtag  DW_TAG_subprogram, DW_AT_name("testI2cNACK")
     323                      .dwattr $C$DW$18, DW_AT_low_pc(_testI2cNACK)
     324                      .dwattr $C$DW$18, DW_AT_high_pc(0x00)
     325                      .dwattr $C$DW$18, DW_AT_TI_symbol_name("_testI2cNACK")
     326                      .dwattr $C$DW$18, DW_AT_external
     327                      .dwattr $C$DW$18, DW_AT_type(*$C$DW$T$5)
     328                      .dwattr $C$DW$18, DW_AT_TI_begin_file("../cntrlI2C/I2Ccore.c")
     329                      .dwattr $C$DW$18, DW_AT_TI_begin_line(0x183)
     330                      .dwattr $C$DW$18, DW_AT_TI_begin_column(0x06)
     331                      .dwattr $C$DW$18, DW_AT_TI_max_frame_size(-2)
     332                      .dwpsn  file "../cntrlI2C/I2Ccore.c",line 387,column 23,is_stmt,address _testI2cNACK
     333              
     334                      .dwfde $C$DW$CIE, _testI2cNACK
     335              
     336              ;***************************************************************
     337              ;* FNAME: _testI2cNACK                  FR SIZE:   0           *
     338              ;*                                                             *
     339              ;* FUNCTION ENVIRONMENT                                        *
     340              ;*                                                             *
     341              ;* FUNCTION PROPERTIES                                         *
     342              ;*                            0 Parameter,  0 Auto,  0 SOE     *
     343              ;***************************************************************
     344              
     345 00000053       _testI2cNACK:
     346                      .dwcfi  cfa_offset, -2
     347                      .dwcfi  save_reg_to_mem, 26, 0
     348                      .dwcfi  save_reg_to_reg, 78, 26
     349                      .dwpsn  file "../cntrlI2C/I2Ccore.c",line 389,column 2,is_stmt
     350 00000053 761F!         MOVW      DP,#_I2caRegs+2       ; [CPU_U] 
         00000054 0000 
     351 00000055 4102!         TBIT      @_I2caRegs+2,#1       ; [CPU_] |389| 
     352 00000056 EF05          BF        $C$L5,NTC             ; [CPU_] |389| 
     353                      ; branchcc occurs ; [] |389| 
     354                      .dwpsn  file "../cntrlI2C/I2Ccore.c",line 390,column 3,is_stmt
     355 00000057 1A02!         OR        @_I2caRegs+2,#0x0002  ; [CPU_] |390| 
         00000058 0002 
     356                      .dwpsn  file "../cntrlI2C/I2Ccore.c",line 391,column 3,is_stmt
     357 00000059 9A01          MOVB      AL,#1                 ; [CPU_] |391| 
     358 0000005a 6F02          B         $C$L6,UNC             ; [CPU_] |391| 
     359                      ; branch occurs ; [] |391| 
     360 0000005b       $C$L5:    
TMS320C2000 Assembler PC v6.2.7 Thu Jul 02 08:31:06 2015

Tools Copyright (c) 1996-2014 Texas Instruments Incorporated
C:\Users\Tester\AppData\Local\Temp\0465610                           PAGE    8

     361                      .dwpsn  file "../cntrlI2C/I2Ccore.c",line 394,column 3,is_stmt
     362 0000005b 9A00          MOVB      AL,#0                 ; [CPU_] |394| 
     363 0000005c       $C$L6:    
     364                      .dwpsn  file "../cntrlI2C/I2Ccore.c",line 395,column 1,is_stmt
     365              $C$DW$19        .dwtag  DW_TAG_TI_branch
     366                      .dwattr $C$DW$19, DW_AT_low_pc(0x00)
     367                      .dwattr $C$DW$19, DW_AT_TI_return
     368 0000005c 0006          LRETR     ; [CPU_] 
     369                      ; return occurs ; [] 
     370                      .dwattr $C$DW$18, DW_AT_TI_end_file("../cntrlI2C/I2Ccore.c")
     371                      .dwattr $C$DW$18, DW_AT_TI_end_line(0x18b)
     372                      .dwattr $C$DW$18, DW_AT_TI_end_column(0x01)
     373                      .dwendentry
     374                      .dwendtag $C$DW$18
     375              
     376 0000005d               .sect   ".text"
     377                      .clink
     378                      .global _startReadFromAdrI2Cmsg
     379              
     380              $C$DW$20        .dwtag  DW_TAG_subprogram, DW_AT_name("startReadFromAdrI2Cmsg")
     381                      .dwattr $C$DW$20, DW_AT_low_pc(_startReadFromAdrI2Cmsg)
     382                      .dwattr $C$DW$20, DW_AT_high_pc(0x00)
     383                      .dwattr $C$DW$20, DW_AT_TI_symbol_name("_startReadFromAdrI2Cmsg")
     384                      .dwattr $C$DW$20, DW_AT_external
     385                      .dwattr $C$DW$20, DW_AT_type(*$C$DW$T$5)
     386                      .dwattr $C$DW$20, DW_AT_TI_begin_file("../cntrlI2C/I2Ccore.c")
     387                      .dwattr $C$DW$20, DW_AT_TI_begin_line(0x18d)
     388                      .dwattr $C$DW$20, DW_AT_TI_begin_column(0x06)
     389                      .dwattr $C$DW$20, DW_AT_TI_max_frame_size(-8)
     390                      .dwpsn  file "../cntrlI2C/I2Ccore.c",line 397,column 60,is_stmt,address _startReadFromAdrI2Cmsg
     391              
     392                      .dwfde $C$DW$CIE, _startReadFromAdrI2Cmsg
     393              $C$DW$21        .dwtag  DW_TAG_formal_parameter, DW_AT_name("adr")
     394                      .dwattr $C$DW$21, DW_AT_TI_symbol_name("_adr")
     395                      .dwattr $C$DW$21, DW_AT_type(*$C$DW$T$5)
     396                      .dwattr $C$DW$21, DW_AT_location[DW_OP_reg0]
     397              $C$DW$22        .dwtag  DW_TAG_formal_parameter, DW_AT_name("data")
     398                      .dwattr $C$DW$22, DW_AT_TI_symbol_name("_data")
     399                      .dwattr $C$DW$22, DW_AT_type(*$C$DW$T$79)
     400                      .dwattr $C$DW$22, DW_AT_location[DW_OP_reg12]
     401              $C$DW$23        .dwtag  DW_TAG_formal_parameter, DW_AT_name("num")
     402                      .dwattr $C$DW$23, DW_AT_TI_symbol_name("_num")
     403                      .dwattr $C$DW$23, DW_AT_type(*$C$DW$T$5)
     404                      .dwattr $C$DW$23, DW_AT_location[DW_OP_reg1]
     405              
     406              ;***************************************************************
     407              ;* FNAME: _startReadFromAdrI2Cmsg       FR SIZE:   6           *
     408              ;*                                                             *
     409              ;* FUNCTION ENVIRONMENT                                        *
     410              ;*                                                             *
     411              ;* FUNCTION PROPERTIES                                         *
     412              ;*                            0 Parameter,  6 Auto,  0 SOE     *
     413              ;***************************************************************
     414              
     415 0000005d       _startReadFromAdrI2Cmsg:
TMS320C2000 Assembler PC v6.2.7 Thu Jul 02 08:31:06 2015

Tools Copyright (c) 1996-2014 Texas Instruments Incorporated
C:\Users\Tester\AppData\Local\Temp\0465610                           PAGE    9

     416                      .dwcfi  cfa_offset, -2
     417                      .dwcfi  save_reg_to_mem, 26, 0
     418                      .dwcfi  save_reg_to_reg, 78, 26
     419 0000005d FE06          ADDB      SP,#6                 ; [CPU_U] 
     420                      .dwcfi  cfa_offset, -8
     421              $C$DW$24        .dwtag  DW_TAG_variable, DW_AT_name("adr")
     422                      .dwattr $C$DW$24, DW_AT_TI_symbol_name("_adr")
     423                      .dwattr $C$DW$24, DW_AT_type(*$C$DW$T$5)
     424                      .dwattr $C$DW$24, DW_AT_location[DW_OP_breg20 -1]
     425              $C$DW$25        .dwtag  DW_TAG_variable, DW_AT_name("data")
     426                      .dwattr $C$DW$25, DW_AT_TI_symbol_name("_data")
     427                      .dwattr $C$DW$25, DW_AT_type(*$C$DW$T$79)
     428                      .dwattr $C$DW$25, DW_AT_location[DW_OP_breg20 -4]
     429              $C$DW$26        .dwtag  DW_TAG_variable, DW_AT_name("num")
     430                      .dwattr $C$DW$26, DW_AT_TI_symbol_name("_num")
     431                      .dwattr $C$DW$26, DW_AT_type(*$C$DW$T$5)
     432                      .dwattr $C$DW$26, DW_AT_location[DW_OP_breg20 -5]
     433              $C$DW$27        .dwtag  DW_TAG_variable, DW_AT_name("i")
     434                      .dwattr $C$DW$27, DW_AT_TI_symbol_name("_i")
     435                      .dwattr $C$DW$27, DW_AT_type(*$C$DW$T$5)
     436                      .dwattr $C$DW$27, DW_AT_location[DW_OP_breg20 -6]
     437 0000005e 9745          MOV       *-SP[5],AH            ; [CPU_] |397| 
     438 0000005f A844          MOVL      *-SP[4],XAR4          ; [CPU_] |397| 
     439 00000060 9641          MOV       *-SP[1],AL            ; [CPU_] |397| 
     440                      .dwpsn  file "../cntrlI2C/I2Ccore.c",line 400,column 2,is_stmt
     441 00000061 761F!         MOVW      DP,#_I2caRegs+7       ; [CPU_U] 
         00000062 0000 
     442 00000063 9241          MOV       AL,*-SP[1]            ; [CPU_] |400| 
     443 00000064 9607!         MOV       @_I2caRegs+7,AL       ; [CPU_] |400| 
     444                      .dwpsn  file "../cntrlI2C/I2Ccore.c",line 401,column 2,is_stmt
     445 00000065 9245          MOV       AL,*-SP[5]            ; [CPU_] |401| 
     446 00000066 9605!         MOV       @_I2caRegs+5,AL       ; [CPU_] |401| 
     447                      .dwpsn  file "../cntrlI2C/I2Ccore.c",line 402,column 6,is_stmt
     448 00000067 2B46          MOV       *-SP[6],#0            ; [CPU_] |402| 
     449 00000068 6F08          B         $C$L8,UNC             ; [CPU_] |402| 
     450                      ; branch occurs ; [] |402| 
     451 00000069       $C$L7:    
     452                      .dwpsn  file "../cntrlI2C/I2Ccore.c",line 403,column 3,is_stmt
     453 00000069 C544          MOVL      XAR7,*-SP[4]          ; [CPU_] |403| 
     454 0000006a 92C7          MOV       AL,*XAR7              ; [CPU_] |403| 
     455 0000006b 9608!         MOV       @_I2caRegs+8,AL       ; [CPU_] |403| 
     456                      .dwpsn  file "../cntrlI2C/I2Ccore.c",line 404,column 3,is_stmt
     457 0000006c 0201          MOVB      ACC,#1                ; [CPU_] |404| 
     458 0000006d 5601          ADDL      *-SP[4],ACC           ; [CPU_] |404| 
         0000006e 0044 
     459                      .dwpsn  file "../cntrlI2C/I2Ccore.c",line 402,column 18,is_stmt
     460 0000006f 0A46          INC       *-SP[6]               ; [CPU_] |402| 
     461 00000070       $C$L8:    
     462                      .dwpsn  file "../cntrlI2C/I2Ccore.c",line 402,column 11,is_stmt
     463 00000070 9245          MOV       AL,*-SP[5]            ; [CPU_] |402| 
     464 00000071 5446          CMP       AL,*-SP[6]            ; [CPU_] |402| 
     465 00000072 62F7          B         $C$L7,GT              ; [CPU_] |402| 
     466                      ; branchcc occurs ; [] |402| 
     467                      .dwpsn  file "../cntrlI2C/I2Ccore.c",line 406,column 2,is_stmt
     468 00000073 2809!         MOV       @_I2caRegs+9,#9760    ; [CPU_] |406| 
TMS320C2000 Assembler PC v6.2.7 Thu Jul 02 08:31:06 2015

Tools Copyright (c) 1996-2014 Texas Instruments Incorporated
C:\Users\Tester\AppData\Local\Temp\0465610                           PAGE   10

         00000074 2620 
     469                      .dwpsn  file "../cntrlI2C/I2Ccore.c",line 407,column 2,is_stmt
     470 00000075 9A01          MOVB      AL,#1                 ; [CPU_] |407| 
     471                      .dwpsn  file "../cntrlI2C/I2Ccore.c",line 408,column 1,is_stmt
     472 00000076 FE86          SUBB      SP,#6                 ; [CPU_U] 
     473                      .dwcfi  cfa_offset, -2
     474              $C$DW$28        .dwtag  DW_TAG_TI_branch
     475                      .dwattr $C$DW$28, DW_AT_low_pc(0x00)
     476                      .dwattr $C$DW$28, DW_AT_TI_return
     477 00000077 0006          LRETR     ; [CPU_] 
     478                      ; return occurs ; [] 
     479                      .dwattr $C$DW$20, DW_AT_TI_end_file("../cntrlI2C/I2Ccore.c")
     480                      .dwattr $C$DW$20, DW_AT_TI_end_line(0x198)
     481                      .dwattr $C$DW$20, DW_AT_TI_end_column(0x01)
     482                      .dwendentry
     483                      .dwendtag $C$DW$20
     484              
     485 00000078               .sect   ".text"
     486                      .clink
     487                      .global _startReadI2Cmsg
     488              
     489              $C$DW$29        .dwtag  DW_TAG_subprogram, DW_AT_name("startReadI2Cmsg")
     490                      .dwattr $C$DW$29, DW_AT_low_pc(_startReadI2Cmsg)
     491                      .dwattr $C$DW$29, DW_AT_high_pc(0x00)
     492                      .dwattr $C$DW$29, DW_AT_TI_symbol_name("_startReadI2Cmsg")
     493                      .dwattr $C$DW$29, DW_AT_external
     494                      .dwattr $C$DW$29, DW_AT_type(*$C$DW$T$5)
     495                      .dwattr $C$DW$29, DW_AT_TI_begin_file("../cntrlI2C/I2Ccore.c")
     496                      .dwattr $C$DW$29, DW_AT_TI_begin_line(0x19a)
     497                      .dwattr $C$DW$29, DW_AT_TI_begin_column(0x06)
     498                      .dwattr $C$DW$29, DW_AT_TI_max_frame_size(-8)
     499                      .dwpsn  file "../cntrlI2C/I2Ccore.c",line 410,column 53,is_stmt,address _startReadI2Cmsg
     500              
     501                      .dwfde $C$DW$CIE, _startReadI2Cmsg
     502              $C$DW$30        .dwtag  DW_TAG_formal_parameter, DW_AT_name("adr")
     503                      .dwattr $C$DW$30, DW_AT_TI_symbol_name("_adr")
     504                      .dwattr $C$DW$30, DW_AT_type(*$C$DW$T$5)
     505                      .dwattr $C$DW$30, DW_AT_location[DW_OP_reg0]
     506              $C$DW$31        .dwtag  DW_TAG_formal_parameter, DW_AT_name("data")
     507                      .dwattr $C$DW$31, DW_AT_TI_symbol_name("_data")
     508                      .dwattr $C$DW$31, DW_AT_type(*$C$DW$T$79)
     509                      .dwattr $C$DW$31, DW_AT_location[DW_OP_reg12]
     510              $C$DW$32        .dwtag  DW_TAG_formal_parameter, DW_AT_name("num")
     511                      .dwattr $C$DW$32, DW_AT_TI_symbol_name("_num")
     512                      .dwattr $C$DW$32, DW_AT_type(*$C$DW$T$5)
     513                      .dwattr $C$DW$32, DW_AT_location[DW_OP_reg1]
     514              
     515              ;***************************************************************
     516              ;* FNAME: _startReadI2Cmsg              FR SIZE:   6           *
     517              ;*                                                             *
     518              ;* FUNCTION ENVIRONMENT                                        *
     519              ;*                                                             *
     520              ;* FUNCTION PROPERTIES                                         *
     521              ;*                            0 Parameter,  5 Auto,  0 SOE     *
     522              ;***************************************************************
TMS320C2000 Assembler PC v6.2.7 Thu Jul 02 08:31:06 2015

Tools Copyright (c) 1996-2014 Texas Instruments Incorporated
C:\Users\Tester\AppData\Local\Temp\0465610                           PAGE   11

     523              
     524 00000078       _startReadI2Cmsg:
     525                      .dwcfi  cfa_offset, -2
     526                      .dwcfi  save_reg_to_mem, 26, 0
     527                      .dwcfi  save_reg_to_reg, 78, 26
     528 00000078 FE06          ADDB      SP,#6                 ; [CPU_U] 
     529                      .dwcfi  cfa_offset, -8
     530              $C$DW$33        .dwtag  DW_TAG_variable, DW_AT_name("adr")
     531                      .dwattr $C$DW$33, DW_AT_TI_symbol_name("_adr")
     532                      .dwattr $C$DW$33, DW_AT_type(*$C$DW$T$5)
     533                      .dwattr $C$DW$33, DW_AT_location[DW_OP_breg20 -1]
     534              $C$DW$34        .dwtag  DW_TAG_variable, DW_AT_name("data")
     535                      .dwattr $C$DW$34, DW_AT_TI_symbol_name("_data")
     536                      .dwattr $C$DW$34, DW_AT_type(*$C$DW$T$79)
     537                      .dwattr $C$DW$34, DW_AT_location[DW_OP_breg20 -4]
     538              $C$DW$35        .dwtag  DW_TAG_variable, DW_AT_name("num")
     539                      .dwattr $C$DW$35, DW_AT_TI_symbol_name("_num")
     540                      .dwattr $C$DW$35, DW_AT_type(*$C$DW$T$5)
     541                      .dwattr $C$DW$35, DW_AT_location[DW_OP_breg20 -5]
     542 00000079 9745          MOV       *-SP[5],AH            ; [CPU_] |410| 
     543 0000007a A844          MOVL      *-SP[4],XAR4          ; [CPU_] |410| 
     544 0000007b 9641          MOV       *-SP[1],AL            ; [CPU_] |410| 
     545                      .dwpsn  file "../cntrlI2C/I2Ccore.c",line 411,column 2,is_stmt
     546 0000007c 9245          MOV       AL,*-SP[5]            ; [CPU_] |411| 
     547 0000007d 5210          CMPB      AL,#16                ; [CPU_] |411| 
     548 0000007e 6504          B         $C$L9,LEQ             ; [CPU_] |411| 
     549                      ; branchcc occurs ; [] |411| 
     550                      .dwpsn  file "../cntrlI2C/I2Ccore.c",line 412,column 3,is_stmt
     551 0000007f 28A9          MOV       AL,#-1                ; [CPU_] |412| 
         00000080 FFFF 
     552 00000081 6F0A          B         $C$L10,UNC            ; [CPU_] |412| 
     553                      ; branch occurs ; [] |412| 
     554 00000082       $C$L9:    
     555                      .dwpsn  file "../cntrlI2C/I2Ccore.c",line 414,column 2,is_stmt
     556 00000082 9241          MOV       AL,*-SP[1]            ; [CPU_] |414| 
     557 00000083 761F!         MOVW      DP,#_I2caRegs+7       ; [CPU_U] 
         00000084 0000 
     558 00000085 9607!         MOV       @_I2caRegs+7,AL       ; [CPU_] |414| 
     559                      .dwpsn  file "../cntrlI2C/I2Ccore.c",line 415,column 2,is_stmt
     560 00000086 9245          MOV       AL,*-SP[5]            ; [CPU_] |415| 
     561 00000087 9605!         MOV       @_I2caRegs+5,AL       ; [CPU_] |415| 
     562                      .dwpsn  file "../cntrlI2C/I2Ccore.c",line 416,column 2,is_stmt
     563 00000088 2809!         MOV       @_I2caRegs+9,#9248    ; [CPU_] |416| 
         00000089 2420 
     564                      .dwpsn  file "../cntrlI2C/I2Ccore.c",line 417,column 2,is_stmt
     565 0000008a 9A00          MOVB      AL,#0                 ; [CPU_] |417| 
     566 0000008b       $C$L10:    
     567                      .dwpsn  file "../cntrlI2C/I2Ccore.c",line 418,column 1,is_stmt
     568 0000008b FE86          SUBB      SP,#6                 ; [CPU_U] 
     569                      .dwcfi  cfa_offset, -2
     570              $C$DW$36        .dwtag  DW_TAG_TI_branch
     571                      .dwattr $C$DW$36, DW_AT_low_pc(0x00)
     572                      .dwattr $C$DW$36, DW_AT_TI_return
     573 0000008c 0006          LRETR     ; [CPU_] 
     574                      ; return occurs ; [] 
TMS320C2000 Assembler PC v6.2.7 Thu Jul 02 08:31:06 2015

Tools Copyright (c) 1996-2014 Texas Instruments Incorporated
C:\Users\Tester\AppData\Local\Temp\0465610                           PAGE   12

     575                      .dwattr $C$DW$29, DW_AT_TI_end_file("../cntrlI2C/I2Ccore.c")
     576                      .dwattr $C$DW$29, DW_AT_TI_end_line(0x1a2)
     577                      .dwattr $C$DW$29, DW_AT_TI_end_column(0x01)
     578                      .dwendentry
     579                      .dwendtag $C$DW$29
     580              
     581 0000008d               .sect   ".text"
     582                      .clink
     583                      .global _getReadI2Cmsg
     584              
     585              $C$DW$37        .dwtag  DW_TAG_subprogram, DW_AT_name("getReadI2Cmsg")
     586                      .dwattr $C$DW$37, DW_AT_low_pc(_getReadI2Cmsg)
     587                      .dwattr $C$DW$37, DW_AT_high_pc(0x00)
     588                      .dwattr $C$DW$37, DW_AT_TI_symbol_name("_getReadI2Cmsg")
     589                      .dwattr $C$DW$37, DW_AT_external
     590                      .dwattr $C$DW$37, DW_AT_type(*$C$DW$T$5)
     591                      .dwattr $C$DW$37, DW_AT_TI_begin_file("../cntrlI2C/I2Ccore.c")
     592                      .dwattr $C$DW$37, DW_AT_TI_begin_line(0x1a4)
     593                      .dwattr $C$DW$37, DW_AT_TI_begin_column(0x06)
     594                      .dwattr $C$DW$37, DW_AT_TI_max_frame_size(-6)
     595                      .dwpsn  file "../cntrlI2C/I2Ccore.c",line 420,column 41,is_stmt,address _getReadI2Cmsg
     596              
     597                      .dwfde $C$DW$CIE, _getReadI2Cmsg
     598              $C$DW$38        .dwtag  DW_TAG_formal_parameter, DW_AT_name("data")
     599                      .dwattr $C$DW$38, DW_AT_TI_symbol_name("_data")
     600                      .dwattr $C$DW$38, DW_AT_type(*$C$DW$T$79)
     601                      .dwattr $C$DW$38, DW_AT_location[DW_OP_reg12]
     602              $C$DW$39        .dwtag  DW_TAG_formal_parameter, DW_AT_name("num")
     603                      .dwattr $C$DW$39, DW_AT_TI_symbol_name("_num")
     604                      .dwattr $C$DW$39, DW_AT_type(*$C$DW$T$5)
     605                      .dwattr $C$DW$39, DW_AT_location[DW_OP_reg0]
     606              
     607              ;***************************************************************
     608              ;* FNAME: _getReadI2Cmsg                FR SIZE:   4           *
     609              ;*                                                             *
     610              ;* FUNCTION ENVIRONMENT                                        *
     611              ;*                                                             *
     612              ;* FUNCTION PROPERTIES                                         *
     613              ;*                            0 Parameter,  4 Auto,  0 SOE     *
     614              ;***************************************************************
     615              
     616 0000008d       _getReadI2Cmsg:
     617                      .dwcfi  cfa_offset, -2
     618                      .dwcfi  save_reg_to_mem, 26, 0
     619                      .dwcfi  save_reg_to_reg, 78, 26
     620 0000008d FE04          ADDB      SP,#4                 ; [CPU_U] 
     621                      .dwcfi  cfa_offset, -6
     622              $C$DW$40        .dwtag  DW_TAG_variable, DW_AT_name("data")
     623                      .dwattr $C$DW$40, DW_AT_TI_symbol_name("_data")
     624                      .dwattr $C$DW$40, DW_AT_type(*$C$DW$T$79)
     625                      .dwattr $C$DW$40, DW_AT_location[DW_OP_breg20 -2]
     626              $C$DW$41        .dwtag  DW_TAG_variable, DW_AT_name("num")
     627                      .dwattr $C$DW$41, DW_AT_TI_symbol_name("_num")
     628                      .dwattr $C$DW$41, DW_AT_type(*$C$DW$T$5)
     629                      .dwattr $C$DW$41, DW_AT_location[DW_OP_breg20 -3]
TMS320C2000 Assembler PC v6.2.7 Thu Jul 02 08:31:06 2015

Tools Copyright (c) 1996-2014 Texas Instruments Incorporated
C:\Users\Tester\AppData\Local\Temp\0465610                           PAGE   13

     630              $C$DW$42        .dwtag  DW_TAG_variable, DW_AT_name("i")
     631                      .dwattr $C$DW$42, DW_AT_TI_symbol_name("_i")
     632                      .dwattr $C$DW$42, DW_AT_type(*$C$DW$T$5)
     633                      .dwattr $C$DW$42, DW_AT_location[DW_OP_breg20 -4]
     634 0000008e 9643          MOV       *-SP[3],AL            ; [CPU_] |420| 
     635 0000008f A842          MOVL      *-SP[2],XAR4          ; [CPU_] |420| 
     636                      .dwpsn  file "../cntrlI2C/I2Ccore.c",line 422,column 6,is_stmt
     637 00000090 2B44          MOV       *-SP[4],#0            ; [CPU_] |422| 
     638 00000091 6F0A          B         $C$L12,UNC            ; [CPU_] |422| 
     639                      ; branch occurs ; [] |422| 
     640 00000092       $C$L11:    
     641                      .dwpsn  file "../cntrlI2C/I2Ccore.c",line 423,column 3,is_stmt
     642 00000092 8A42          MOVL      XAR4,*-SP[2]          ; [CPU_] |423| 
     643 00000093 761F!         MOVW      DP,#_I2caRegs+6       ; [CPU_U] 
         00000094 0000 
     644 00000095 9206!         MOV       AL,@_I2caRegs+6       ; [CPU_] |423| 
     645 00000096 96C4          MOV       *+XAR4[0],AL          ; [CPU_] |423| 
     646                      .dwpsn  file "../cntrlI2C/I2Ccore.c",line 424,column 3,is_stmt
     647 00000097 0201          MOVB      ACC,#1                ; [CPU_] |424| 
     648 00000098 5601          ADDL      *-SP[2],ACC           ; [CPU_] |424| 
         00000099 0042 
     649                      .dwpsn  file "../cntrlI2C/I2Ccore.c",line 422,column 18,is_stmt
     650 0000009a 0A44          INC       *-SP[4]               ; [CPU_] |422| 
     651 0000009b       $C$L12:    
     652                      .dwpsn  file "../cntrlI2C/I2Ccore.c",line 422,column 11,is_stmt
     653 0000009b 9243          MOV       AL,*-SP[3]            ; [CPU_] |422| 
     654 0000009c 5444          CMP       AL,*-SP[4]            ; [CPU_] |422| 
     655 0000009d 62F5          B         $C$L11,GT             ; [CPU_] |422| 
     656                      ; branchcc occurs ; [] |422| 
     657                      .dwpsn  file "../cntrlI2C/I2Ccore.c",line 426,column 2,is_stmt
     658 0000009e 9A00          MOVB      AL,#0                 ; [CPU_] |426| 
     659                      .dwpsn  file "../cntrlI2C/I2Ccore.c",line 427,column 1,is_stmt
     660 0000009f FE84          SUBB      SP,#4                 ; [CPU_U] 
     661                      .dwcfi  cfa_offset, -2
     662              $C$DW$43        .dwtag  DW_TAG_TI_branch
     663                      .dwattr $C$DW$43, DW_AT_low_pc(0x00)
     664                      .dwattr $C$DW$43, DW_AT_TI_return
     665 000000a0 0006          LRETR     ; [CPU_] 
     666                      ; return occurs ; [] 
     667                      .dwattr $C$DW$37, DW_AT_TI_end_file("../cntrlI2C/I2Ccore.c")
     668                      .dwattr $C$DW$37, DW_AT_TI_end_line(0x1ab)
     669                      .dwattr $C$DW$37, DW_AT_TI_end_column(0x01)
     670                      .dwendentry
     671                      .dwendtag $C$DW$37
     672              
     673 000000a1               .sect   ".text"
     674                      .clink
     675                      .global _ReadyI2C
     676              
     677              $C$DW$44        .dwtag  DW_TAG_subprogram, DW_AT_name("ReadyI2C")
     678                      .dwattr $C$DW$44, DW_AT_low_pc(_ReadyI2C)
     679                      .dwattr $C$DW$44, DW_AT_high_pc(0x00)
     680                      .dwattr $C$DW$44, DW_AT_TI_symbol_name("_ReadyI2C")
     681                      .dwattr $C$DW$44, DW_AT_external
     682                      .dwattr $C$DW$44, DW_AT_type(*$C$DW$T$5)
TMS320C2000 Assembler PC v6.2.7 Thu Jul 02 08:31:06 2015

Tools Copyright (c) 1996-2014 Texas Instruments Incorporated
C:\Users\Tester\AppData\Local\Temp\0465610                           PAGE   14

     683                      .dwattr $C$DW$44, DW_AT_TI_begin_file("../cntrlI2C/I2Ccore.c")
     684                      .dwattr $C$DW$44, DW_AT_TI_begin_line(0x1ad)
     685                      .dwattr $C$DW$44, DW_AT_TI_begin_column(0x06)
     686                      .dwattr $C$DW$44, DW_AT_TI_max_frame_size(-2)
     687                      .dwpsn  file "../cntrlI2C/I2Ccore.c",line 429,column 20,is_stmt,address _ReadyI2C
     688              
     689                      .dwfde $C$DW$CIE, _ReadyI2C
     690              
     691              ;***************************************************************
     692              ;* FNAME: _ReadyI2C                     FR SIZE:   0           *
     693              ;*                                                             *
     694              ;* FUNCTION ENVIRONMENT                                        *
     695              ;*                                                             *
     696              ;* FUNCTION PROPERTIES                                         *
     697              ;*                            0 Parameter,  0 Auto,  0 SOE     *
     698              ;***************************************************************
     699              
     700 000000a1       _ReadyI2C:
     701                      .dwcfi  cfa_offset, -2
     702                      .dwcfi  save_reg_to_mem, 26, 0
     703                      .dwcfi  save_reg_to_reg, 78, 26
     704                      .dwpsn  file "../cntrlI2C/I2Ccore.c",line 430,column 2,is_stmt
     705 000000a1 761F!         MOVW      DP,#_I2caRegs+2       ; [CPU_U] 
         000000a2 0000 
     706 000000a3 4C02!         TBIT      @_I2caRegs+2,#12      ; [CPU_] |430| 
     707 000000a4 EE05          BF        $C$L13,TC             ; [CPU_] |430| 
     708                      ; branchcc occurs ; [] |430| 
     709 000000a5 4D09!         TBIT      @_I2caRegs+9,#13      ; [CPU_] |430| 
     710 000000a6 EE03          BF        $C$L13,TC             ; [CPU_] |430| 
     711                      ; branchcc occurs ; [] |430| 
     712                      .dwpsn  file "../cntrlI2C/I2Ccore.c",line 431,column 3,is_stmt
     713 000000a7 9A01          MOVB      AL,#1                 ; [CPU_] |431| 
     714 000000a8 6F09          B         $C$L15,UNC            ; [CPU_] |431| 
     715                      ; branch occurs ; [] |431| 
     716 000000a9       $C$L13:    
     717                      .dwpsn  file "../cntrlI2C/I2Ccore.c",line 433,column 3,is_stmt
     718 000000a9 CC02!         AND       AL,@_I2caRegs+2,#0x0004 ; [CPU_] |433| 
         000000aa 0004 
     719 000000ab FFC1          LSR       AL,2                  ; [CPU_] |433| 
     720 000000ac 5201          CMPB      AL,#1                 ; [CPU_] |433| 
     721 000000ad ED03          BF        $C$L14,NEQ            ; [CPU_] |433| 
     722                      ; branchcc occurs ; [] |433| 
     723                      .dwpsn  file "../cntrlI2C/I2Ccore.c",line 434,column 4,is_stmt
     724 000000ae 9A01          MOVB      AL,#1                 ; [CPU_] |434| 
     725 000000af 6F02          B         $C$L15,UNC            ; [CPU_] |434| 
     726                      ; branch occurs ; [] |434| 
     727 000000b0       $C$L14:    
     728                      .dwpsn  file "../cntrlI2C/I2Ccore.c",line 436,column 3,is_stmt
     729 000000b0 9A00          MOVB      AL,#0                 ; [CPU_] |436| 
     730 000000b1       $C$L15:    
     731                      .dwpsn  file "../cntrlI2C/I2Ccore.c",line 437,column 1,is_stmt
     732              $C$DW$45        .dwtag  DW_TAG_TI_branch
     733                      .dwattr $C$DW$45, DW_AT_low_pc(0x00)
     734                      .dwattr $C$DW$45, DW_AT_TI_return
     735 000000b1 0006          LRETR     ; [CPU_] 
TMS320C2000 Assembler PC v6.2.7 Thu Jul 02 08:31:06 2015

Tools Copyright (c) 1996-2014 Texas Instruments Incorporated
C:\Users\Tester\AppData\Local\Temp\0465610                           PAGE   15

     736                      ; return occurs ; [] 
     737                      .dwattr $C$DW$44, DW_AT_TI_end_file("../cntrlI2C/I2Ccore.c")
     738                      .dwattr $C$DW$44, DW_AT_TI_end_line(0x1b5)
     739                      .dwattr $C$DW$44, DW_AT_TI_end_column(0x01)
     740                      .dwendentry
     741                      .dwendtag $C$DW$44
     742              
     743 000000b2               .sect   ".text"
     744                      .clink
     745                      .global _Idle_I2C
     746              
     747              $C$DW$46        .dwtag  DW_TAG_subprogram, DW_AT_name("Idle_I2C")
     748                      .dwattr $C$DW$46, DW_AT_low_pc(_Idle_I2C)
     749                      .dwattr $C$DW$46, DW_AT_high_pc(0x00)
     750                      .dwattr $C$DW$46, DW_AT_TI_symbol_name("_Idle_I2C")
     751                      .dwattr $C$DW$46, DW_AT_external
     752                      .dwattr $C$DW$46, DW_AT_type(*$C$DW$T$5)
     753                      .dwattr $C$DW$46, DW_AT_TI_begin_file("../cntrlI2C/I2Ccore.c")
     754                      .dwattr $C$DW$46, DW_AT_TI_begin_line(0x1b7)
     755                      .dwattr $C$DW$46, DW_AT_TI_begin_column(0x06)
     756                      .dwattr $C$DW$46, DW_AT_TI_max_frame_size(-2)
     757                      .dwpsn  file "../cntrlI2C/I2Ccore.c",line 439,column 20,is_stmt,address _Idle_I2C
     758              
     759                      .dwfde $C$DW$CIE, _Idle_I2C
     760              
     761              ;***************************************************************
     762              ;* FNAME: _Idle_I2C                     FR SIZE:   0           *
     763              ;*                                                             *
     764              ;* FUNCTION ENVIRONMENT                                        *
     765              ;*                                                             *
     766              ;* FUNCTION PROPERTIES                                         *
     767              ;*                            0 Parameter,  0 Auto,  0 SOE     *
     768              ;***************************************************************
     769              
     770 000000b2       _Idle_I2C:
     771                      .dwcfi  cfa_offset, -2
     772                      .dwcfi  save_reg_to_mem, 26, 0
     773                      .dwcfi  save_reg_to_reg, 78, 26
     774                      .dwpsn  file "../cntrlI2C/I2Ccore.c",line 443,column 2,is_stmt
     775 000000b2 761F!         MOVW      DP,#_I2caRegs+9       ; [CPU_U] 
         000000b3 0000 
     776 000000b4 CC09!         AND       AL,@_I2caRegs+9,#0x0800 ; [CPU_] |443| 
         000000b5 0800 
     777 000000b6 FFCA          LSR       AL,11                 ; [CPU_] |443| 
     778 000000b7 5201          CMPB      AL,#1                 ; [CPU_] |443| 
     779 000000b8 ED03          BF        $C$L16,NEQ            ; [CPU_] |443| 
     780                      ; branchcc occurs ; [] |443| 
     781                      .dwpsn  file "../cntrlI2C/I2Ccore.c",line 444,column 3,is_stmt
     782 000000b9 9A01          MOVB      AL,#1                 ; [CPU_] |444| 
     783 000000ba 6F06          B         $C$L18,UNC            ; [CPU_] |444| 
     784                      ; branch occurs ; [] |444| 
     785 000000bb       $C$L16:    
     786                      .dwpsn  file "../cntrlI2C/I2Ccore.c",line 446,column 3,is_stmt
     787 000000bb 4502!         TBIT      @_I2caRegs+2,#5       ; [CPU_] |446| 
     788 000000bc EF03          BF        $C$L17,NTC            ; [CPU_] |446| 
TMS320C2000 Assembler PC v6.2.7 Thu Jul 02 08:31:06 2015

Tools Copyright (c) 1996-2014 Texas Instruments Incorporated
C:\Users\Tester\AppData\Local\Temp\0465610                           PAGE   16

     789                      ; branchcc occurs ; [] |446| 
     790                      .dwpsn  file "../cntrlI2C/I2Ccore.c",line 447,column 4,is_stmt
     791 000000bd 1A02!         OR        @_I2caRegs+2,#0x0020  ; [CPU_] |447| 
         000000be 0020 
     792 000000bf       $C$L17:    
     793                      .dwpsn  file "../cntrlI2C/I2Ccore.c",line 448,column 3,is_stmt
     794 000000bf 9A00          MOVB      AL,#0                 ; [CPU_] |448| 
     795 000000c0       $C$L18:    
     796                      .dwpsn  file "../cntrlI2C/I2Ccore.c",line 450,column 1,is_stmt
     797              $C$DW$47        .dwtag  DW_TAG_TI_branch
     798                      .dwattr $C$DW$47, DW_AT_low_pc(0x00)
     799                      .dwattr $C$DW$47, DW_AT_TI_return
     800 000000c0 0006          LRETR     ; [CPU_] 
     801                      ; return occurs ; [] 
     802                      .dwattr $C$DW$46, DW_AT_TI_end_file("../cntrlI2C/I2Ccore.c")
     803                      .dwattr $C$DW$46, DW_AT_TI_end_line(0x1c2)
     804                      .dwattr $C$DW$46, DW_AT_TI_end_column(0x01)
     805                      .dwendentry
     806                      .dwendtag $C$DW$46
     807              
     808              ;**************************************************************
     809              ;* UNDEFINED EXTERNAL REFERENCES                              *
     810              ;**************************************************************
     811                      .global _I2caRegs
     812                      .global _GpioCtrlRegs
     813              
     814              ;***************************************************************
     815              ;* TYPE INFORMATION                                            *
     816              ;***************************************************************
     817              
     818              $C$DW$T$20      .dwtag  DW_TAG_structure_type
     819                      .dwattr $C$DW$T$20, DW_AT_name("GPA1_BITS")
     820                      .dwattr $C$DW$T$20, DW_AT_byte_size(0x02)
     821              $C$DW$48        .dwtag  DW_TAG_member
     822                      .dwattr $C$DW$48, DW_AT_type(*$C$DW$T$19)
     823                      .dwattr $C$DW$48, DW_AT_name("GPIO0")
     824                      .dwattr $C$DW$48, DW_AT_TI_symbol_name("_GPIO0")
     825                      .dwattr $C$DW$48, DW_AT_bit_offset(0x0e), DW_AT_bit_size(0x02)
     826                      .dwattr $C$DW$48, DW_AT_data_member_location[DW_OP_plus_uconst 0x0]
     827                      .dwattr $C$DW$48, DW_AT_accessibility(DW_ACCESS_public)
     828              $C$DW$49        .dwtag  DW_TAG_member
     829                      .dwattr $C$DW$49, DW_AT_type(*$C$DW$T$19)
     830                      .dwattr $C$DW$49, DW_AT_name("GPIO1")
     831                      .dwattr $C$DW$49, DW_AT_TI_symbol_name("_GPIO1")
     832                      .dwattr $C$DW$49, DW_AT_bit_offset(0x0c), DW_AT_bit_size(0x02)
     833                      .dwattr $C$DW$49, DW_AT_data_member_location[DW_OP_plus_uconst 0x0]
     834                      .dwattr $C$DW$49, DW_AT_accessibility(DW_ACCESS_public)
     835              $C$DW$50        .dwtag  DW_TAG_member
     836                      .dwattr $C$DW$50, DW_AT_type(*$C$DW$T$19)
     837                      .dwattr $C$DW$50, DW_AT_name("GPIO2")
     838                      .dwattr $C$DW$50, DW_AT_TI_symbol_name("_GPIO2")
     839                      .dwattr $C$DW$50, DW_AT_bit_offset(0x0a), DW_AT_bit_size(0x02)
     840                      .dwattr $C$DW$50, DW_AT_data_member_location[DW_OP_plus_uconst 0x0]
     841                      .dwattr $C$DW$50, DW_AT_accessibility(DW_ACCESS_public)
     842              $C$DW$51        .dwtag  DW_TAG_member
TMS320C2000 Assembler PC v6.2.7 Thu Jul 02 08:31:06 2015

Tools Copyright (c) 1996-2014 Texas Instruments Incorporated
C:\Users\Tester\AppData\Local\Temp\0465610                           PAGE   17

     843                      .dwattr $C$DW$51, DW_AT_type(*$C$DW$T$19)
     844                      .dwattr $C$DW$51, DW_AT_name("GPIO3")
     845                      .dwattr $C$DW$51, DW_AT_TI_symbol_name("_GPIO3")
     846                      .dwattr $C$DW$51, DW_AT_bit_offset(0x08), DW_AT_bit_size(0x02)
     847                      .dwattr $C$DW$51, DW_AT_data_member_location[DW_OP_plus_uconst 0x0]
     848                      .dwattr $C$DW$51, DW_AT_accessibility(DW_ACCESS_public)
     849              $C$DW$52        .dwtag  DW_TAG_member
     850                      .dwattr $C$DW$52, DW_AT_type(*$C$DW$T$19)
     851                      .dwattr $C$DW$52, DW_AT_name("GPIO4")
     852                      .dwattr $C$DW$52, DW_AT_TI_symbol_name("_GPIO4")
     853                      .dwattr $C$DW$52, DW_AT_bit_offset(0x06), DW_AT_bit_size(0x02)
     854                      .dwattr $C$DW$52, DW_AT_data_member_location[DW_OP_plus_uconst 0x0]
     855                      .dwattr $C$DW$52, DW_AT_accessibility(DW_ACCESS_public)
     856              $C$DW$53        .dwtag  DW_TAG_member
     857                      .dwattr $C$DW$53, DW_AT_type(*$C$DW$T$19)
     858                      .dwattr $C$DW$53, DW_AT_name("GPIO5")
     859                      .dwattr $C$DW$53, DW_AT_TI_symbol_name("_GPIO5")
     860                      .dwattr $C$DW$53, DW_AT_bit_offset(0x04), DW_AT_bit_size(0x02)
     861                      .dwattr $C$DW$53, DW_AT_data_member_location[DW_OP_plus_uconst 0x0]
     862                      .dwattr $C$DW$53, DW_AT_accessibility(DW_ACCESS_public)
     863              $C$DW$54        .dwtag  DW_TAG_member
     864                      .dwattr $C$DW$54, DW_AT_type(*$C$DW$T$19)
     865                      .dwattr $C$DW$54, DW_AT_name("GPIO6")
     866                      .dwattr $C$DW$54, DW_AT_TI_symbol_name("_GPIO6")
     867                      .dwattr $C$DW$54, DW_AT_bit_offset(0x02), DW_AT_bit_size(0x02)
     868                      .dwattr $C$DW$54, DW_AT_data_member_location[DW_OP_plus_uconst 0x0]
     869                      .dwattr $C$DW$54, DW_AT_accessibility(DW_ACCESS_public)
     870              $C$DW$55        .dwtag  DW_TAG_member
     871                      .dwattr $C$DW$55, DW_AT_type(*$C$DW$T$19)
     872                      .dwattr $C$DW$55, DW_AT_name("GPIO7")
     873                      .dwattr $C$DW$55, DW_AT_TI_symbol_name("_GPIO7")
     874                      .dwattr $C$DW$55, DW_AT_bit_offset(0x00), DW_AT_bit_size(0x02)
     875                      .dwattr $C$DW$55, DW_AT_data_member_location[DW_OP_plus_uconst 0x0]
     876                      .dwattr $C$DW$55, DW_AT_accessibility(DW_ACCESS_public)
     877              $C$DW$56        .dwtag  DW_TAG_member
     878                      .dwattr $C$DW$56, DW_AT_type(*$C$DW$T$19)
     879                      .dwattr $C$DW$56, DW_AT_name("GPIO8")
     880                      .dwattr $C$DW$56, DW_AT_TI_symbol_name("_GPIO8")
     881                      .dwattr $C$DW$56, DW_AT_bit_offset(0x0e), DW_AT_bit_size(0x02)
     882                      .dwattr $C$DW$56, DW_AT_data_member_location[DW_OP_plus_uconst 0x1]
     883                      .dwattr $C$DW$56, DW_AT_accessibility(DW_ACCESS_public)
     884              $C$DW$57        .dwtag  DW_TAG_member
     885                      .dwattr $C$DW$57, DW_AT_type(*$C$DW$T$19)
     886                      .dwattr $C$DW$57, DW_AT_name("GPIO9")
     887                      .dwattr $C$DW$57, DW_AT_TI_symbol_name("_GPIO9")
     888                      .dwattr $C$DW$57, DW_AT_bit_offset(0x0c), DW_AT_bit_size(0x02)
     889                      .dwattr $C$DW$57, DW_AT_data_member_location[DW_OP_plus_uconst 0x1]
     890                      .dwattr $C$DW$57, DW_AT_accessibility(DW_ACCESS_public)
     891              $C$DW$58        .dwtag  DW_TAG_member
     892                      .dwattr $C$DW$58, DW_AT_type(*$C$DW$T$19)
     893                      .dwattr $C$DW$58, DW_AT_name("GPIO10")
     894                      .dwattr $C$DW$58, DW_AT_TI_symbol_name("_GPIO10")
     895                      .dwattr $C$DW$58, DW_AT_bit_offset(0x0a), DW_AT_bit_size(0x02)
     896                      .dwattr $C$DW$58, DW_AT_data_member_location[DW_OP_plus_uconst 0x1]
     897                      .dwattr $C$DW$58, DW_AT_accessibility(DW_ACCESS_public)
TMS320C2000 Assembler PC v6.2.7 Thu Jul 02 08:31:06 2015

Tools Copyright (c) 1996-2014 Texas Instruments Incorporated
C:\Users\Tester\AppData\Local\Temp\0465610                           PAGE   18

     898              $C$DW$59        .dwtag  DW_TAG_member
     899                      .dwattr $C$DW$59, DW_AT_type(*$C$DW$T$19)
     900                      .dwattr $C$DW$59, DW_AT_name("GPIO11")
     901                      .dwattr $C$DW$59, DW_AT_TI_symbol_name("_GPIO11")
     902                      .dwattr $C$DW$59, DW_AT_bit_offset(0x08), DW_AT_bit_size(0x02)
     903                      .dwattr $C$DW$59, DW_AT_data_member_location[DW_OP_plus_uconst 0x1]
     904                      .dwattr $C$DW$59, DW_AT_accessibility(DW_ACCESS_public)
     905              $C$DW$60        .dwtag  DW_TAG_member
     906                      .dwattr $C$DW$60, DW_AT_type(*$C$DW$T$19)
     907                      .dwattr $C$DW$60, DW_AT_name("GPIO12")
     908                      .dwattr $C$DW$60, DW_AT_TI_symbol_name("_GPIO12")
     909                      .dwattr $C$DW$60, DW_AT_bit_offset(0x06), DW_AT_bit_size(0x02)
     910                      .dwattr $C$DW$60, DW_AT_data_member_location[DW_OP_plus_uconst 0x1]
     911                      .dwattr $C$DW$60, DW_AT_accessibility(DW_ACCESS_public)
     912              $C$DW$61        .dwtag  DW_TAG_member
     913                      .dwattr $C$DW$61, DW_AT_type(*$C$DW$T$19)
     914                      .dwattr $C$DW$61, DW_AT_name("GPIO13")
     915                      .dwattr $C$DW$61, DW_AT_TI_symbol_name("_GPIO13")
     916                      .dwattr $C$DW$61, DW_AT_bit_offset(0x04), DW_AT_bit_size(0x02)
     917                      .dwattr $C$DW$61, DW_AT_data_member_location[DW_OP_plus_uconst 0x1]
     918                      .dwattr $C$DW$61, DW_AT_accessibility(DW_ACCESS_public)
     919              $C$DW$62        .dwtag  DW_TAG_member
     920                      .dwattr $C$DW$62, DW_AT_type(*$C$DW$T$19)
     921                      .dwattr $C$DW$62, DW_AT_name("GPIO14")
     922                      .dwattr $C$DW$62, DW_AT_TI_symbol_name("_GPIO14")
     923                      .dwattr $C$DW$62, DW_AT_bit_offset(0x02), DW_AT_bit_size(0x02)
     924                      .dwattr $C$DW$62, DW_AT_data_member_location[DW_OP_plus_uconst 0x1]
     925                      .dwattr $C$DW$62, DW_AT_accessibility(DW_ACCESS_public)
     926              $C$DW$63        .dwtag  DW_TAG_member
     927                      .dwattr $C$DW$63, DW_AT_type(*$C$DW$T$19)
     928                      .dwattr $C$DW$63, DW_AT_name("GPIO15")
     929                      .dwattr $C$DW$63, DW_AT_TI_symbol_name("_GPIO15")
     930                      .dwattr $C$DW$63, DW_AT_bit_offset(0x00), DW_AT_bit_size(0x02)
     931                      .dwattr $C$DW$63, DW_AT_data_member_location[DW_OP_plus_uconst 0x1]
     932                      .dwattr $C$DW$63, DW_AT_accessibility(DW_ACCESS_public)
     933                      .dwendtag $C$DW$T$20
     934              
     935              
     936              $C$DW$T$22      .dwtag  DW_TAG_union_type
     937                      .dwattr $C$DW$T$22, DW_AT_name("GPA1_REG")
     938                      .dwattr $C$DW$T$22, DW_AT_byte_size(0x02)
     939              $C$DW$64        .dwtag  DW_TAG_member
     940                      .dwattr $C$DW$64, DW_AT_type(*$C$DW$T$21)
     941                      .dwattr $C$DW$64, DW_AT_name("all")
     942                      .dwattr $C$DW$64, DW_AT_TI_symbol_name("_all")
     943                      .dwattr $C$DW$64, DW_AT_data_member_location[DW_OP_plus_uconst 0x0]
     944                      .dwattr $C$DW$64, DW_AT_accessibility(DW_ACCESS_public)
     945              $C$DW$65        .dwtag  DW_TAG_member
     946                      .dwattr $C$DW$65, DW_AT_type(*$C$DW$T$20)
     947                      .dwattr $C$DW$65, DW_AT_name("bit")
     948                      .dwattr $C$DW$65, DW_AT_TI_symbol_name("_bit")
     949                      .dwattr $C$DW$65, DW_AT_data_member_location[DW_OP_plus_uconst 0x0]
     950                      .dwattr $C$DW$65, DW_AT_accessibility(DW_ACCESS_public)
     951                      .dwendtag $C$DW$T$22
     952              
TMS320C2000 Assembler PC v6.2.7 Thu Jul 02 08:31:06 2015

Tools Copyright (c) 1996-2014 Texas Instruments Incorporated
C:\Users\Tester\AppData\Local\Temp\0465610                           PAGE   19

     953              
     954              $C$DW$T$23      .dwtag  DW_TAG_structure_type
     955                      .dwattr $C$DW$T$23, DW_AT_name("GPA2_BITS")
     956                      .dwattr $C$DW$T$23, DW_AT_byte_size(0x02)
     957              $C$DW$66        .dwtag  DW_TAG_member
     958                      .dwattr $C$DW$66, DW_AT_type(*$C$DW$T$19)
     959                      .dwattr $C$DW$66, DW_AT_name("GPIO16")
     960                      .dwattr $C$DW$66, DW_AT_TI_symbol_name("_GPIO16")
     961                      .dwattr $C$DW$66, DW_AT_bit_offset(0x0e), DW_AT_bit_size(0x02)
     962                      .dwattr $C$DW$66, DW_AT_data_member_location[DW_OP_plus_uconst 0x0]
     963                      .dwattr $C$DW$66, DW_AT_accessibility(DW_ACCESS_public)
     964              $C$DW$67        .dwtag  DW_TAG_member
     965                      .dwattr $C$DW$67, DW_AT_type(*$C$DW$T$19)
     966                      .dwattr $C$DW$67, DW_AT_name("GPIO17")
     967                      .dwattr $C$DW$67, DW_AT_TI_symbol_name("_GPIO17")
     968                      .dwattr $C$DW$67, DW_AT_bit_offset(0x0c), DW_AT_bit_size(0x02)
     969                      .dwattr $C$DW$67, DW_AT_data_member_location[DW_OP_plus_uconst 0x0]
     970                      .dwattr $C$DW$67, DW_AT_accessibility(DW_ACCESS_public)
     971              $C$DW$68        .dwtag  DW_TAG_member
     972                      .dwattr $C$DW$68, DW_AT_type(*$C$DW$T$19)
     973                      .dwattr $C$DW$68, DW_AT_name("GPIO18")
     974                      .dwattr $C$DW$68, DW_AT_TI_symbol_name("_GPIO18")
     975                      .dwattr $C$DW$68, DW_AT_bit_offset(0x0a), DW_AT_bit_size(0x02)
     976                      .dwattr $C$DW$68, DW_AT_data_member_location[DW_OP_plus_uconst 0x0]
     977                      .dwattr $C$DW$68, DW_AT_accessibility(DW_ACCESS_public)
     978              $C$DW$69        .dwtag  DW_TAG_member
     979                      .dwattr $C$DW$69, DW_AT_type(*$C$DW$T$19)
     980                      .dwattr $C$DW$69, DW_AT_name("GPIO19")
     981                      .dwattr $C$DW$69, DW_AT_TI_symbol_name("_GPIO19")
     982                      .dwattr $C$DW$69, DW_AT_bit_offset(0x08), DW_AT_bit_size(0x02)
     983                      .dwattr $C$DW$69, DW_AT_data_member_location[DW_OP_plus_uconst 0x0]
     984                      .dwattr $C$DW$69, DW_AT_accessibility(DW_ACCESS_public)
     985              $C$DW$70        .dwtag  DW_TAG_member
     986                      .dwattr $C$DW$70, DW_AT_type(*$C$DW$T$19)
     987                      .dwattr $C$DW$70, DW_AT_name("GPIO20")
     988                      .dwattr $C$DW$70, DW_AT_TI_symbol_name("_GPIO20")
     989                      .dwattr $C$DW$70, DW_AT_bit_offset(0x06), DW_AT_bit_size(0x02)
     990                      .dwattr $C$DW$70, DW_AT_data_member_location[DW_OP_plus_uconst 0x0]
     991                      .dwattr $C$DW$70, DW_AT_accessibility(DW_ACCESS_public)
     992              $C$DW$71        .dwtag  DW_TAG_member
     993                      .dwattr $C$DW$71, DW_AT_type(*$C$DW$T$19)
     994                      .dwattr $C$DW$71, DW_AT_name("GPIO21")
     995                      .dwattr $C$DW$71, DW_AT_TI_symbol_name("_GPIO21")
     996                      .dwattr $C$DW$71, DW_AT_bit_offset(0x04), DW_AT_bit_size(0x02)
     997                      .dwattr $C$DW$71, DW_AT_data_member_location[DW_OP_plus_uconst 0x0]
     998                      .dwattr $C$DW$71, DW_AT_accessibility(DW_ACCESS_public)
     999              $C$DW$72        .dwtag  DW_TAG_member
    1000                      .dwattr $C$DW$72, DW_AT_type(*$C$DW$T$19)
    1001                      .dwattr $C$DW$72, DW_AT_name("GPIO22")
    1002                      .dwattr $C$DW$72, DW_AT_TI_symbol_name("_GPIO22")
    1003                      .dwattr $C$DW$72, DW_AT_bit_offset(0x02), DW_AT_bit_size(0x02)
    1004                      .dwattr $C$DW$72, DW_AT_data_member_location[DW_OP_plus_uconst 0x0]
    1005                      .dwattr $C$DW$72, DW_AT_accessibility(DW_ACCESS_public)
    1006              $C$DW$73        .dwtag  DW_TAG_member
    1007                      .dwattr $C$DW$73, DW_AT_type(*$C$DW$T$19)
TMS320C2000 Assembler PC v6.2.7 Thu Jul 02 08:31:06 2015

Tools Copyright (c) 1996-2014 Texas Instruments Incorporated
C:\Users\Tester\AppData\Local\Temp\0465610                           PAGE   20

    1008                      .dwattr $C$DW$73, DW_AT_name("GPIO23")
    1009                      .dwattr $C$DW$73, DW_AT_TI_symbol_name("_GPIO23")
    1010                      .dwattr $C$DW$73, DW_AT_bit_offset(0x00), DW_AT_bit_size(0x02)
    1011                      .dwattr $C$DW$73, DW_AT_data_member_location[DW_OP_plus_uconst 0x0]
    1012                      .dwattr $C$DW$73, DW_AT_accessibility(DW_ACCESS_public)
    1013              $C$DW$74        .dwtag  DW_TAG_member
    1014                      .dwattr $C$DW$74, DW_AT_type(*$C$DW$T$19)
    1015                      .dwattr $C$DW$74, DW_AT_name("GPIO24")
    1016                      .dwattr $C$DW$74, DW_AT_TI_symbol_name("_GPIO24")
    1017                      .dwattr $C$DW$74, DW_AT_bit_offset(0x0e), DW_AT_bit_size(0x02)
    1018                      .dwattr $C$DW$74, DW_AT_data_member_location[DW_OP_plus_uconst 0x1]
    1019                      .dwattr $C$DW$74, DW_AT_accessibility(DW_ACCESS_public)
    1020              $C$DW$75        .dwtag  DW_TAG_member
    1021                      .dwattr $C$DW$75, DW_AT_type(*$C$DW$T$19)
    1022                      .dwattr $C$DW$75, DW_AT_name("GPIO25")
    1023                      .dwattr $C$DW$75, DW_AT_TI_symbol_name("_GPIO25")
    1024                      .dwattr $C$DW$75, DW_AT_bit_offset(0x0c), DW_AT_bit_size(0x02)
    1025                      .dwattr $C$DW$75, DW_AT_data_member_location[DW_OP_plus_uconst 0x1]
    1026                      .dwattr $C$DW$75, DW_AT_accessibility(DW_ACCESS_public)
    1027              $C$DW$76        .dwtag  DW_TAG_member
    1028                      .dwattr $C$DW$76, DW_AT_type(*$C$DW$T$19)
    1029                      .dwattr $C$DW$76, DW_AT_name("GPIO26")
    1030                      .dwattr $C$DW$76, DW_AT_TI_symbol_name("_GPIO26")
    1031                      .dwattr $C$DW$76, DW_AT_bit_offset(0x0a), DW_AT_bit_size(0x02)
    1032                      .dwattr $C$DW$76, DW_AT_data_member_location[DW_OP_plus_uconst 0x1]
    1033                      .dwattr $C$DW$76, DW_AT_accessibility(DW_ACCESS_public)
    1034              $C$DW$77        .dwtag  DW_TAG_member
    1035                      .dwattr $C$DW$77, DW_AT_type(*$C$DW$T$19)
    1036                      .dwattr $C$DW$77, DW_AT_name("GPIO27")
    1037                      .dwattr $C$DW$77, DW_AT_TI_symbol_name("_GPIO27")
    1038                      .dwattr $C$DW$77, DW_AT_bit_offset(0x08), DW_AT_bit_size(0x02)
    1039                      .dwattr $C$DW$77, DW_AT_data_member_location[DW_OP_plus_uconst 0x1]
    1040                      .dwattr $C$DW$77, DW_AT_accessibility(DW_ACCESS_public)
    1041              $C$DW$78        .dwtag  DW_TAG_member
    1042                      .dwattr $C$DW$78, DW_AT_type(*$C$DW$T$19)
    1043                      .dwattr $C$DW$78, DW_AT_name("GPIO28")
    1044                      .dwattr $C$DW$78, DW_AT_TI_symbol_name("_GPIO28")
    1045                      .dwattr $C$DW$78, DW_AT_bit_offset(0x06), DW_AT_bit_size(0x02)
    1046                      .dwattr $C$DW$78, DW_AT_data_member_location[DW_OP_plus_uconst 0x1]
    1047                      .dwattr $C$DW$78, DW_AT_accessibility(DW_ACCESS_public)
    1048              $C$DW$79        .dwtag  DW_TAG_member
    1049                      .dwattr $C$DW$79, DW_AT_type(*$C$DW$T$19)
    1050                      .dwattr $C$DW$79, DW_AT_name("GPIO29")
    1051                      .dwattr $C$DW$79, DW_AT_TI_symbol_name("_GPIO29")
    1052                      .dwattr $C$DW$79, DW_AT_bit_offset(0x04), DW_AT_bit_size(0x02)
    1053                      .dwattr $C$DW$79, DW_AT_data_member_location[DW_OP_plus_uconst 0x1]
    1054                      .dwattr $C$DW$79, DW_AT_accessibility(DW_ACCESS_public)
    1055              $C$DW$80        .dwtag  DW_TAG_member
    1056                      .dwattr $C$DW$80, DW_AT_type(*$C$DW$T$19)
    1057                      .dwattr $C$DW$80, DW_AT_name("GPIO30")
    1058                      .dwattr $C$DW$80, DW_AT_TI_symbol_name("_GPIO30")
    1059                      .dwattr $C$DW$80, DW_AT_bit_offset(0x02), DW_AT_bit_size(0x02)
    1060                      .dwattr $C$DW$80, DW_AT_data_member_location[DW_OP_plus_uconst 0x1]
    1061                      .dwattr $C$DW$80, DW_AT_accessibility(DW_ACCESS_public)
    1062              $C$DW$81        .dwtag  DW_TAG_member
TMS320C2000 Assembler PC v6.2.7 Thu Jul 02 08:31:06 2015

Tools Copyright (c) 1996-2014 Texas Instruments Incorporated
C:\Users\Tester\AppData\Local\Temp\0465610                           PAGE   21

    1063                      .dwattr $C$DW$81, DW_AT_type(*$C$DW$T$19)
    1064                      .dwattr $C$DW$81, DW_AT_name("GPIO31")
    1065                      .dwattr $C$DW$81, DW_AT_TI_symbol_name("_GPIO31")
    1066                      .dwattr $C$DW$81, DW_AT_bit_offset(0x00), DW_AT_bit_size(0x02)
    1067                      .dwattr $C$DW$81, DW_AT_data_member_location[DW_OP_plus_uconst 0x1]
    1068                      .dwattr $C$DW$81, DW_AT_accessibility(DW_ACCESS_public)
    1069                      .dwendtag $C$DW$T$23
    1070              
    1071              
    1072              $C$DW$T$24      .dwtag  DW_TAG_union_type
    1073                      .dwattr $C$DW$T$24, DW_AT_name("GPA2_REG")
    1074                      .dwattr $C$DW$T$24, DW_AT_byte_size(0x02)
    1075              $C$DW$82        .dwtag  DW_TAG_member
    1076                      .dwattr $C$DW$82, DW_AT_type(*$C$DW$T$21)
    1077                      .dwattr $C$DW$82, DW_AT_name("all")
    1078                      .dwattr $C$DW$82, DW_AT_TI_symbol_name("_all")
    1079                      .dwattr $C$DW$82, DW_AT_data_member_location[DW_OP_plus_uconst 0x0]
    1080                      .dwattr $C$DW$82, DW_AT_accessibility(DW_ACCESS_public)
    1081              $C$DW$83        .dwtag  DW_TAG_member
    1082                      .dwattr $C$DW$83, DW_AT_type(*$C$DW$T$23)
    1083                      .dwattr $C$DW$83, DW_AT_name("bit")
    1084                      .dwattr $C$DW$83, DW_AT_TI_symbol_name("_bit")
    1085                      .dwattr $C$DW$83, DW_AT_data_member_location[DW_OP_plus_uconst 0x0]
    1086                      .dwattr $C$DW$83, DW_AT_accessibility(DW_ACCESS_public)
    1087                      .dwendtag $C$DW$T$24
    1088              
    1089              
    1090              $C$DW$T$25      .dwtag  DW_TAG_structure_type
    1091                      .dwattr $C$DW$T$25, DW_AT_name("GPACTRL_BITS")
    1092                      .dwattr $C$DW$T$25, DW_AT_byte_size(0x02)
    1093              $C$DW$84        .dwtag  DW_TAG_member
    1094                      .dwattr $C$DW$84, DW_AT_type(*$C$DW$T$19)
    1095                      .dwattr $C$DW$84, DW_AT_name("QUALPRD0")
    1096                      .dwattr $C$DW$84, DW_AT_TI_symbol_name("_QUALPRD0")
    1097                      .dwattr $C$DW$84, DW_AT_bit_offset(0x08), DW_AT_bit_size(0x08)
    1098                      .dwattr $C$DW$84, DW_AT_data_member_location[DW_OP_plus_uconst 0x0]
    1099                      .dwattr $C$DW$84, DW_AT_accessibility(DW_ACCESS_public)
    1100              $C$DW$85        .dwtag  DW_TAG_member
    1101                      .dwattr $C$DW$85, DW_AT_type(*$C$DW$T$19)
    1102                      .dwattr $C$DW$85, DW_AT_name("QUALPRD1")
    1103                      .dwattr $C$DW$85, DW_AT_TI_symbol_name("_QUALPRD1")
    1104                      .dwattr $C$DW$85, DW_AT_bit_offset(0x00), DW_AT_bit_size(0x08)
    1105                      .dwattr $C$DW$85, DW_AT_data_member_location[DW_OP_plus_uconst 0x0]
    1106                      .dwattr $C$DW$85, DW_AT_accessibility(DW_ACCESS_public)
    1107              $C$DW$86        .dwtag  DW_TAG_member
    1108                      .dwattr $C$DW$86, DW_AT_type(*$C$DW$T$19)
    1109                      .dwattr $C$DW$86, DW_AT_name("QUALPRD2")
    1110                      .dwattr $C$DW$86, DW_AT_TI_symbol_name("_QUALPRD2")
    1111                      .dwattr $C$DW$86, DW_AT_bit_offset(0x08), DW_AT_bit_size(0x08)
    1112                      .dwattr $C$DW$86, DW_AT_data_member_location[DW_OP_plus_uconst 0x1]
    1113                      .dwattr $C$DW$86, DW_AT_accessibility(DW_ACCESS_public)
    1114              $C$DW$87        .dwtag  DW_TAG_member
    1115                      .dwattr $C$DW$87, DW_AT_type(*$C$DW$T$19)
    1116                      .dwattr $C$DW$87, DW_AT_name("QUALPRD3")
    1117                      .dwattr $C$DW$87, DW_AT_TI_symbol_name("_QUALPRD3")
TMS320C2000 Assembler PC v6.2.7 Thu Jul 02 08:31:06 2015

Tools Copyright (c) 1996-2014 Texas Instruments Incorporated
C:\Users\Tester\AppData\Local\Temp\0465610                           PAGE   22

    1118                      .dwattr $C$DW$87, DW_AT_bit_offset(0x00), DW_AT_bit_size(0x08)
    1119                      .dwattr $C$DW$87, DW_AT_data_member_location[DW_OP_plus_uconst 0x1]
    1120                      .dwattr $C$DW$87, DW_AT_accessibility(DW_ACCESS_public)
    1121                      .dwendtag $C$DW$T$25
    1122              
    1123              
    1124              $C$DW$T$26      .dwtag  DW_TAG_union_type
    1125                      .dwattr $C$DW$T$26, DW_AT_name("GPACTRL_REG")
    1126                      .dwattr $C$DW$T$26, DW_AT_byte_size(0x02)
    1127              $C$DW$88        .dwtag  DW_TAG_member
    1128                      .dwattr $C$DW$88, DW_AT_type(*$C$DW$T$21)
    1129                      .dwattr $C$DW$88, DW_AT_name("all")
    1130                      .dwattr $C$DW$88, DW_AT_TI_symbol_name("_all")
    1131                      .dwattr $C$DW$88, DW_AT_data_member_location[DW_OP_plus_uconst 0x0]
    1132                      .dwattr $C$DW$88, DW_AT_accessibility(DW_ACCESS_public)
    1133              $C$DW$89        .dwtag  DW_TAG_member
    1134                      .dwattr $C$DW$89, DW_AT_type(*$C$DW$T$25)
    1135                      .dwattr $C$DW$89, DW_AT_name("bit")
    1136                      .dwattr $C$DW$89, DW_AT_TI_symbol_name("_bit")
    1137                      .dwattr $C$DW$89, DW_AT_data_member_location[DW_OP_plus_uconst 0x0]
    1138                      .dwattr $C$DW$89, DW_AT_accessibility(DW_ACCESS_public)
    1139                      .dwendtag $C$DW$T$26
    1140              
    1141              
    1142              $C$DW$T$27      .dwtag  DW_TAG_structure_type
    1143                      .dwattr $C$DW$T$27, DW_AT_name("GPADAT_BITS")
    1144                      .dwattr $C$DW$T$27, DW_AT_byte_size(0x02)
    1145              $C$DW$90        .dwtag  DW_TAG_member
    1146                      .dwattr $C$DW$90, DW_AT_type(*$C$DW$T$19)
    1147                      .dwattr $C$DW$90, DW_AT_name("GPIO0")
    1148                      .dwattr $C$DW$90, DW_AT_TI_symbol_name("_GPIO0")
    1149                      .dwattr $C$DW$90, DW_AT_bit_offset(0x0f), DW_AT_bit_size(0x01)
    1150                      .dwattr $C$DW$90, DW_AT_data_member_location[DW_OP_plus_uconst 0x0]
    1151                      .dwattr $C$DW$90, DW_AT_accessibility(DW_ACCESS_public)
    1152              $C$DW$91        .dwtag  DW_TAG_member
    1153                      .dwattr $C$DW$91, DW_AT_type(*$C$DW$T$19)
    1154                      .dwattr $C$DW$91, DW_AT_name("GPIO1")
    1155                      .dwattr $C$DW$91, DW_AT_TI_symbol_name("_GPIO1")
    1156                      .dwattr $C$DW$91, DW_AT_bit_offset(0x0e), DW_AT_bit_size(0x01)
    1157                      .dwattr $C$DW$91, DW_AT_data_member_location[DW_OP_plus_uconst 0x0]
    1158                      .dwattr $C$DW$91, DW_AT_accessibility(DW_ACCESS_public)
    1159              $C$DW$92        .dwtag  DW_TAG_member
    1160                      .dwattr $C$DW$92, DW_AT_type(*$C$DW$T$19)
    1161                      .dwattr $C$DW$92, DW_AT_name("GPIO2")
    1162                      .dwattr $C$DW$92, DW_AT_TI_symbol_name("_GPIO2")
    1163                      .dwattr $C$DW$92, DW_AT_bit_offset(0x0d), DW_AT_bit_size(0x01)
    1164                      .dwattr $C$DW$92, DW_AT_data_member_location[DW_OP_plus_uconst 0x0]
    1165                      .dwattr $C$DW$92, DW_AT_accessibility(DW_ACCESS_public)
    1166              $C$DW$93        .dwtag  DW_TAG_member
    1167                      .dwattr $C$DW$93, DW_AT_type(*$C$DW$T$19)
    1168                      .dwattr $C$DW$93, DW_AT_name("GPIO3")
    1169                      .dwattr $C$DW$93, DW_AT_TI_symbol_name("_GPIO3")
    1170                      .dwattr $C$DW$93, DW_AT_bit_offset(0x0c), DW_AT_bit_size(0x01)
    1171                      .dwattr $C$DW$93, DW_AT_data_member_location[DW_OP_plus_uconst 0x0]
    1172                      .dwattr $C$DW$93, DW_AT_accessibility(DW_ACCESS_public)
TMS320C2000 Assembler PC v6.2.7 Thu Jul 02 08:31:06 2015

Tools Copyright (c) 1996-2014 Texas Instruments Incorporated
C:\Users\Tester\AppData\Local\Temp\0465610                           PAGE   23

    1173              $C$DW$94        .dwtag  DW_TAG_member
    1174                      .dwattr $C$DW$94, DW_AT_type(*$C$DW$T$19)
    1175                      .dwattr $C$DW$94, DW_AT_name("GPIO4")
    1176                      .dwattr $C$DW$94, DW_AT_TI_symbol_name("_GPIO4")
    1177                      .dwattr $C$DW$94, DW_AT_bit_offset(0x0b), DW_AT_bit_size(0x01)
    1178                      .dwattr $C$DW$94, DW_AT_data_member_location[DW_OP_plus_uconst 0x0]
    1179                      .dwattr $C$DW$94, DW_AT_accessibility(DW_ACCESS_public)
    1180              $C$DW$95        .dwtag  DW_TAG_member
    1181                      .dwattr $C$DW$95, DW_AT_type(*$C$DW$T$19)
    1182                      .dwattr $C$DW$95, DW_AT_name("GPIO5")
    1183                      .dwattr $C$DW$95, DW_AT_TI_symbol_name("_GPIO5")
    1184                      .dwattr $C$DW$95, DW_AT_bit_offset(0x0a), DW_AT_bit_size(0x01)
    1185                      .dwattr $C$DW$95, DW_AT_data_member_location[DW_OP_plus_uconst 0x0]
    1186                      .dwattr $C$DW$95, DW_AT_accessibility(DW_ACCESS_public)
    1187              $C$DW$96        .dwtag  DW_TAG_member
    1188                      .dwattr $C$DW$96, DW_AT_type(*$C$DW$T$19)
    1189                      .dwattr $C$DW$96, DW_AT_name("GPIO6")
    1190                      .dwattr $C$DW$96, DW_AT_TI_symbol_name("_GPIO6")
    1191                      .dwattr $C$DW$96, DW_AT_bit_offset(0x09), DW_AT_bit_size(0x01)
    1192                      .dwattr $C$DW$96, DW_AT_data_member_location[DW_OP_plus_uconst 0x0]
    1193                      .dwattr $C$DW$96, DW_AT_accessibility(DW_ACCESS_public)
    1194              $C$DW$97        .dwtag  DW_TAG_member
    1195                      .dwattr $C$DW$97, DW_AT_type(*$C$DW$T$19)
    1196                      .dwattr $C$DW$97, DW_AT_name("GPIO7")
    1197                      .dwattr $C$DW$97, DW_AT_TI_symbol_name("_GPIO7")
    1198                      .dwattr $C$DW$97, DW_AT_bit_offset(0x08), DW_AT_bit_size(0x01)
    1199                      .dwattr $C$DW$97, DW_AT_data_member_location[DW_OP_plus_uconst 0x0]
    1200                      .dwattr $C$DW$97, DW_AT_accessibility(DW_ACCESS_public)
    1201              $C$DW$98        .dwtag  DW_TAG_member
    1202                      .dwattr $C$DW$98, DW_AT_type(*$C$DW$T$19)
    1203                      .dwattr $C$DW$98, DW_AT_name("GPIO8")
    1204                      .dwattr $C$DW$98, DW_AT_TI_symbol_name("_GPIO8")
    1205                      .dwattr $C$DW$98, DW_AT_bit_offset(0x07), DW_AT_bit_size(0x01)
    1206                      .dwattr $C$DW$98, DW_AT_data_member_location[DW_OP_plus_uconst 0x0]
    1207                      .dwattr $C$DW$98, DW_AT_accessibility(DW_ACCESS_public)
    1208              $C$DW$99        .dwtag  DW_TAG_member
    1209                      .dwattr $C$DW$99, DW_AT_type(*$C$DW$T$19)
    1210                      .dwattr $C$DW$99, DW_AT_name("GPIO9")
    1211                      .dwattr $C$DW$99, DW_AT_TI_symbol_name("_GPIO9")
    1212                      .dwattr $C$DW$99, DW_AT_bit_offset(0x06), DW_AT_bit_size(0x01)
    1213                      .dwattr $C$DW$99, DW_AT_data_member_location[DW_OP_plus_uconst 0x0]
    1214                      .dwattr $C$DW$99, DW_AT_accessibility(DW_ACCESS_public)
    1215              $C$DW$100       .dwtag  DW_TAG_member
    1216                      .dwattr $C$DW$100, DW_AT_type(*$C$DW$T$19)
    1217                      .dwattr $C$DW$100, DW_AT_name("GPIO10")
    1218                      .dwattr $C$DW$100, DW_AT_TI_symbol_name("_GPIO10")
    1219                      .dwattr $C$DW$100, DW_AT_bit_offset(0x05), DW_AT_bit_size(0x01)
    1220                      .dwattr $C$DW$100, DW_AT_data_member_location[DW_OP_plus_uconst 0x0]
    1221                      .dwattr $C$DW$100, DW_AT_accessibility(DW_ACCESS_public)
    1222              $C$DW$101       .dwtag  DW_TAG_member
    1223                      .dwattr $C$DW$101, DW_AT_type(*$C$DW$T$19)
    1224                      .dwattr $C$DW$101, DW_AT_name("GPIO11")
    1225                      .dwattr $C$DW$101, DW_AT_TI_symbol_name("_GPIO11")
    1226                      .dwattr $C$DW$101, DW_AT_bit_offset(0x04), DW_AT_bit_size(0x01)
    1227                      .dwattr $C$DW$101, DW_AT_data_member_location[DW_OP_plus_uconst 0x0]
TMS320C2000 Assembler PC v6.2.7 Thu Jul 02 08:31:06 2015

Tools Copyright (c) 1996-2014 Texas Instruments Incorporated
C:\Users\Tester\AppData\Local\Temp\0465610                           PAGE   24

    1228                      .dwattr $C$DW$101, DW_AT_accessibility(DW_ACCESS_public)
    1229              $C$DW$102       .dwtag  DW_TAG_member
    1230                      .dwattr $C$DW$102, DW_AT_type(*$C$DW$T$19)
    1231                      .dwattr $C$DW$102, DW_AT_name("GPIO12")
    1232                      .dwattr $C$DW$102, DW_AT_TI_symbol_name("_GPIO12")
    1233                      .dwattr $C$DW$102, DW_AT_bit_offset(0x03), DW_AT_bit_size(0x01)
    1234                      .dwattr $C$DW$102, DW_AT_data_member_location[DW_OP_plus_uconst 0x0]
    1235                      .dwattr $C$DW$102, DW_AT_accessibility(DW_ACCESS_public)
    1236              $C$DW$103       .dwtag  DW_TAG_member
    1237                      .dwattr $C$DW$103, DW_AT_type(*$C$DW$T$19)
    1238                      .dwattr $C$DW$103, DW_AT_name("GPIO13")
    1239                      .dwattr $C$DW$103, DW_AT_TI_symbol_name("_GPIO13")
    1240                      .dwattr $C$DW$103, DW_AT_bit_offset(0x02), DW_AT_bit_size(0x01)
    1241                      .dwattr $C$DW$103, DW_AT_data_member_location[DW_OP_plus_uconst 0x0]
    1242                      .dwattr $C$DW$103, DW_AT_accessibility(DW_ACCESS_public)
    1243              $C$DW$104       .dwtag  DW_TAG_member
    1244                      .dwattr $C$DW$104, DW_AT_type(*$C$DW$T$19)
    1245                      .dwattr $C$DW$104, DW_AT_name("GPIO14")
    1246                      .dwattr $C$DW$104, DW_AT_TI_symbol_name("_GPIO14")
    1247                      .dwattr $C$DW$104, DW_AT_bit_offset(0x01), DW_AT_bit_size(0x01)
    1248                      .dwattr $C$DW$104, DW_AT_data_member_location[DW_OP_plus_uconst 0x0]
    1249                      .dwattr $C$DW$104, DW_AT_accessibility(DW_ACCESS_public)
    1250              $C$DW$105       .dwtag  DW_TAG_member
    1251                      .dwattr $C$DW$105, DW_AT_type(*$C$DW$T$19)
    1252                      .dwattr $C$DW$105, DW_AT_name("GPIO15")
    1253                      .dwattr $C$DW$105, DW_AT_TI_symbol_name("_GPIO15")
    1254                      .dwattr $C$DW$105, DW_AT_bit_offset(0x00), DW_AT_bit_size(0x01)
    1255                      .dwattr $C$DW$105, DW_AT_data_member_location[DW_OP_plus_uconst 0x0]
    1256                      .dwattr $C$DW$105, DW_AT_accessibility(DW_ACCESS_public)
    1257              $C$DW$106       .dwtag  DW_TAG_member
    1258                      .dwattr $C$DW$106, DW_AT_type(*$C$DW$T$19)
    1259                      .dwattr $C$DW$106, DW_AT_name("GPIO16")
    1260                      .dwattr $C$DW$106, DW_AT_TI_symbol_name("_GPIO16")
    1261                      .dwattr $C$DW$106, DW_AT_bit_offset(0x0f), DW_AT_bit_size(0x01)
    1262                      .dwattr $C$DW$106, DW_AT_data_member_location[DW_OP_plus_uconst 0x1]
    1263                      .dwattr $C$DW$106, DW_AT_accessibility(DW_ACCESS_public)
    1264              $C$DW$107       .dwtag  DW_TAG_member
    1265                      .dwattr $C$DW$107, DW_AT_type(*$C$DW$T$19)
    1266                      .dwattr $C$DW$107, DW_AT_name("GPIO17")
    1267                      .dwattr $C$DW$107, DW_AT_TI_symbol_name("_GPIO17")
    1268                      .dwattr $C$DW$107, DW_AT_bit_offset(0x0e), DW_AT_bit_size(0x01)
    1269                      .dwattr $C$DW$107, DW_AT_data_member_location[DW_OP_plus_uconst 0x1]
    1270                      .dwattr $C$DW$107, DW_AT_accessibility(DW_ACCESS_public)
    1271              $C$DW$108       .dwtag  DW_TAG_member
    1272                      .dwattr $C$DW$108, DW_AT_type(*$C$DW$T$19)
    1273                      .dwattr $C$DW$108, DW_AT_name("GPIO18")
    1274                      .dwattr $C$DW$108, DW_AT_TI_symbol_name("_GPIO18")
    1275                      .dwattr $C$DW$108, DW_AT_bit_offset(0x0d), DW_AT_bit_size(0x01)
    1276                      .dwattr $C$DW$108, DW_AT_data_member_location[DW_OP_plus_uconst 0x1]
    1277                      .dwattr $C$DW$108, DW_AT_accessibility(DW_ACCESS_public)
    1278              $C$DW$109       .dwtag  DW_TAG_member
    1279                      .dwattr $C$DW$109, DW_AT_type(*$C$DW$T$19)
    1280                      .dwattr $C$DW$109, DW_AT_name("GPIO19")
    1281                      .dwattr $C$DW$109, DW_AT_TI_symbol_name("_GPIO19")
    1282                      .dwattr $C$DW$109, DW_AT_bit_offset(0x0c), DW_AT_bit_size(0x01)
TMS320C2000 Assembler PC v6.2.7 Thu Jul 02 08:31:06 2015

Tools Copyright (c) 1996-2014 Texas Instruments Incorporated
C:\Users\Tester\AppData\Local\Temp\0465610                           PAGE   25

    1283                      .dwattr $C$DW$109, DW_AT_data_member_location[DW_OP_plus_uconst 0x1]
    1284                      .dwattr $C$DW$109, DW_AT_accessibility(DW_ACCESS_public)
    1285              $C$DW$110       .dwtag  DW_TAG_member
    1286                      .dwattr $C$DW$110, DW_AT_type(*$C$DW$T$19)
    1287                      .dwattr $C$DW$110, DW_AT_name("GPIO20")
    1288                      .dwattr $C$DW$110, DW_AT_TI_symbol_name("_GPIO20")
    1289                      .dwattr $C$DW$110, DW_AT_bit_offset(0x0b), DW_AT_bit_size(0x01)
    1290                      .dwattr $C$DW$110, DW_AT_data_member_location[DW_OP_plus_uconst 0x1]
    1291                      .dwattr $C$DW$110, DW_AT_accessibility(DW_ACCESS_public)
    1292              $C$DW$111       .dwtag  DW_TAG_member
    1293                      .dwattr $C$DW$111, DW_AT_type(*$C$DW$T$19)
    1294                      .dwattr $C$DW$111, DW_AT_name("GPIO21")
    1295                      .dwattr $C$DW$111, DW_AT_TI_symbol_name("_GPIO21")
    1296                      .dwattr $C$DW$111, DW_AT_bit_offset(0x0a), DW_AT_bit_size(0x01)
    1297                      .dwattr $C$DW$111, DW_AT_data_member_location[DW_OP_plus_uconst 0x1]
    1298                      .dwattr $C$DW$111, DW_AT_accessibility(DW_ACCESS_public)
    1299              $C$DW$112       .dwtag  DW_TAG_member
    1300                      .dwattr $C$DW$112, DW_AT_type(*$C$DW$T$19)
    1301                      .dwattr $C$DW$112, DW_AT_name("GPIO22")
    1302                      .dwattr $C$DW$112, DW_AT_TI_symbol_name("_GPIO22")
    1303                      .dwattr $C$DW$112, DW_AT_bit_offset(0x09), DW_AT_bit_size(0x01)
    1304                      .dwattr $C$DW$112, DW_AT_data_member_location[DW_OP_plus_uconst 0x1]
    1305                      .dwattr $C$DW$112, DW_AT_accessibility(DW_ACCESS_public)
    1306              $C$DW$113       .dwtag  DW_TAG_member
    1307                      .dwattr $C$DW$113, DW_AT_type(*$C$DW$T$19)
    1308                      .dwattr $C$DW$113, DW_AT_name("GPIO23")
    1309                      .dwattr $C$DW$113, DW_AT_TI_symbol_name("_GPIO23")
    1310                      .dwattr $C$DW$113, DW_AT_bit_offset(0x08), DW_AT_bit_size(0x01)
    1311                      .dwattr $C$DW$113, DW_AT_data_member_location[DW_OP_plus_uconst 0x1]
    1312                      .dwattr $C$DW$113, DW_AT_accessibility(DW_ACCESS_public)
    1313              $C$DW$114       .dwtag  DW_TAG_member
    1314                      .dwattr $C$DW$114, DW_AT_type(*$C$DW$T$19)
    1315                      .dwattr $C$DW$114, DW_AT_name("GPIO24")
    1316                      .dwattr $C$DW$114, DW_AT_TI_symbol_name("_GPIO24")
    1317                      .dwattr $C$DW$114, DW_AT_bit_offset(0x07), DW_AT_bit_size(0x01)
    1318                      .dwattr $C$DW$114, DW_AT_data_member_location[DW_OP_plus_uconst 0x1]
    1319                      .dwattr $C$DW$114, DW_AT_accessibility(DW_ACCESS_public)
    1320              $C$DW$115       .dwtag  DW_TAG_member
    1321                      .dwattr $C$DW$115, DW_AT_type(*$C$DW$T$19)
    1322                      .dwattr $C$DW$115, DW_AT_name("GPIO25")
    1323                      .dwattr $C$DW$115, DW_AT_TI_symbol_name("_GPIO25")
    1324                      .dwattr $C$DW$115, DW_AT_bit_offset(0x06), DW_AT_bit_size(0x01)
    1325                      .dwattr $C$DW$115, DW_AT_data_member_location[DW_OP_plus_uconst 0x1]
    1326                      .dwattr $C$DW$115, DW_AT_accessibility(DW_ACCESS_public)
    1327              $C$DW$116       .dwtag  DW_TAG_member
    1328                      .dwattr $C$DW$116, DW_AT_type(*$C$DW$T$19)
    1329                      .dwattr $C$DW$116, DW_AT_name("GPIO26")
    1330                      .dwattr $C$DW$116, DW_AT_TI_symbol_name("_GPIO26")
    1331                      .dwattr $C$DW$116, DW_AT_bit_offset(0x05), DW_AT_bit_size(0x01)
    1332                      .dwattr $C$DW$116, DW_AT_data_member_location[DW_OP_plus_uconst 0x1]
    1333                      .dwattr $C$DW$116, DW_AT_accessibility(DW_ACCESS_public)
    1334              $C$DW$117       .dwtag  DW_TAG_member
    1335                      .dwattr $C$DW$117, DW_AT_type(*$C$DW$T$19)
    1336                      .dwattr $C$DW$117, DW_AT_name("GPIO27")
    1337                      .dwattr $C$DW$117, DW_AT_TI_symbol_name("_GPIO27")
TMS320C2000 Assembler PC v6.2.7 Thu Jul 02 08:31:06 2015

Tools Copyright (c) 1996-2014 Texas Instruments Incorporated
C:\Users\Tester\AppData\Local\Temp\0465610                           PAGE   26

    1338                      .dwattr $C$DW$117, DW_AT_bit_offset(0x04), DW_AT_bit_size(0x01)
    1339                      .dwattr $C$DW$117, DW_AT_data_member_location[DW_OP_plus_uconst 0x1]
    1340                      .dwattr $C$DW$117, DW_AT_accessibility(DW_ACCESS_public)
    1341              $C$DW$118       .dwtag  DW_TAG_member
    1342                      .dwattr $C$DW$118, DW_AT_type(*$C$DW$T$19)
    1343                      .dwattr $C$DW$118, DW_AT_name("GPIO28")
    1344                      .dwattr $C$DW$118, DW_AT_TI_symbol_name("_GPIO28")
    1345                      .dwattr $C$DW$118, DW_AT_bit_offset(0x03), DW_AT_bit_size(0x01)
    1346                      .dwattr $C$DW$118, DW_AT_data_member_location[DW_OP_plus_uconst 0x1]
    1347                      .dwattr $C$DW$118, DW_AT_accessibility(DW_ACCESS_public)
    1348              $C$DW$119       .dwtag  DW_TAG_member
    1349                      .dwattr $C$DW$119, DW_AT_type(*$C$DW$T$19)
    1350                      .dwattr $C$DW$119, DW_AT_name("GPIO29")
    1351                      .dwattr $C$DW$119, DW_AT_TI_symbol_name("_GPIO29")
    1352                      .dwattr $C$DW$119, DW_AT_bit_offset(0x02), DW_AT_bit_size(0x01)
    1353                      .dwattr $C$DW$119, DW_AT_data_member_location[DW_OP_plus_uconst 0x1]
    1354                      .dwattr $C$DW$119, DW_AT_accessibility(DW_ACCESS_public)
    1355              $C$DW$120       .dwtag  DW_TAG_member
    1356                      .dwattr $C$DW$120, DW_AT_type(*$C$DW$T$19)
    1357                      .dwattr $C$DW$120, DW_AT_name("GPIO30")
    1358                      .dwattr $C$DW$120, DW_AT_TI_symbol_name("_GPIO30")
    1359                      .dwattr $C$DW$120, DW_AT_bit_offset(0x01), DW_AT_bit_size(0x01)
    1360                      .dwattr $C$DW$120, DW_AT_data_member_location[DW_OP_plus_uconst 0x1]
    1361                      .dwattr $C$DW$120, DW_AT_accessibility(DW_ACCESS_public)
    1362              $C$DW$121       .dwtag  DW_TAG_member
    1363                      .dwattr $C$DW$121, DW_AT_type(*$C$DW$T$19)
    1364                      .dwattr $C$DW$121, DW_AT_name("GPIO31")
    1365                      .dwattr $C$DW$121, DW_AT_TI_symbol_name("_GPIO31")
    1366                      .dwattr $C$DW$121, DW_AT_bit_offset(0x00), DW_AT_bit_size(0x01)
    1367                      .dwattr $C$DW$121, DW_AT_data_member_location[DW_OP_plus_uconst 0x1]
    1368                      .dwattr $C$DW$121, DW_AT_accessibility(DW_ACCESS_public)
    1369                      .dwendtag $C$DW$T$27
    1370              
    1371              
    1372              $C$DW$T$28      .dwtag  DW_TAG_union_type
    1373                      .dwattr $C$DW$T$28, DW_AT_name("GPADAT_REG")
    1374                      .dwattr $C$DW$T$28, DW_AT_byte_size(0x02)
    1375              $C$DW$122       .dwtag  DW_TAG_member
    1376                      .dwattr $C$DW$122, DW_AT_type(*$C$DW$T$21)
    1377                      .dwattr $C$DW$122, DW_AT_name("all")
    1378                      .dwattr $C$DW$122, DW_AT_TI_symbol_name("_all")
    1379                      .dwattr $C$DW$122, DW_AT_data_member_location[DW_OP_plus_uconst 0x0]
    1380                      .dwattr $C$DW$122, DW_AT_accessibility(DW_ACCESS_public)
    1381              $C$DW$123       .dwtag  DW_TAG_member
    1382                      .dwattr $C$DW$123, DW_AT_type(*$C$DW$T$27)
    1383                      .dwattr $C$DW$123, DW_AT_name("bit")
    1384                      .dwattr $C$DW$123, DW_AT_TI_symbol_name("_bit")
    1385                      .dwattr $C$DW$123, DW_AT_data_member_location[DW_OP_plus_uconst 0x0]
    1386                      .dwattr $C$DW$123, DW_AT_accessibility(DW_ACCESS_public)
    1387                      .dwendtag $C$DW$T$28
    1388              
    1389              
    1390              $C$DW$T$29      .dwtag  DW_TAG_structure_type
    1391                      .dwattr $C$DW$T$29, DW_AT_name("GPB1_BITS")
    1392                      .dwattr $C$DW$T$29, DW_AT_byte_size(0x02)
TMS320C2000 Assembler PC v6.2.7 Thu Jul 02 08:31:06 2015

Tools Copyright (c) 1996-2014 Texas Instruments Incorporated
C:\Users\Tester\AppData\Local\Temp\0465610                           PAGE   27

    1393              $C$DW$124       .dwtag  DW_TAG_member
    1394                      .dwattr $C$DW$124, DW_AT_type(*$C$DW$T$19)
    1395                      .dwattr $C$DW$124, DW_AT_name("GPIO32")
    1396                      .dwattr $C$DW$124, DW_AT_TI_symbol_name("_GPIO32")
    1397                      .dwattr $C$DW$124, DW_AT_bit_offset(0x0e), DW_AT_bit_size(0x02)
    1398                      .dwattr $C$DW$124, DW_AT_data_member_location[DW_OP_plus_uconst 0x0]
    1399                      .dwattr $C$DW$124, DW_AT_accessibility(DW_ACCESS_public)
    1400              $C$DW$125       .dwtag  DW_TAG_member
    1401                      .dwattr $C$DW$125, DW_AT_type(*$C$DW$T$19)
    1402                      .dwattr $C$DW$125, DW_AT_name("GPIO33")
    1403                      .dwattr $C$DW$125, DW_AT_TI_symbol_name("_GPIO33")
    1404                      .dwattr $C$DW$125, DW_AT_bit_offset(0x0c), DW_AT_bit_size(0x02)
    1405                      .dwattr $C$DW$125, DW_AT_data_member_location[DW_OP_plus_uconst 0x0]
    1406                      .dwattr $C$DW$125, DW_AT_accessibility(DW_ACCESS_public)
    1407              $C$DW$126       .dwtag  DW_TAG_member
    1408                      .dwattr $C$DW$126, DW_AT_type(*$C$DW$T$19)
    1409                      .dwattr $C$DW$126, DW_AT_name("GPIO34")
    1410                      .dwattr $C$DW$126, DW_AT_TI_symbol_name("_GPIO34")
    1411                      .dwattr $C$DW$126, DW_AT_bit_offset(0x0a), DW_AT_bit_size(0x02)
    1412                      .dwattr $C$DW$126, DW_AT_data_member_location[DW_OP_plus_uconst 0x0]
    1413                      .dwattr $C$DW$126, DW_AT_accessibility(DW_ACCESS_public)
    1414              $C$DW$127       .dwtag  DW_TAG_member
    1415                      .dwattr $C$DW$127, DW_AT_type(*$C$DW$T$19)
    1416                      .dwattr $C$DW$127, DW_AT_name("GPIO35")
    1417                      .dwattr $C$DW$127, DW_AT_TI_symbol_name("_GPIO35")
    1418                      .dwattr $C$DW$127, DW_AT_bit_offset(0x08), DW_AT_bit_size(0x02)
    1419                      .dwattr $C$DW$127, DW_AT_data_member_location[DW_OP_plus_uconst 0x0]
    1420                      .dwattr $C$DW$127, DW_AT_accessibility(DW_ACCESS_public)
    1421              $C$DW$128       .dwtag  DW_TAG_member
    1422                      .dwattr $C$DW$128, DW_AT_type(*$C$DW$T$19)
    1423                      .dwattr $C$DW$128, DW_AT_name("GPIO36")
    1424                      .dwattr $C$DW$128, DW_AT_TI_symbol_name("_GPIO36")
    1425                      .dwattr $C$DW$128, DW_AT_bit_offset(0x06), DW_AT_bit_size(0x02)
    1426                      .dwattr $C$DW$128, DW_AT_data_member_location[DW_OP_plus_uconst 0x0]
    1427                      .dwattr $C$DW$128, DW_AT_accessibility(DW_ACCESS_public)
    1428              $C$DW$129       .dwtag  DW_TAG_member
    1429                      .dwattr $C$DW$129, DW_AT_type(*$C$DW$T$19)
    1430                      .dwattr $C$DW$129, DW_AT_name("GPIO37")
    1431                      .dwattr $C$DW$129, DW_AT_TI_symbol_name("_GPIO37")
    1432                      .dwattr $C$DW$129, DW_AT_bit_offset(0x04), DW_AT_bit_size(0x02)
    1433                      .dwattr $C$DW$129, DW_AT_data_member_location[DW_OP_plus_uconst 0x0]
    1434                      .dwattr $C$DW$129, DW_AT_accessibility(DW_ACCESS_public)
    1435              $C$DW$130       .dwtag  DW_TAG_member
    1436                      .dwattr $C$DW$130, DW_AT_type(*$C$DW$T$19)
    1437                      .dwattr $C$DW$130, DW_AT_name("GPIO38")
    1438                      .dwattr $C$DW$130, DW_AT_TI_symbol_name("_GPIO38")
    1439                      .dwattr $C$DW$130, DW_AT_bit_offset(0x02), DW_AT_bit_size(0x02)
    1440                      .dwattr $C$DW$130, DW_AT_data_member_location[DW_OP_plus_uconst 0x0]
    1441                      .dwattr $C$DW$130, DW_AT_accessibility(DW_ACCESS_public)
    1442              $C$DW$131       .dwtag  DW_TAG_member
    1443                      .dwattr $C$DW$131, DW_AT_type(*$C$DW$T$19)
    1444                      .dwattr $C$DW$131, DW_AT_name("GPIO39")
    1445                      .dwattr $C$DW$131, DW_AT_TI_symbol_name("_GPIO39")
    1446                      .dwattr $C$DW$131, DW_AT_bit_offset(0x00), DW_AT_bit_size(0x02)
    1447                      .dwattr $C$DW$131, DW_AT_data_member_location[DW_OP_plus_uconst 0x0]
TMS320C2000 Assembler PC v6.2.7 Thu Jul 02 08:31:06 2015

Tools Copyright (c) 1996-2014 Texas Instruments Incorporated
C:\Users\Tester\AppData\Local\Temp\0465610                           PAGE   28

    1448                      .dwattr $C$DW$131, DW_AT_accessibility(DW_ACCESS_public)
    1449              $C$DW$132       .dwtag  DW_TAG_member
    1450                      .dwattr $C$DW$132, DW_AT_type(*$C$DW$T$19)
    1451                      .dwattr $C$DW$132, DW_AT_name("GPIO40")
    1452                      .dwattr $C$DW$132, DW_AT_TI_symbol_name("_GPIO40")
    1453                      .dwattr $C$DW$132, DW_AT_bit_offset(0x0e), DW_AT_bit_size(0x02)
    1454                      .dwattr $C$DW$132, DW_AT_data_member_location[DW_OP_plus_uconst 0x1]
    1455                      .dwattr $C$DW$132, DW_AT_accessibility(DW_ACCESS_public)
    1456              $C$DW$133       .dwtag  DW_TAG_member
    1457                      .dwattr $C$DW$133, DW_AT_type(*$C$DW$T$19)
    1458                      .dwattr $C$DW$133, DW_AT_name("GPIO41")
    1459                      .dwattr $C$DW$133, DW_AT_TI_symbol_name("_GPIO41")
    1460                      .dwattr $C$DW$133, DW_AT_bit_offset(0x0c), DW_AT_bit_size(0x02)
    1461                      .dwattr $C$DW$133, DW_AT_data_member_location[DW_OP_plus_uconst 0x1]
    1462                      .dwattr $C$DW$133, DW_AT_accessibility(DW_ACCESS_public)
    1463              $C$DW$134       .dwtag  DW_TAG_member
    1464                      .dwattr $C$DW$134, DW_AT_type(*$C$DW$T$19)
    1465                      .dwattr $C$DW$134, DW_AT_name("GPIO42")
    1466                      .dwattr $C$DW$134, DW_AT_TI_symbol_name("_GPIO42")
    1467                      .dwattr $C$DW$134, DW_AT_bit_offset(0x0a), DW_AT_bit_size(0x02)
    1468                      .dwattr $C$DW$134, DW_AT_data_member_location[DW_OP_plus_uconst 0x1]
    1469                      .dwattr $C$DW$134, DW_AT_accessibility(DW_ACCESS_public)
    1470              $C$DW$135       .dwtag  DW_TAG_member
    1471                      .dwattr $C$DW$135, DW_AT_type(*$C$DW$T$19)
    1472                      .dwattr $C$DW$135, DW_AT_name("GPIO43")
    1473                      .dwattr $C$DW$135, DW_AT_TI_symbol_name("_GPIO43")
    1474                      .dwattr $C$DW$135, DW_AT_bit_offset(0x08), DW_AT_bit_size(0x02)
    1475                      .dwattr $C$DW$135, DW_AT_data_member_location[DW_OP_plus_uconst 0x1]
    1476                      .dwattr $C$DW$135, DW_AT_accessibility(DW_ACCESS_public)
    1477              $C$DW$136       .dwtag  DW_TAG_member
    1478                      .dwattr $C$DW$136, DW_AT_type(*$C$DW$T$19)
    1479                      .dwattr $C$DW$136, DW_AT_name("GPIO44")
    1480                      .dwattr $C$DW$136, DW_AT_TI_symbol_name("_GPIO44")
    1481                      .dwattr $C$DW$136, DW_AT_bit_offset(0x06), DW_AT_bit_size(0x02)
    1482                      .dwattr $C$DW$136, DW_AT_data_member_location[DW_OP_plus_uconst 0x1]
    1483                      .dwattr $C$DW$136, DW_AT_accessibility(DW_ACCESS_public)
    1484              $C$DW$137       .dwtag  DW_TAG_member
    1485                      .dwattr $C$DW$137, DW_AT_type(*$C$DW$T$19)
    1486                      .dwattr $C$DW$137, DW_AT_name("GPIO45")
    1487                      .dwattr $C$DW$137, DW_AT_TI_symbol_name("_GPIO45")
    1488                      .dwattr $C$DW$137, DW_AT_bit_offset(0x04), DW_AT_bit_size(0x02)
    1489                      .dwattr $C$DW$137, DW_AT_data_member_location[DW_OP_plus_uconst 0x1]
    1490                      .dwattr $C$DW$137, DW_AT_accessibility(DW_ACCESS_public)
    1491              $C$DW$138       .dwtag  DW_TAG_member
    1492                      .dwattr $C$DW$138, DW_AT_type(*$C$DW$T$19)
    1493                      .dwattr $C$DW$138, DW_AT_name("GPIO46")
    1494                      .dwattr $C$DW$138, DW_AT_TI_symbol_name("_GPIO46")
    1495                      .dwattr $C$DW$138, DW_AT_bit_offset(0x02), DW_AT_bit_size(0x02)
    1496                      .dwattr $C$DW$138, DW_AT_data_member_location[DW_OP_plus_uconst 0x1]
    1497                      .dwattr $C$DW$138, DW_AT_accessibility(DW_ACCESS_public)
    1498              $C$DW$139       .dwtag  DW_TAG_member
    1499                      .dwattr $C$DW$139, DW_AT_type(*$C$DW$T$19)
    1500                      .dwattr $C$DW$139, DW_AT_name("GPIO47")
    1501                      .dwattr $C$DW$139, DW_AT_TI_symbol_name("_GPIO47")
    1502                      .dwattr $C$DW$139, DW_AT_bit_offset(0x00), DW_AT_bit_size(0x02)
TMS320C2000 Assembler PC v6.2.7 Thu Jul 02 08:31:06 2015

Tools Copyright (c) 1996-2014 Texas Instruments Incorporated
C:\Users\Tester\AppData\Local\Temp\0465610                           PAGE   29

    1503                      .dwattr $C$DW$139, DW_AT_data_member_location[DW_OP_plus_uconst 0x1]
    1504                      .dwattr $C$DW$139, DW_AT_accessibility(DW_ACCESS_public)
    1505                      .dwendtag $C$DW$T$29
    1506              
    1507              
    1508              $C$DW$T$30      .dwtag  DW_TAG_union_type
    1509                      .dwattr $C$DW$T$30, DW_AT_name("GPB1_REG")
    1510                      .dwattr $C$DW$T$30, DW_AT_byte_size(0x02)
    1511              $C$DW$140       .dwtag  DW_TAG_member
    1512                      .dwattr $C$DW$140, DW_AT_type(*$C$DW$T$21)
    1513                      .dwattr $C$DW$140, DW_AT_name("all")
    1514                      .dwattr $C$DW$140, DW_AT_TI_symbol_name("_all")
    1515                      .dwattr $C$DW$140, DW_AT_data_member_location[DW_OP_plus_uconst 0x0]
    1516                      .dwattr $C$DW$140, DW_AT_accessibility(DW_ACCESS_public)
    1517              $C$DW$141       .dwtag  DW_TAG_member
    1518                      .dwattr $C$DW$141, DW_AT_type(*$C$DW$T$29)
    1519                      .dwattr $C$DW$141, DW_AT_name("bit")
    1520                      .dwattr $C$DW$141, DW_AT_TI_symbol_name("_bit")
    1521                      .dwattr $C$DW$141, DW_AT_data_member_location[DW_OP_plus_uconst 0x0]
    1522                      .dwattr $C$DW$141, DW_AT_accessibility(DW_ACCESS_public)
    1523                      .dwendtag $C$DW$T$30
    1524              
    1525              
    1526              $C$DW$T$31      .dwtag  DW_TAG_structure_type
    1527                      .dwattr $C$DW$T$31, DW_AT_name("GPB2_BITS")
    1528                      .dwattr $C$DW$T$31, DW_AT_byte_size(0x02)
    1529              $C$DW$142       .dwtag  DW_TAG_member
    1530                      .dwattr $C$DW$142, DW_AT_type(*$C$DW$T$19)
    1531                      .dwattr $C$DW$142, DW_AT_name("GPIO48")
    1532                      .dwattr $C$DW$142, DW_AT_TI_symbol_name("_GPIO48")
    1533                      .dwattr $C$DW$142, DW_AT_bit_offset(0x0e), DW_AT_bit_size(0x02)
    1534                      .dwattr $C$DW$142, DW_AT_data_member_location[DW_OP_plus_uconst 0x0]
    1535                      .dwattr $C$DW$142, DW_AT_accessibility(DW_ACCESS_public)
    1536              $C$DW$143       .dwtag  DW_TAG_member
    1537                      .dwattr $C$DW$143, DW_AT_type(*$C$DW$T$19)
    1538                      .dwattr $C$DW$143, DW_AT_name("GPIO49")
    1539                      .dwattr $C$DW$143, DW_AT_TI_symbol_name("_GPIO49")
    1540                      .dwattr $C$DW$143, DW_AT_bit_offset(0x0c), DW_AT_bit_size(0x02)
    1541                      .dwattr $C$DW$143, DW_AT_data_member_location[DW_OP_plus_uconst 0x0]
    1542                      .dwattr $C$DW$143, DW_AT_accessibility(DW_ACCESS_public)
    1543              $C$DW$144       .dwtag  DW_TAG_member
    1544                      .dwattr $C$DW$144, DW_AT_type(*$C$DW$T$19)
    1545                      .dwattr $C$DW$144, DW_AT_name("GPIO50")
    1546                      .dwattr $C$DW$144, DW_AT_TI_symbol_name("_GPIO50")
    1547                      .dwattr $C$DW$144, DW_AT_bit_offset(0x0a), DW_AT_bit_size(0x02)
    1548                      .dwattr $C$DW$144, DW_AT_data_member_location[DW_OP_plus_uconst 0x0]
    1549                      .dwattr $C$DW$144, DW_AT_accessibility(DW_ACCESS_public)
    1550              $C$DW$145       .dwtag  DW_TAG_member
    1551                      .dwattr $C$DW$145, DW_AT_type(*$C$DW$T$19)
    1552                      .dwattr $C$DW$145, DW_AT_name("GPIO51")
    1553                      .dwattr $C$DW$145, DW_AT_TI_symbol_name("_GPIO51")
    1554                      .dwattr $C$DW$145, DW_AT_bit_offset(0x08), DW_AT_bit_size(0x02)
    1555                      .dwattr $C$DW$145, DW_AT_data_member_location[DW_OP_plus_uconst 0x0]
    1556                      .dwattr $C$DW$145, DW_AT_accessibility(DW_ACCESS_public)
    1557              $C$DW$146       .dwtag  DW_TAG_member
TMS320C2000 Assembler PC v6.2.7 Thu Jul 02 08:31:06 2015

Tools Copyright (c) 1996-2014 Texas Instruments Incorporated
C:\Users\Tester\AppData\Local\Temp\0465610                           PAGE   30

    1558                      .dwattr $C$DW$146, DW_AT_type(*$C$DW$T$19)
    1559                      .dwattr $C$DW$146, DW_AT_name("GPIO52")
    1560                      .dwattr $C$DW$146, DW_AT_TI_symbol_name("_GPIO52")
    1561                      .dwattr $C$DW$146, DW_AT_bit_offset(0x06), DW_AT_bit_size(0x02)
    1562                      .dwattr $C$DW$146, DW_AT_data_member_location[DW_OP_plus_uconst 0x0]
    1563                      .dwattr $C$DW$146, DW_AT_accessibility(DW_ACCESS_public)
    1564              $C$DW$147       .dwtag  DW_TAG_member
    1565                      .dwattr $C$DW$147, DW_AT_type(*$C$DW$T$19)
    1566                      .dwattr $C$DW$147, DW_AT_name("GPIO53")
    1567                      .dwattr $C$DW$147, DW_AT_TI_symbol_name("_GPIO53")
    1568                      .dwattr $C$DW$147, DW_AT_bit_offset(0x04), DW_AT_bit_size(0x02)
    1569                      .dwattr $C$DW$147, DW_AT_data_member_location[DW_OP_plus_uconst 0x0]
    1570                      .dwattr $C$DW$147, DW_AT_accessibility(DW_ACCESS_public)
    1571              $C$DW$148       .dwtag  DW_TAG_member
    1572                      .dwattr $C$DW$148, DW_AT_type(*$C$DW$T$19)
    1573                      .dwattr $C$DW$148, DW_AT_name("GPIO54")
    1574                      .dwattr $C$DW$148, DW_AT_TI_symbol_name("_GPIO54")
    1575                      .dwattr $C$DW$148, DW_AT_bit_offset(0x02), DW_AT_bit_size(0x02)
    1576                      .dwattr $C$DW$148, DW_AT_data_member_location[DW_OP_plus_uconst 0x0]
    1577                      .dwattr $C$DW$148, DW_AT_accessibility(DW_ACCESS_public)
    1578              $C$DW$149       .dwtag  DW_TAG_member
    1579                      .dwattr $C$DW$149, DW_AT_type(*$C$DW$T$19)
    1580                      .dwattr $C$DW$149, DW_AT_name("GPIO55")
    1581                      .dwattr $C$DW$149, DW_AT_TI_symbol_name("_GPIO55")
    1582                      .dwattr $C$DW$149, DW_AT_bit_offset(0x00), DW_AT_bit_size(0x02)
    1583                      .dwattr $C$DW$149, DW_AT_data_member_location[DW_OP_plus_uconst 0x0]
    1584                      .dwattr $C$DW$149, DW_AT_accessibility(DW_ACCESS_public)
    1585              $C$DW$150       .dwtag  DW_TAG_member
    1586                      .dwattr $C$DW$150, DW_AT_type(*$C$DW$T$19)
    1587                      .dwattr $C$DW$150, DW_AT_name("GPIO56")
    1588                      .dwattr $C$DW$150, DW_AT_TI_symbol_name("_GPIO56")
    1589                      .dwattr $C$DW$150, DW_AT_bit_offset(0x0e), DW_AT_bit_size(0x02)
    1590                      .dwattr $C$DW$150, DW_AT_data_member_location[DW_OP_plus_uconst 0x1]
    1591                      .dwattr $C$DW$150, DW_AT_accessibility(DW_ACCESS_public)
    1592              $C$DW$151       .dwtag  DW_TAG_member
    1593                      .dwattr $C$DW$151, DW_AT_type(*$C$DW$T$19)
    1594                      .dwattr $C$DW$151, DW_AT_name("GPIO57")
    1595                      .dwattr $C$DW$151, DW_AT_TI_symbol_name("_GPIO57")
    1596                      .dwattr $C$DW$151, DW_AT_bit_offset(0x0c), DW_AT_bit_size(0x02)
    1597                      .dwattr $C$DW$151, DW_AT_data_member_location[DW_OP_plus_uconst 0x1]
    1598                      .dwattr $C$DW$151, DW_AT_accessibility(DW_ACCESS_public)
    1599              $C$DW$152       .dwtag  DW_TAG_member
    1600                      .dwattr $C$DW$152, DW_AT_type(*$C$DW$T$19)
    1601                      .dwattr $C$DW$152, DW_AT_name("GPIO58")
    1602                      .dwattr $C$DW$152, DW_AT_TI_symbol_name("_GPIO58")
    1603                      .dwattr $C$DW$152, DW_AT_bit_offset(0x0a), DW_AT_bit_size(0x02)
    1604                      .dwattr $C$DW$152, DW_AT_data_member_location[DW_OP_plus_uconst 0x1]
    1605                      .dwattr $C$DW$152, DW_AT_accessibility(DW_ACCESS_public)
    1606              $C$DW$153       .dwtag  DW_TAG_member
    1607                      .dwattr $C$DW$153, DW_AT_type(*$C$DW$T$19)
    1608                      .dwattr $C$DW$153, DW_AT_name("GPIO59")
    1609                      .dwattr $C$DW$153, DW_AT_TI_symbol_name("_GPIO59")
    1610                      .dwattr $C$DW$153, DW_AT_bit_offset(0x08), DW_AT_bit_size(0x02)
    1611                      .dwattr $C$DW$153, DW_AT_data_member_location[DW_OP_plus_uconst 0x1]
    1612                      .dwattr $C$DW$153, DW_AT_accessibility(DW_ACCESS_public)
TMS320C2000 Assembler PC v6.2.7 Thu Jul 02 08:31:06 2015

Tools Copyright (c) 1996-2014 Texas Instruments Incorporated
C:\Users\Tester\AppData\Local\Temp\0465610                           PAGE   31

    1613              $C$DW$154       .dwtag  DW_TAG_member
    1614                      .dwattr $C$DW$154, DW_AT_type(*$C$DW$T$19)
    1615                      .dwattr $C$DW$154, DW_AT_name("GPIO60")
    1616                      .dwattr $C$DW$154, DW_AT_TI_symbol_name("_GPIO60")
    1617                      .dwattr $C$DW$154, DW_AT_bit_offset(0x06), DW_AT_bit_size(0x02)
    1618                      .dwattr $C$DW$154, DW_AT_data_member_location[DW_OP_plus_uconst 0x1]
    1619                      .dwattr $C$DW$154, DW_AT_accessibility(DW_ACCESS_public)
    1620              $C$DW$155       .dwtag  DW_TAG_member
    1621                      .dwattr $C$DW$155, DW_AT_type(*$C$DW$T$19)
    1622                      .dwattr $C$DW$155, DW_AT_name("GPIO61")
    1623                      .dwattr $C$DW$155, DW_AT_TI_symbol_name("_GPIO61")
    1624                      .dwattr $C$DW$155, DW_AT_bit_offset(0x04), DW_AT_bit_size(0x02)
    1625                      .dwattr $C$DW$155, DW_AT_data_member_location[DW_OP_plus_uconst 0x1]
    1626                      .dwattr $C$DW$155, DW_AT_accessibility(DW_ACCESS_public)
    1627              $C$DW$156       .dwtag  DW_TAG_member
    1628                      .dwattr $C$DW$156, DW_AT_type(*$C$DW$T$19)
    1629                      .dwattr $C$DW$156, DW_AT_name("GPIO62")
    1630                      .dwattr $C$DW$156, DW_AT_TI_symbol_name("_GPIO62")
    1631                      .dwattr $C$DW$156, DW_AT_bit_offset(0x02), DW_AT_bit_size(0x02)
    1632                      .dwattr $C$DW$156, DW_AT_data_member_location[DW_OP_plus_uconst 0x1]
    1633                      .dwattr $C$DW$156, DW_AT_accessibility(DW_ACCESS_public)
    1634              $C$DW$157       .dwtag  DW_TAG_member
    1635                      .dwattr $C$DW$157, DW_AT_type(*$C$DW$T$19)
    1636                      .dwattr $C$DW$157, DW_AT_name("GPIO63")
    1637                      .dwattr $C$DW$157, DW_AT_TI_symbol_name("_GPIO63")
    1638                      .dwattr $C$DW$157, DW_AT_bit_offset(0x00), DW_AT_bit_size(0x02)
    1639                      .dwattr $C$DW$157, DW_AT_data_member_location[DW_OP_plus_uconst 0x1]
    1640                      .dwattr $C$DW$157, DW_AT_accessibility(DW_ACCESS_public)
    1641                      .dwendtag $C$DW$T$31
    1642              
    1643              
    1644              $C$DW$T$32      .dwtag  DW_TAG_union_type
    1645                      .dwattr $C$DW$T$32, DW_AT_name("GPB2_REG")
    1646                      .dwattr $C$DW$T$32, DW_AT_byte_size(0x02)
    1647              $C$DW$158       .dwtag  DW_TAG_member
    1648                      .dwattr $C$DW$158, DW_AT_type(*$C$DW$T$21)
    1649                      .dwattr $C$DW$158, DW_AT_name("all")
    1650                      .dwattr $C$DW$158, DW_AT_TI_symbol_name("_all")
    1651                      .dwattr $C$DW$158, DW_AT_data_member_location[DW_OP_plus_uconst 0x0]
    1652                      .dwattr $C$DW$158, DW_AT_accessibility(DW_ACCESS_public)
    1653              $C$DW$159       .dwtag  DW_TAG_member
    1654                      .dwattr $C$DW$159, DW_AT_type(*$C$DW$T$31)
    1655                      .dwattr $C$DW$159, DW_AT_name("bit")
    1656                      .dwattr $C$DW$159, DW_AT_TI_symbol_name("_bit")
    1657                      .dwattr $C$DW$159, DW_AT_data_member_location[DW_OP_plus_uconst 0x0]
    1658                      .dwattr $C$DW$159, DW_AT_accessibility(DW_ACCESS_public)
    1659                      .dwendtag $C$DW$T$32
    1660              
    1661              
    1662              $C$DW$T$33      .dwtag  DW_TAG_structure_type
    1663                      .dwattr $C$DW$T$33, DW_AT_name("GPBCTRL_BITS")
    1664                      .dwattr $C$DW$T$33, DW_AT_byte_size(0x02)
    1665              $C$DW$160       .dwtag  DW_TAG_member
    1666                      .dwattr $C$DW$160, DW_AT_type(*$C$DW$T$19)
    1667                      .dwattr $C$DW$160, DW_AT_name("QUALPRD0")
TMS320C2000 Assembler PC v6.2.7 Thu Jul 02 08:31:06 2015

Tools Copyright (c) 1996-2014 Texas Instruments Incorporated
C:\Users\Tester\AppData\Local\Temp\0465610                           PAGE   32

    1668                      .dwattr $C$DW$160, DW_AT_TI_symbol_name("_QUALPRD0")
    1669                      .dwattr $C$DW$160, DW_AT_bit_offset(0x08), DW_AT_bit_size(0x08)
    1670                      .dwattr $C$DW$160, DW_AT_data_member_location[DW_OP_plus_uconst 0x0]
    1671                      .dwattr $C$DW$160, DW_AT_accessibility(DW_ACCESS_public)
    1672              $C$DW$161       .dwtag  DW_TAG_member
    1673                      .dwattr $C$DW$161, DW_AT_type(*$C$DW$T$19)
    1674                      .dwattr $C$DW$161, DW_AT_name("QUALPRD1")
    1675                      .dwattr $C$DW$161, DW_AT_TI_symbol_name("_QUALPRD1")
    1676                      .dwattr $C$DW$161, DW_AT_bit_offset(0x00), DW_AT_bit_size(0x08)
    1677                      .dwattr $C$DW$161, DW_AT_data_member_location[DW_OP_plus_uconst 0x0]
    1678                      .dwattr $C$DW$161, DW_AT_accessibility(DW_ACCESS_public)
    1679              $C$DW$162       .dwtag  DW_TAG_member
    1680                      .dwattr $C$DW$162, DW_AT_type(*$C$DW$T$19)
    1681                      .dwattr $C$DW$162, DW_AT_name("QUALPRD2")
    1682                      .dwattr $C$DW$162, DW_AT_TI_symbol_name("_QUALPRD2")
    1683                      .dwattr $C$DW$162, DW_AT_bit_offset(0x08), DW_AT_bit_size(0x08)
    1684                      .dwattr $C$DW$162, DW_AT_data_member_location[DW_OP_plus_uconst 0x1]
    1685                      .dwattr $C$DW$162, DW_AT_accessibility(DW_ACCESS_public)
    1686              $C$DW$163       .dwtag  DW_TAG_member
    1687                      .dwattr $C$DW$163, DW_AT_type(*$C$DW$T$19)
    1688                      .dwattr $C$DW$163, DW_AT_name("QUALPRD3")
    1689                      .dwattr $C$DW$163, DW_AT_TI_symbol_name("_QUALPRD3")
    1690                      .dwattr $C$DW$163, DW_AT_bit_offset(0x00), DW_AT_bit_size(0x08)
    1691                      .dwattr $C$DW$163, DW_AT_data_member_location[DW_OP_plus_uconst 0x1]
    1692                      .dwattr $C$DW$163, DW_AT_accessibility(DW_ACCESS_public)
    1693                      .dwendtag $C$DW$T$33
    1694              
    1695              
    1696              $C$DW$T$34      .dwtag  DW_TAG_union_type
    1697                      .dwattr $C$DW$T$34, DW_AT_name("GPBCTRL_REG")
    1698                      .dwattr $C$DW$T$34, DW_AT_byte_size(0x02)
    1699              $C$DW$164       .dwtag  DW_TAG_member
    1700                      .dwattr $C$DW$164, DW_AT_type(*$C$DW$T$21)
    1701                      .dwattr $C$DW$164, DW_AT_name("all")
    1702                      .dwattr $C$DW$164, DW_AT_TI_symbol_name("_all")
    1703                      .dwattr $C$DW$164, DW_AT_data_member_location[DW_OP_plus_uconst 0x0]
    1704                      .dwattr $C$DW$164, DW_AT_accessibility(DW_ACCESS_public)
    1705              $C$DW$165       .dwtag  DW_TAG_member
    1706                      .dwattr $C$DW$165, DW_AT_type(*$C$DW$T$33)
    1707                      .dwattr $C$DW$165, DW_AT_name("bit")
    1708                      .dwattr $C$DW$165, DW_AT_TI_symbol_name("_bit")
    1709                      .dwattr $C$DW$165, DW_AT_data_member_location[DW_OP_plus_uconst 0x0]
    1710                      .dwattr $C$DW$165, DW_AT_accessibility(DW_ACCESS_public)
    1711                      .dwendtag $C$DW$T$34
    1712              
    1713              
    1714              $C$DW$T$35      .dwtag  DW_TAG_structure_type
    1715                      .dwattr $C$DW$T$35, DW_AT_name("GPBDAT_BITS")
    1716                      .dwattr $C$DW$T$35, DW_AT_byte_size(0x02)
    1717              $C$DW$166       .dwtag  DW_TAG_member
    1718                      .dwattr $C$DW$166, DW_AT_type(*$C$DW$T$19)
    1719                      .dwattr $C$DW$166, DW_AT_name("GPIO32")
    1720                      .dwattr $C$DW$166, DW_AT_TI_symbol_name("_GPIO32")
    1721                      .dwattr $C$DW$166, DW_AT_bit_offset(0x0f), DW_AT_bit_size(0x01)
    1722                      .dwattr $C$DW$166, DW_AT_data_member_location[DW_OP_plus_uconst 0x0]
TMS320C2000 Assembler PC v6.2.7 Thu Jul 02 08:31:06 2015

Tools Copyright (c) 1996-2014 Texas Instruments Incorporated
C:\Users\Tester\AppData\Local\Temp\0465610                           PAGE   33

    1723                      .dwattr $C$DW$166, DW_AT_accessibility(DW_ACCESS_public)
    1724              $C$DW$167       .dwtag  DW_TAG_member
    1725                      .dwattr $C$DW$167, DW_AT_type(*$C$DW$T$19)
    1726                      .dwattr $C$DW$167, DW_AT_name("GPIO33")
    1727                      .dwattr $C$DW$167, DW_AT_TI_symbol_name("_GPIO33")
    1728                      .dwattr $C$DW$167, DW_AT_bit_offset(0x0e), DW_AT_bit_size(0x01)
    1729                      .dwattr $C$DW$167, DW_AT_data_member_location[DW_OP_plus_uconst 0x0]
    1730                      .dwattr $C$DW$167, DW_AT_accessibility(DW_ACCESS_public)
    1731              $C$DW$168       .dwtag  DW_TAG_member
    1732                      .dwattr $C$DW$168, DW_AT_type(*$C$DW$T$19)
    1733                      .dwattr $C$DW$168, DW_AT_name("GPIO34")
    1734                      .dwattr $C$DW$168, DW_AT_TI_symbol_name("_GPIO34")
    1735                      .dwattr $C$DW$168, DW_AT_bit_offset(0x0d), DW_AT_bit_size(0x01)
    1736                      .dwattr $C$DW$168, DW_AT_data_member_location[DW_OP_plus_uconst 0x0]
    1737                      .dwattr $C$DW$168, DW_AT_accessibility(DW_ACCESS_public)
    1738              $C$DW$169       .dwtag  DW_TAG_member
    1739                      .dwattr $C$DW$169, DW_AT_type(*$C$DW$T$19)
    1740                      .dwattr $C$DW$169, DW_AT_name("GPIO35")
    1741                      .dwattr $C$DW$169, DW_AT_TI_symbol_name("_GPIO35")
    1742                      .dwattr $C$DW$169, DW_AT_bit_offset(0x0c), DW_AT_bit_size(0x01)
    1743                      .dwattr $C$DW$169, DW_AT_data_member_location[DW_OP_plus_uconst 0x0]
    1744                      .dwattr $C$DW$169, DW_AT_accessibility(DW_ACCESS_public)
    1745              $C$DW$170       .dwtag  DW_TAG_member
    1746                      .dwattr $C$DW$170, DW_AT_type(*$C$DW$T$19)
    1747                      .dwattr $C$DW$170, DW_AT_name("GPIO36")
    1748                      .dwattr $C$DW$170, DW_AT_TI_symbol_name("_GPIO36")
    1749                      .dwattr $C$DW$170, DW_AT_bit_offset(0x0b), DW_AT_bit_size(0x01)
    1750                      .dwattr $C$DW$170, DW_AT_data_member_location[DW_OP_plus_uconst 0x0]
    1751                      .dwattr $C$DW$170, DW_AT_accessibility(DW_ACCESS_public)
    1752              $C$DW$171       .dwtag  DW_TAG_member
    1753                      .dwattr $C$DW$171, DW_AT_type(*$C$DW$T$19)
    1754                      .dwattr $C$DW$171, DW_AT_name("GPIO37")
    1755                      .dwattr $C$DW$171, DW_AT_TI_symbol_name("_GPIO37")
    1756                      .dwattr $C$DW$171, DW_AT_bit_offset(0x0a), DW_AT_bit_size(0x01)
    1757                      .dwattr $C$DW$171, DW_AT_data_member_location[DW_OP_plus_uconst 0x0]
    1758                      .dwattr $C$DW$171, DW_AT_accessibility(DW_ACCESS_public)
    1759              $C$DW$172       .dwtag  DW_TAG_member
    1760                      .dwattr $C$DW$172, DW_AT_type(*$C$DW$T$19)
    1761                      .dwattr $C$DW$172, DW_AT_name("GPIO38")
    1762                      .dwattr $C$DW$172, DW_AT_TI_symbol_name("_GPIO38")
    1763                      .dwattr $C$DW$172, DW_AT_bit_offset(0x09), DW_AT_bit_size(0x01)
    1764                      .dwattr $C$DW$172, DW_AT_data_member_location[DW_OP_plus_uconst 0x0]
    1765                      .dwattr $C$DW$172, DW_AT_accessibility(DW_ACCESS_public)
    1766              $C$DW$173       .dwtag  DW_TAG_member
    1767                      .dwattr $C$DW$173, DW_AT_type(*$C$DW$T$19)
    1768                      .dwattr $C$DW$173, DW_AT_name("GPIO39")
    1769                      .dwattr $C$DW$173, DW_AT_TI_symbol_name("_GPIO39")
    1770                      .dwattr $C$DW$173, DW_AT_bit_offset(0x08), DW_AT_bit_size(0x01)
    1771                      .dwattr $C$DW$173, DW_AT_data_member_location[DW_OP_plus_uconst 0x0]
    1772                      .dwattr $C$DW$173, DW_AT_accessibility(DW_ACCESS_public)
    1773              $C$DW$174       .dwtag  DW_TAG_member
    1774                      .dwattr $C$DW$174, DW_AT_type(*$C$DW$T$19)
    1775                      .dwattr $C$DW$174, DW_AT_name("GPIO40")
    1776                      .dwattr $C$DW$174, DW_AT_TI_symbol_name("_GPIO40")
    1777                      .dwattr $C$DW$174, DW_AT_bit_offset(0x07), DW_AT_bit_size(0x01)
TMS320C2000 Assembler PC v6.2.7 Thu Jul 02 08:31:06 2015

Tools Copyright (c) 1996-2014 Texas Instruments Incorporated
C:\Users\Tester\AppData\Local\Temp\0465610                           PAGE   34

    1778                      .dwattr $C$DW$174, DW_AT_data_member_location[DW_OP_plus_uconst 0x0]
    1779                      .dwattr $C$DW$174, DW_AT_accessibility(DW_ACCESS_public)
    1780              $C$DW$175       .dwtag  DW_TAG_member
    1781                      .dwattr $C$DW$175, DW_AT_type(*$C$DW$T$19)
    1782                      .dwattr $C$DW$175, DW_AT_name("GPIO41")
    1783                      .dwattr $C$DW$175, DW_AT_TI_symbol_name("_GPIO41")
    1784                      .dwattr $C$DW$175, DW_AT_bit_offset(0x06), DW_AT_bit_size(0x01)
    1785                      .dwattr $C$DW$175, DW_AT_data_member_location[DW_OP_plus_uconst 0x0]
    1786                      .dwattr $C$DW$175, DW_AT_accessibility(DW_ACCESS_public)
    1787              $C$DW$176       .dwtag  DW_TAG_member
    1788                      .dwattr $C$DW$176, DW_AT_type(*$C$DW$T$19)
    1789                      .dwattr $C$DW$176, DW_AT_name("GPIO42")
    1790                      .dwattr $C$DW$176, DW_AT_TI_symbol_name("_GPIO42")
    1791                      .dwattr $C$DW$176, DW_AT_bit_offset(0x05), DW_AT_bit_size(0x01)
    1792                      .dwattr $C$DW$176, DW_AT_data_member_location[DW_OP_plus_uconst 0x0]
    1793                      .dwattr $C$DW$176, DW_AT_accessibility(DW_ACCESS_public)
    1794              $C$DW$177       .dwtag  DW_TAG_member
    1795                      .dwattr $C$DW$177, DW_AT_type(*$C$DW$T$19)
    1796                      .dwattr $C$DW$177, DW_AT_name("GPIO43")
    1797                      .dwattr $C$DW$177, DW_AT_TI_symbol_name("_GPIO43")
    1798                      .dwattr $C$DW$177, DW_AT_bit_offset(0x04), DW_AT_bit_size(0x01)
    1799                      .dwattr $C$DW$177, DW_AT_data_member_location[DW_OP_plus_uconst 0x0]
    1800                      .dwattr $C$DW$177, DW_AT_accessibility(DW_ACCESS_public)
    1801              $C$DW$178       .dwtag  DW_TAG_member
    1802                      .dwattr $C$DW$178, DW_AT_type(*$C$DW$T$19)
    1803                      .dwattr $C$DW$178, DW_AT_name("GPIO44")
    1804                      .dwattr $C$DW$178, DW_AT_TI_symbol_name("_GPIO44")
    1805                      .dwattr $C$DW$178, DW_AT_bit_offset(0x03), DW_AT_bit_size(0x01)
    1806                      .dwattr $C$DW$178, DW_AT_data_member_location[DW_OP_plus_uconst 0x0]
    1807                      .dwattr $C$DW$178, DW_AT_accessibility(DW_ACCESS_public)
    1808              $C$DW$179       .dwtag  DW_TAG_member
    1809                      .dwattr $C$DW$179, DW_AT_type(*$C$DW$T$19)
    1810                      .dwattr $C$DW$179, DW_AT_name("GPIO45")
    1811                      .dwattr $C$DW$179, DW_AT_TI_symbol_name("_GPIO45")
    1812                      .dwattr $C$DW$179, DW_AT_bit_offset(0x02), DW_AT_bit_size(0x01)
    1813                      .dwattr $C$DW$179, DW_AT_data_member_location[DW_OP_plus_uconst 0x0]
    1814                      .dwattr $C$DW$179, DW_AT_accessibility(DW_ACCESS_public)
    1815              $C$DW$180       .dwtag  DW_TAG_member
    1816                      .dwattr $C$DW$180, DW_AT_type(*$C$DW$T$19)
    1817                      .dwattr $C$DW$180, DW_AT_name("GPIO46")
    1818                      .dwattr $C$DW$180, DW_AT_TI_symbol_name("_GPIO46")
    1819                      .dwattr $C$DW$180, DW_AT_bit_offset(0x01), DW_AT_bit_size(0x01)
    1820                      .dwattr $C$DW$180, DW_AT_data_member_location[DW_OP_plus_uconst 0x0]
    1821                      .dwattr $C$DW$180, DW_AT_accessibility(DW_ACCESS_public)
    1822              $C$DW$181       .dwtag  DW_TAG_member
    1823                      .dwattr $C$DW$181, DW_AT_type(*$C$DW$T$19)
    1824                      .dwattr $C$DW$181, DW_AT_name("GPIO47")
    1825                      .dwattr $C$DW$181, DW_AT_TI_symbol_name("_GPIO47")
    1826                      .dwattr $C$DW$181, DW_AT_bit_offset(0x00), DW_AT_bit_size(0x01)
    1827                      .dwattr $C$DW$181, DW_AT_data_member_location[DW_OP_plus_uconst 0x0]
    1828                      .dwattr $C$DW$181, DW_AT_accessibility(DW_ACCESS_public)
    1829              $C$DW$182       .dwtag  DW_TAG_member
    1830                      .dwattr $C$DW$182, DW_AT_type(*$C$DW$T$19)
    1831                      .dwattr $C$DW$182, DW_AT_name("GPIO48")
    1832                      .dwattr $C$DW$182, DW_AT_TI_symbol_name("_GPIO48")
TMS320C2000 Assembler PC v6.2.7 Thu Jul 02 08:31:06 2015

Tools Copyright (c) 1996-2014 Texas Instruments Incorporated
C:\Users\Tester\AppData\Local\Temp\0465610                           PAGE   35

    1833                      .dwattr $C$DW$182, DW_AT_bit_offset(0x0f), DW_AT_bit_size(0x01)
    1834                      .dwattr $C$DW$182, DW_AT_data_member_location[DW_OP_plus_uconst 0x1]
    1835                      .dwattr $C$DW$182, DW_AT_accessibility(DW_ACCESS_public)
    1836              $C$DW$183       .dwtag  DW_TAG_member
    1837                      .dwattr $C$DW$183, DW_AT_type(*$C$DW$T$19)
    1838                      .dwattr $C$DW$183, DW_AT_name("GPIO49")
    1839                      .dwattr $C$DW$183, DW_AT_TI_symbol_name("_GPIO49")
    1840                      .dwattr $C$DW$183, DW_AT_bit_offset(0x0e), DW_AT_bit_size(0x01)
    1841                      .dwattr $C$DW$183, DW_AT_data_member_location[DW_OP_plus_uconst 0x1]
    1842                      .dwattr $C$DW$183, DW_AT_accessibility(DW_ACCESS_public)
    1843              $C$DW$184       .dwtag  DW_TAG_member
    1844                      .dwattr $C$DW$184, DW_AT_type(*$C$DW$T$19)
    1845                      .dwattr $C$DW$184, DW_AT_name("GPIO50")
    1846                      .dwattr $C$DW$184, DW_AT_TI_symbol_name("_GPIO50")
    1847                      .dwattr $C$DW$184, DW_AT_bit_offset(0x0d), DW_AT_bit_size(0x01)
    1848                      .dwattr $C$DW$184, DW_AT_data_member_location[DW_OP_plus_uconst 0x1]
    1849                      .dwattr $C$DW$184, DW_AT_accessibility(DW_ACCESS_public)
    1850              $C$DW$185       .dwtag  DW_TAG_member
    1851                      .dwattr $C$DW$185, DW_AT_type(*$C$DW$T$19)
    1852                      .dwattr $C$DW$185, DW_AT_name("GPIO51")
    1853                      .dwattr $C$DW$185, DW_AT_TI_symbol_name("_GPIO51")
    1854                      .dwattr $C$DW$185, DW_AT_bit_offset(0x0c), DW_AT_bit_size(0x01)
    1855                      .dwattr $C$DW$185, DW_AT_data_member_location[DW_OP_plus_uconst 0x1]
    1856                      .dwattr $C$DW$185, DW_AT_accessibility(DW_ACCESS_public)
    1857              $C$DW$186       .dwtag  DW_TAG_member
    1858                      .dwattr $C$DW$186, DW_AT_type(*$C$DW$T$19)
    1859                      .dwattr $C$DW$186, DW_AT_name("GPIO52")
    1860                      .dwattr $C$DW$186, DW_AT_TI_symbol_name("_GPIO52")
    1861                      .dwattr $C$DW$186, DW_AT_bit_offset(0x0b), DW_AT_bit_size(0x01)
    1862                      .dwattr $C$DW$186, DW_AT_data_member_location[DW_OP_plus_uconst 0x1]
    1863                      .dwattr $C$DW$186, DW_AT_accessibility(DW_ACCESS_public)
    1864              $C$DW$187       .dwtag  DW_TAG_member
    1865                      .dwattr $C$DW$187, DW_AT_type(*$C$DW$T$19)
    1866                      .dwattr $C$DW$187, DW_AT_name("GPIO53")
    1867                      .dwattr $C$DW$187, DW_AT_TI_symbol_name("_GPIO53")
    1868                      .dwattr $C$DW$187, DW_AT_bit_offset(0x0a), DW_AT_bit_size(0x01)
    1869                      .dwattr $C$DW$187, DW_AT_data_member_location[DW_OP_plus_uconst 0x1]
    1870                      .dwattr $C$DW$187, DW_AT_accessibility(DW_ACCESS_public)
    1871              $C$DW$188       .dwtag  DW_TAG_member
    1872                      .dwattr $C$DW$188, DW_AT_type(*$C$DW$T$19)
    1873                      .dwattr $C$DW$188, DW_AT_name("GPIO54")
    1874                      .dwattr $C$DW$188, DW_AT_TI_symbol_name("_GPIO54")
    1875                      .dwattr $C$DW$188, DW_AT_bit_offset(0x09), DW_AT_bit_size(0x01)
    1876                      .dwattr $C$DW$188, DW_AT_data_member_location[DW_OP_plus_uconst 0x1]
    1877                      .dwattr $C$DW$188, DW_AT_accessibility(DW_ACCESS_public)
    1878              $C$DW$189       .dwtag  DW_TAG_member
    1879                      .dwattr $C$DW$189, DW_AT_type(*$C$DW$T$19)
    1880                      .dwattr $C$DW$189, DW_AT_name("GPIO55")
    1881                      .dwattr $C$DW$189, DW_AT_TI_symbol_name("_GPIO55")
    1882                      .dwattr $C$DW$189, DW_AT_bit_offset(0x08), DW_AT_bit_size(0x01)
    1883                      .dwattr $C$DW$189, DW_AT_data_member_location[DW_OP_plus_uconst 0x1]
    1884                      .dwattr $C$DW$189, DW_AT_accessibility(DW_ACCESS_public)
    1885              $C$DW$190       .dwtag  DW_TAG_member
    1886                      .dwattr $C$DW$190, DW_AT_type(*$C$DW$T$19)
    1887                      .dwattr $C$DW$190, DW_AT_name("GPIO56")
TMS320C2000 Assembler PC v6.2.7 Thu Jul 02 08:31:06 2015

Tools Copyright (c) 1996-2014 Texas Instruments Incorporated
C:\Users\Tester\AppData\Local\Temp\0465610                           PAGE   36

    1888                      .dwattr $C$DW$190, DW_AT_TI_symbol_name("_GPIO56")
    1889                      .dwattr $C$DW$190, DW_AT_bit_offset(0x07), DW_AT_bit_size(0x01)
    1890                      .dwattr $C$DW$190, DW_AT_data_member_location[DW_OP_plus_uconst 0x1]
    1891                      .dwattr $C$DW$190, DW_AT_accessibility(DW_ACCESS_public)
    1892              $C$DW$191       .dwtag  DW_TAG_member
    1893                      .dwattr $C$DW$191, DW_AT_type(*$C$DW$T$19)
    1894                      .dwattr $C$DW$191, DW_AT_name("GPIO57")
    1895                      .dwattr $C$DW$191, DW_AT_TI_symbol_name("_GPIO57")
    1896                      .dwattr $C$DW$191, DW_AT_bit_offset(0x06), DW_AT_bit_size(0x01)
    1897                      .dwattr $C$DW$191, DW_AT_data_member_location[DW_OP_plus_uconst 0x1]
    1898                      .dwattr $C$DW$191, DW_AT_accessibility(DW_ACCESS_public)
    1899              $C$DW$192       .dwtag  DW_TAG_member
    1900                      .dwattr $C$DW$192, DW_AT_type(*$C$DW$T$19)
    1901                      .dwattr $C$DW$192, DW_AT_name("GPIO58")
    1902                      .dwattr $C$DW$192, DW_AT_TI_symbol_name("_GPIO58")
    1903                      .dwattr $C$DW$192, DW_AT_bit_offset(0x05), DW_AT_bit_size(0x01)
    1904                      .dwattr $C$DW$192, DW_AT_data_member_location[DW_OP_plus_uconst 0x1]
    1905                      .dwattr $C$DW$192, DW_AT_accessibility(DW_ACCESS_public)
    1906              $C$DW$193       .dwtag  DW_TAG_member
    1907                      .dwattr $C$DW$193, DW_AT_type(*$C$DW$T$19)
    1908                      .dwattr $C$DW$193, DW_AT_name("GPIO59")
    1909                      .dwattr $C$DW$193, DW_AT_TI_symbol_name("_GPIO59")
    1910                      .dwattr $C$DW$193, DW_AT_bit_offset(0x04), DW_AT_bit_size(0x01)
    1911                      .dwattr $C$DW$193, DW_AT_data_member_location[DW_OP_plus_uconst 0x1]
    1912                      .dwattr $C$DW$193, DW_AT_accessibility(DW_ACCESS_public)
    1913              $C$DW$194       .dwtag  DW_TAG_member
    1914                      .dwattr $C$DW$194, DW_AT_type(*$C$DW$T$19)
    1915                      .dwattr $C$DW$194, DW_AT_name("GPIO60")
    1916                      .dwattr $C$DW$194, DW_AT_TI_symbol_name("_GPIO60")
    1917                      .dwattr $C$DW$194, DW_AT_bit_offset(0x03), DW_AT_bit_size(0x01)
    1918                      .dwattr $C$DW$194, DW_AT_data_member_location[DW_OP_plus_uconst 0x1]
    1919                      .dwattr $C$DW$194, DW_AT_accessibility(DW_ACCESS_public)
    1920              $C$DW$195       .dwtag  DW_TAG_member
    1921                      .dwattr $C$DW$195, DW_AT_type(*$C$DW$T$19)
    1922                      .dwattr $C$DW$195, DW_AT_name("GPIO61")
    1923                      .dwattr $C$DW$195, DW_AT_TI_symbol_name("_GPIO61")
    1924                      .dwattr $C$DW$195, DW_AT_bit_offset(0x02), DW_AT_bit_size(0x01)
    1925                      .dwattr $C$DW$195, DW_AT_data_member_location[DW_OP_plus_uconst 0x1]
    1926                      .dwattr $C$DW$195, DW_AT_accessibility(DW_ACCESS_public)
    1927              $C$DW$196       .dwtag  DW_TAG_member
    1928                      .dwattr $C$DW$196, DW_AT_type(*$C$DW$T$19)
    1929                      .dwattr $C$DW$196, DW_AT_name("GPIO62")
    1930                      .dwattr $C$DW$196, DW_AT_TI_symbol_name("_GPIO62")
    1931                      .dwattr $C$DW$196, DW_AT_bit_offset(0x01), DW_AT_bit_size(0x01)
    1932                      .dwattr $C$DW$196, DW_AT_data_member_location[DW_OP_plus_uconst 0x1]
    1933                      .dwattr $C$DW$196, DW_AT_accessibility(DW_ACCESS_public)
    1934              $C$DW$197       .dwtag  DW_TAG_member
    1935                      .dwattr $C$DW$197, DW_AT_type(*$C$DW$T$19)
    1936                      .dwattr $C$DW$197, DW_AT_name("GPIO63")
    1937                      .dwattr $C$DW$197, DW_AT_TI_symbol_name("_GPIO63")
    1938                      .dwattr $C$DW$197, DW_AT_bit_offset(0x00), DW_AT_bit_size(0x01)
    1939                      .dwattr $C$DW$197, DW_AT_data_member_location[DW_OP_plus_uconst 0x1]
    1940                      .dwattr $C$DW$197, DW_AT_accessibility(DW_ACCESS_public)
    1941                      .dwendtag $C$DW$T$35
    1942              
TMS320C2000 Assembler PC v6.2.7 Thu Jul 02 08:31:06 2015

Tools Copyright (c) 1996-2014 Texas Instruments Incorporated
C:\Users\Tester\AppData\Local\Temp\0465610                           PAGE   37

    1943              
    1944              $C$DW$T$36      .dwtag  DW_TAG_union_type
    1945                      .dwattr $C$DW$T$36, DW_AT_name("GPBDAT_REG")
    1946                      .dwattr $C$DW$T$36, DW_AT_byte_size(0x02)
    1947              $C$DW$198       .dwtag  DW_TAG_member
    1948                      .dwattr $C$DW$198, DW_AT_type(*$C$DW$T$21)
    1949                      .dwattr $C$DW$198, DW_AT_name("all")
    1950                      .dwattr $C$DW$198, DW_AT_TI_symbol_name("_all")
    1951                      .dwattr $C$DW$198, DW_AT_data_member_location[DW_OP_plus_uconst 0x0]
    1952                      .dwattr $C$DW$198, DW_AT_accessibility(DW_ACCESS_public)
    1953              $C$DW$199       .dwtag  DW_TAG_member
    1954                      .dwattr $C$DW$199, DW_AT_type(*$C$DW$T$35)
    1955                      .dwattr $C$DW$199, DW_AT_name("bit")
    1956                      .dwattr $C$DW$199, DW_AT_TI_symbol_name("_bit")
    1957                      .dwattr $C$DW$199, DW_AT_data_member_location[DW_OP_plus_uconst 0x0]
    1958                      .dwattr $C$DW$199, DW_AT_accessibility(DW_ACCESS_public)
    1959                      .dwendtag $C$DW$T$36
    1960              
    1961              
    1962              $C$DW$T$37      .dwtag  DW_TAG_structure_type
    1963                      .dwattr $C$DW$T$37, DW_AT_name("GPC1_BITS")
    1964                      .dwattr $C$DW$T$37, DW_AT_byte_size(0x02)
    1965              $C$DW$200       .dwtag  DW_TAG_member
    1966                      .dwattr $C$DW$200, DW_AT_type(*$C$DW$T$19)
    1967                      .dwattr $C$DW$200, DW_AT_name("GPIO64")
    1968                      .dwattr $C$DW$200, DW_AT_TI_symbol_name("_GPIO64")
    1969                      .dwattr $C$DW$200, DW_AT_bit_offset(0x0e), DW_AT_bit_size(0x02)
    1970                      .dwattr $C$DW$200, DW_AT_data_member_location[DW_OP_plus_uconst 0x0]
    1971                      .dwattr $C$DW$200, DW_AT_accessibility(DW_ACCESS_public)
    1972              $C$DW$201       .dwtag  DW_TAG_member
    1973                      .dwattr $C$DW$201, DW_AT_type(*$C$DW$T$19)
    1974                      .dwattr $C$DW$201, DW_AT_name("GPIO65")
    1975                      .dwattr $C$DW$201, DW_AT_TI_symbol_name("_GPIO65")
    1976                      .dwattr $C$DW$201, DW_AT_bit_offset(0x0c), DW_AT_bit_size(0x02)
    1977                      .dwattr $C$DW$201, DW_AT_data_member_location[DW_OP_plus_uconst 0x0]
    1978                      .dwattr $C$DW$201, DW_AT_accessibility(DW_ACCESS_public)
    1979              $C$DW$202       .dwtag  DW_TAG_member
    1980                      .dwattr $C$DW$202, DW_AT_type(*$C$DW$T$19)
    1981                      .dwattr $C$DW$202, DW_AT_name("GPIO66")
    1982                      .dwattr $C$DW$202, DW_AT_TI_symbol_name("_GPIO66")
    1983                      .dwattr $C$DW$202, DW_AT_bit_offset(0x0a), DW_AT_bit_size(0x02)
    1984                      .dwattr $C$DW$202, DW_AT_data_member_location[DW_OP_plus_uconst 0x0]
    1985                      .dwattr $C$DW$202, DW_AT_accessibility(DW_ACCESS_public)
    1986              $C$DW$203       .dwtag  DW_TAG_member
    1987                      .dwattr $C$DW$203, DW_AT_type(*$C$DW$T$19)
    1988                      .dwattr $C$DW$203, DW_AT_name("GPIO67")
    1989                      .dwattr $C$DW$203, DW_AT_TI_symbol_name("_GPIO67")
    1990                      .dwattr $C$DW$203, DW_AT_bit_offset(0x08), DW_AT_bit_size(0x02)
    1991                      .dwattr $C$DW$203, DW_AT_data_member_location[DW_OP_plus_uconst 0x0]
    1992                      .dwattr $C$DW$203, DW_AT_accessibility(DW_ACCESS_public)
    1993              $C$DW$204       .dwtag  DW_TAG_member
    1994                      .dwattr $C$DW$204, DW_AT_type(*$C$DW$T$19)
    1995                      .dwattr $C$DW$204, DW_AT_name("GPIO68")
    1996                      .dwattr $C$DW$204, DW_AT_TI_symbol_name("_GPIO68")
    1997                      .dwattr $C$DW$204, DW_AT_bit_offset(0x06), DW_AT_bit_size(0x02)
TMS320C2000 Assembler PC v6.2.7 Thu Jul 02 08:31:06 2015

Tools Copyright (c) 1996-2014 Texas Instruments Incorporated
C:\Users\Tester\AppData\Local\Temp\0465610                           PAGE   38

    1998                      .dwattr $C$DW$204, DW_AT_data_member_location[DW_OP_plus_uconst 0x0]
    1999                      .dwattr $C$DW$204, DW_AT_accessibility(DW_ACCESS_public)
    2000              $C$DW$205       .dwtag  DW_TAG_member
    2001                      .dwattr $C$DW$205, DW_AT_type(*$C$DW$T$19)
    2002                      .dwattr $C$DW$205, DW_AT_name("GPIO69")
    2003                      .dwattr $C$DW$205, DW_AT_TI_symbol_name("_GPIO69")
    2004                      .dwattr $C$DW$205, DW_AT_bit_offset(0x04), DW_AT_bit_size(0x02)
    2005                      .dwattr $C$DW$205, DW_AT_data_member_location[DW_OP_plus_uconst 0x0]
    2006                      .dwattr $C$DW$205, DW_AT_accessibility(DW_ACCESS_public)
    2007              $C$DW$206       .dwtag  DW_TAG_member
    2008                      .dwattr $C$DW$206, DW_AT_type(*$C$DW$T$19)
    2009                      .dwattr $C$DW$206, DW_AT_name("GPIO70")
    2010                      .dwattr $C$DW$206, DW_AT_TI_symbol_name("_GPIO70")
    2011                      .dwattr $C$DW$206, DW_AT_bit_offset(0x02), DW_AT_bit_size(0x02)
    2012                      .dwattr $C$DW$206, DW_AT_data_member_location[DW_OP_plus_uconst 0x0]
    2013                      .dwattr $C$DW$206, DW_AT_accessibility(DW_ACCESS_public)
    2014              $C$DW$207       .dwtag  DW_TAG_member
    2015                      .dwattr $C$DW$207, DW_AT_type(*$C$DW$T$19)
    2016                      .dwattr $C$DW$207, DW_AT_name("GPIO71")
    2017                      .dwattr $C$DW$207, DW_AT_TI_symbol_name("_GPIO71")
    2018                      .dwattr $C$DW$207, DW_AT_bit_offset(0x00), DW_AT_bit_size(0x02)
    2019                      .dwattr $C$DW$207, DW_AT_data_member_location[DW_OP_plus_uconst 0x0]
    2020                      .dwattr $C$DW$207, DW_AT_accessibility(DW_ACCESS_public)
    2021              $C$DW$208       .dwtag  DW_TAG_member
    2022                      .dwattr $C$DW$208, DW_AT_type(*$C$DW$T$19)
    2023                      .dwattr $C$DW$208, DW_AT_name("GPIO72")
    2024                      .dwattr $C$DW$208, DW_AT_TI_symbol_name("_GPIO72")
    2025                      .dwattr $C$DW$208, DW_AT_bit_offset(0x0e), DW_AT_bit_size(0x02)
    2026                      .dwattr $C$DW$208, DW_AT_data_member_location[DW_OP_plus_uconst 0x1]
    2027                      .dwattr $C$DW$208, DW_AT_accessibility(DW_ACCESS_public)
    2028              $C$DW$209       .dwtag  DW_TAG_member
    2029                      .dwattr $C$DW$209, DW_AT_type(*$C$DW$T$19)
    2030                      .dwattr $C$DW$209, DW_AT_name("GPIO73")
    2031                      .dwattr $C$DW$209, DW_AT_TI_symbol_name("_GPIO73")
    2032                      .dwattr $C$DW$209, DW_AT_bit_offset(0x0c), DW_AT_bit_size(0x02)
    2033                      .dwattr $C$DW$209, DW_AT_data_member_location[DW_OP_plus_uconst 0x1]
    2034                      .dwattr $C$DW$209, DW_AT_accessibility(DW_ACCESS_public)
    2035              $C$DW$210       .dwtag  DW_TAG_member
    2036                      .dwattr $C$DW$210, DW_AT_type(*$C$DW$T$19)
    2037                      .dwattr $C$DW$210, DW_AT_name("GPIO74")
    2038                      .dwattr $C$DW$210, DW_AT_TI_symbol_name("_GPIO74")
    2039                      .dwattr $C$DW$210, DW_AT_bit_offset(0x0a), DW_AT_bit_size(0x02)
    2040                      .dwattr $C$DW$210, DW_AT_data_member_location[DW_OP_plus_uconst 0x1]
    2041                      .dwattr $C$DW$210, DW_AT_accessibility(DW_ACCESS_public)
    2042              $C$DW$211       .dwtag  DW_TAG_member
    2043                      .dwattr $C$DW$211, DW_AT_type(*$C$DW$T$19)
    2044                      .dwattr $C$DW$211, DW_AT_name("GPIO75")
    2045                      .dwattr $C$DW$211, DW_AT_TI_symbol_name("_GPIO75")
    2046                      .dwattr $C$DW$211, DW_AT_bit_offset(0x08), DW_AT_bit_size(0x02)
    2047                      .dwattr $C$DW$211, DW_AT_data_member_location[DW_OP_plus_uconst 0x1]
    2048                      .dwattr $C$DW$211, DW_AT_accessibility(DW_ACCESS_public)
    2049              $C$DW$212       .dwtag  DW_TAG_member
    2050                      .dwattr $C$DW$212, DW_AT_type(*$C$DW$T$19)
    2051                      .dwattr $C$DW$212, DW_AT_name("GPIO76")
    2052                      .dwattr $C$DW$212, DW_AT_TI_symbol_name("_GPIO76")
TMS320C2000 Assembler PC v6.2.7 Thu Jul 02 08:31:06 2015

Tools Copyright (c) 1996-2014 Texas Instruments Incorporated
C:\Users\Tester\AppData\Local\Temp\0465610                           PAGE   39

    2053                      .dwattr $C$DW$212, DW_AT_bit_offset(0x06), DW_AT_bit_size(0x02)
    2054                      .dwattr $C$DW$212, DW_AT_data_member_location[DW_OP_plus_uconst 0x1]
    2055                      .dwattr $C$DW$212, DW_AT_accessibility(DW_ACCESS_public)
    2056              $C$DW$213       .dwtag  DW_TAG_member
    2057                      .dwattr $C$DW$213, DW_AT_type(*$C$DW$T$19)
    2058                      .dwattr $C$DW$213, DW_AT_name("GPIO77")
    2059                      .dwattr $C$DW$213, DW_AT_TI_symbol_name("_GPIO77")
    2060                      .dwattr $C$DW$213, DW_AT_bit_offset(0x04), DW_AT_bit_size(0x02)
    2061                      .dwattr $C$DW$213, DW_AT_data_member_location[DW_OP_plus_uconst 0x1]
    2062                      .dwattr $C$DW$213, DW_AT_accessibility(DW_ACCESS_public)
    2063              $C$DW$214       .dwtag  DW_TAG_member
    2064                      .dwattr $C$DW$214, DW_AT_type(*$C$DW$T$19)
    2065                      .dwattr $C$DW$214, DW_AT_name("GPIO78")
    2066                      .dwattr $C$DW$214, DW_AT_TI_symbol_name("_GPIO78")
    2067                      .dwattr $C$DW$214, DW_AT_bit_offset(0x02), DW_AT_bit_size(0x02)
    2068                      .dwattr $C$DW$214, DW_AT_data_member_location[DW_OP_plus_uconst 0x1]
    2069                      .dwattr $C$DW$214, DW_AT_accessibility(DW_ACCESS_public)
    2070              $C$DW$215       .dwtag  DW_TAG_member
    2071                      .dwattr $C$DW$215, DW_AT_type(*$C$DW$T$19)
    2072                      .dwattr $C$DW$215, DW_AT_name("GPIO79")
    2073                      .dwattr $C$DW$215, DW_AT_TI_symbol_name("_GPIO79")
    2074                      .dwattr $C$DW$215, DW_AT_bit_offset(0x00), DW_AT_bit_size(0x02)
    2075                      .dwattr $C$DW$215, DW_AT_data_member_location[DW_OP_plus_uconst 0x1]
    2076                      .dwattr $C$DW$215, DW_AT_accessibility(DW_ACCESS_public)
    2077                      .dwendtag $C$DW$T$37
    2078              
    2079              
    2080              $C$DW$T$38      .dwtag  DW_TAG_union_type
    2081                      .dwattr $C$DW$T$38, DW_AT_name("GPC1_REG")
    2082                      .dwattr $C$DW$T$38, DW_AT_byte_size(0x02)
    2083              $C$DW$216       .dwtag  DW_TAG_member
    2084                      .dwattr $C$DW$216, DW_AT_type(*$C$DW$T$21)
    2085                      .dwattr $C$DW$216, DW_AT_name("all")
    2086                      .dwattr $C$DW$216, DW_AT_TI_symbol_name("_all")
    2087                      .dwattr $C$DW$216, DW_AT_data_member_location[DW_OP_plus_uconst 0x0]
    2088                      .dwattr $C$DW$216, DW_AT_accessibility(DW_ACCESS_public)
    2089              $C$DW$217       .dwtag  DW_TAG_member
    2090                      .dwattr $C$DW$217, DW_AT_type(*$C$DW$T$37)
    2091                      .dwattr $C$DW$217, DW_AT_name("bit")
    2092                      .dwattr $C$DW$217, DW_AT_TI_symbol_name("_bit")
    2093                      .dwattr $C$DW$217, DW_AT_data_member_location[DW_OP_plus_uconst 0x0]
    2094                      .dwattr $C$DW$217, DW_AT_accessibility(DW_ACCESS_public)
    2095                      .dwendtag $C$DW$T$38
    2096              
    2097              
    2098              $C$DW$T$39      .dwtag  DW_TAG_structure_type
    2099                      .dwattr $C$DW$T$39, DW_AT_name("GPC2_BITS")
    2100                      .dwattr $C$DW$T$39, DW_AT_byte_size(0x02)
    2101              $C$DW$218       .dwtag  DW_TAG_member
    2102                      .dwattr $C$DW$218, DW_AT_type(*$C$DW$T$19)
    2103                      .dwattr $C$DW$218, DW_AT_name("GPIO80")
    2104                      .dwattr $C$DW$218, DW_AT_TI_symbol_name("_GPIO80")
    2105                      .dwattr $C$DW$218, DW_AT_bit_offset(0x0e), DW_AT_bit_size(0x02)
    2106                      .dwattr $C$DW$218, DW_AT_data_member_location[DW_OP_plus_uconst 0x0]
    2107                      .dwattr $C$DW$218, DW_AT_accessibility(DW_ACCESS_public)
TMS320C2000 Assembler PC v6.2.7 Thu Jul 02 08:31:06 2015

Tools Copyright (c) 1996-2014 Texas Instruments Incorporated
C:\Users\Tester\AppData\Local\Temp\0465610                           PAGE   40

    2108              $C$DW$219       .dwtag  DW_TAG_member
    2109                      .dwattr $C$DW$219, DW_AT_type(*$C$DW$T$19)
    2110                      .dwattr $C$DW$219, DW_AT_name("GPIO81")
    2111                      .dwattr $C$DW$219, DW_AT_TI_symbol_name("_GPIO81")
    2112                      .dwattr $C$DW$219, DW_AT_bit_offset(0x0c), DW_AT_bit_size(0x02)
    2113                      .dwattr $C$DW$219, DW_AT_data_member_location[DW_OP_plus_uconst 0x0]
    2114                      .dwattr $C$DW$219, DW_AT_accessibility(DW_ACCESS_public)
    2115              $C$DW$220       .dwtag  DW_TAG_member
    2116                      .dwattr $C$DW$220, DW_AT_type(*$C$DW$T$19)
    2117                      .dwattr $C$DW$220, DW_AT_name("GPIO82")
    2118                      .dwattr $C$DW$220, DW_AT_TI_symbol_name("_GPIO82")
    2119                      .dwattr $C$DW$220, DW_AT_bit_offset(0x0a), DW_AT_bit_size(0x02)
    2120                      .dwattr $C$DW$220, DW_AT_data_member_location[DW_OP_plus_uconst 0x0]
    2121                      .dwattr $C$DW$220, DW_AT_accessibility(DW_ACCESS_public)
    2122              $C$DW$221       .dwtag  DW_TAG_member
    2123                      .dwattr $C$DW$221, DW_AT_type(*$C$DW$T$19)
    2124                      .dwattr $C$DW$221, DW_AT_name("GPIO83")
    2125                      .dwattr $C$DW$221, DW_AT_TI_symbol_name("_GPIO83")
    2126                      .dwattr $C$DW$221, DW_AT_bit_offset(0x08), DW_AT_bit_size(0x02)
    2127                      .dwattr $C$DW$221, DW_AT_data_member_location[DW_OP_plus_uconst 0x0]
    2128                      .dwattr $C$DW$221, DW_AT_accessibility(DW_ACCESS_public)
    2129              $C$DW$222       .dwtag  DW_TAG_member
    2130                      .dwattr $C$DW$222, DW_AT_type(*$C$DW$T$19)
    2131                      .dwattr $C$DW$222, DW_AT_name("GPIO84")
    2132                      .dwattr $C$DW$222, DW_AT_TI_symbol_name("_GPIO84")
    2133                      .dwattr $C$DW$222, DW_AT_bit_offset(0x06), DW_AT_bit_size(0x02)
    2134                      .dwattr $C$DW$222, DW_AT_data_member_location[DW_OP_plus_uconst 0x0]
    2135                      .dwattr $C$DW$222, DW_AT_accessibility(DW_ACCESS_public)
    2136              $C$DW$223       .dwtag  DW_TAG_member
    2137                      .dwattr $C$DW$223, DW_AT_type(*$C$DW$T$19)
    2138                      .dwattr $C$DW$223, DW_AT_name("GPIO85")
    2139                      .dwattr $C$DW$223, DW_AT_TI_symbol_name("_GPIO85")
    2140                      .dwattr $C$DW$223, DW_AT_bit_offset(0x04), DW_AT_bit_size(0x02)
    2141                      .dwattr $C$DW$223, DW_AT_data_member_location[DW_OP_plus_uconst 0x0]
    2142                      .dwattr $C$DW$223, DW_AT_accessibility(DW_ACCESS_public)
    2143              $C$DW$224       .dwtag  DW_TAG_member
    2144                      .dwattr $C$DW$224, DW_AT_type(*$C$DW$T$19)
    2145                      .dwattr $C$DW$224, DW_AT_name("GPIO86")
    2146                      .dwattr $C$DW$224, DW_AT_TI_symbol_name("_GPIO86")
    2147                      .dwattr $C$DW$224, DW_AT_bit_offset(0x02), DW_AT_bit_size(0x02)
    2148                      .dwattr $C$DW$224, DW_AT_data_member_location[DW_OP_plus_uconst 0x0]
    2149                      .dwattr $C$DW$224, DW_AT_accessibility(DW_ACCESS_public)
    2150              $C$DW$225       .dwtag  DW_TAG_member
    2151                      .dwattr $C$DW$225, DW_AT_type(*$C$DW$T$19)
    2152                      .dwattr $C$DW$225, DW_AT_name("GPIO87")
    2153                      .dwattr $C$DW$225, DW_AT_TI_symbol_name("_GPIO87")
    2154                      .dwattr $C$DW$225, DW_AT_bit_offset(0x00), DW_AT_bit_size(0x02)
    2155                      .dwattr $C$DW$225, DW_AT_data_member_location[DW_OP_plus_uconst 0x0]
    2156                      .dwattr $C$DW$225, DW_AT_accessibility(DW_ACCESS_public)
    2157              $C$DW$226       .dwtag  DW_TAG_member
    2158                      .dwattr $C$DW$226, DW_AT_type(*$C$DW$T$19)
    2159                      .dwattr $C$DW$226, DW_AT_name("rsvd")
    2160                      .dwattr $C$DW$226, DW_AT_TI_symbol_name("_rsvd")
    2161                      .dwattr $C$DW$226, DW_AT_bit_offset(0x00), DW_AT_bit_size(0x10)
    2162                      .dwattr $C$DW$226, DW_AT_data_member_location[DW_OP_plus_uconst 0x1]
TMS320C2000 Assembler PC v6.2.7 Thu Jul 02 08:31:06 2015

Tools Copyright (c) 1996-2014 Texas Instruments Incorporated
C:\Users\Tester\AppData\Local\Temp\0465610                           PAGE   41

    2163                      .dwattr $C$DW$226, DW_AT_accessibility(DW_ACCESS_public)
    2164                      .dwendtag $C$DW$T$39
    2165              
    2166              
    2167              $C$DW$T$40      .dwtag  DW_TAG_union_type
    2168                      .dwattr $C$DW$T$40, DW_AT_name("GPC2_REG")
    2169                      .dwattr $C$DW$T$40, DW_AT_byte_size(0x02)
    2170              $C$DW$227       .dwtag  DW_TAG_member
    2171                      .dwattr $C$DW$227, DW_AT_type(*$C$DW$T$21)
    2172                      .dwattr $C$DW$227, DW_AT_name("all")
    2173                      .dwattr $C$DW$227, DW_AT_TI_symbol_name("_all")
    2174                      .dwattr $C$DW$227, DW_AT_data_member_location[DW_OP_plus_uconst 0x0]
    2175                      .dwattr $C$DW$227, DW_AT_accessibility(DW_ACCESS_public)
    2176              $C$DW$228       .dwtag  DW_TAG_member
    2177                      .dwattr $C$DW$228, DW_AT_type(*$C$DW$T$39)
    2178                      .dwattr $C$DW$228, DW_AT_name("bit")
    2179                      .dwattr $C$DW$228, DW_AT_TI_symbol_name("_bit")
    2180                      .dwattr $C$DW$228, DW_AT_data_member_location[DW_OP_plus_uconst 0x0]
    2181                      .dwattr $C$DW$228, DW_AT_accessibility(DW_ACCESS_public)
    2182                      .dwendtag $C$DW$T$40
    2183              
    2184              
    2185              $C$DW$T$41      .dwtag  DW_TAG_structure_type
    2186                      .dwattr $C$DW$T$41, DW_AT_name("GPCDAT_BITS")
    2187                      .dwattr $C$DW$T$41, DW_AT_byte_size(0x02)
    2188              $C$DW$229       .dwtag  DW_TAG_member
    2189                      .dwattr $C$DW$229, DW_AT_type(*$C$DW$T$19)
    2190                      .dwattr $C$DW$229, DW_AT_name("GPIO64")
    2191                      .dwattr $C$DW$229, DW_AT_TI_symbol_name("_GPIO64")
    2192                      .dwattr $C$DW$229, DW_AT_bit_offset(0x0f), DW_AT_bit_size(0x01)
    2193                      .dwattr $C$DW$229, DW_AT_data_member_location[DW_OP_plus_uconst 0x0]
    2194                      .dwattr $C$DW$229, DW_AT_accessibility(DW_ACCESS_public)
    2195              $C$DW$230       .dwtag  DW_TAG_member
    2196                      .dwattr $C$DW$230, DW_AT_type(*$C$DW$T$19)
    2197                      .dwattr $C$DW$230, DW_AT_name("GPIO65")
    2198                      .dwattr $C$DW$230, DW_AT_TI_symbol_name("_GPIO65")
    2199                      .dwattr $C$DW$230, DW_AT_bit_offset(0x0e), DW_AT_bit_size(0x01)
    2200                      .dwattr $C$DW$230, DW_AT_data_member_location[DW_OP_plus_uconst 0x0]
    2201                      .dwattr $C$DW$230, DW_AT_accessibility(DW_ACCESS_public)
    2202              $C$DW$231       .dwtag  DW_TAG_member
    2203                      .dwattr $C$DW$231, DW_AT_type(*$C$DW$T$19)
    2204                      .dwattr $C$DW$231, DW_AT_name("GPIO66")
    2205                      .dwattr $C$DW$231, DW_AT_TI_symbol_name("_GPIO66")
    2206                      .dwattr $C$DW$231, DW_AT_bit_offset(0x0d), DW_AT_bit_size(0x01)
    2207                      .dwattr $C$DW$231, DW_AT_data_member_location[DW_OP_plus_uconst 0x0]
    2208                      .dwattr $C$DW$231, DW_AT_accessibility(DW_ACCESS_public)
    2209              $C$DW$232       .dwtag  DW_TAG_member
    2210                      .dwattr $C$DW$232, DW_AT_type(*$C$DW$T$19)
    2211                      .dwattr $C$DW$232, DW_AT_name("GPIO67")
    2212                      .dwattr $C$DW$232, DW_AT_TI_symbol_name("_GPIO67")
    2213                      .dwattr $C$DW$232, DW_AT_bit_offset(0x0c), DW_AT_bit_size(0x01)
    2214                      .dwattr $C$DW$232, DW_AT_data_member_location[DW_OP_plus_uconst 0x0]
    2215                      .dwattr $C$DW$232, DW_AT_accessibility(DW_ACCESS_public)
    2216              $C$DW$233       .dwtag  DW_TAG_member
    2217                      .dwattr $C$DW$233, DW_AT_type(*$C$DW$T$19)
TMS320C2000 Assembler PC v6.2.7 Thu Jul 02 08:31:06 2015

Tools Copyright (c) 1996-2014 Texas Instruments Incorporated
C:\Users\Tester\AppData\Local\Temp\0465610                           PAGE   42

    2218                      .dwattr $C$DW$233, DW_AT_name("GPIO68")
    2219                      .dwattr $C$DW$233, DW_AT_TI_symbol_name("_GPIO68")
    2220                      .dwattr $C$DW$233, DW_AT_bit_offset(0x0b), DW_AT_bit_size(0x01)
    2221                      .dwattr $C$DW$233, DW_AT_data_member_location[DW_OP_plus_uconst 0x0]
    2222                      .dwattr $C$DW$233, DW_AT_accessibility(DW_ACCESS_public)
    2223              $C$DW$234       .dwtag  DW_TAG_member
    2224                      .dwattr $C$DW$234, DW_AT_type(*$C$DW$T$19)
    2225                      .dwattr $C$DW$234, DW_AT_name("GPIO69")
    2226                      .dwattr $C$DW$234, DW_AT_TI_symbol_name("_GPIO69")
    2227                      .dwattr $C$DW$234, DW_AT_bit_offset(0x0a), DW_AT_bit_size(0x01)
    2228                      .dwattr $C$DW$234, DW_AT_data_member_location[DW_OP_plus_uconst 0x0]
    2229                      .dwattr $C$DW$234, DW_AT_accessibility(DW_ACCESS_public)
    2230              $C$DW$235       .dwtag  DW_TAG_member
    2231                      .dwattr $C$DW$235, DW_AT_type(*$C$DW$T$19)
    2232                      .dwattr $C$DW$235, DW_AT_name("GPIO70")
    2233                      .dwattr $C$DW$235, DW_AT_TI_symbol_name("_GPIO70")
    2234                      .dwattr $C$DW$235, DW_AT_bit_offset(0x09), DW_AT_bit_size(0x01)
    2235                      .dwattr $C$DW$235, DW_AT_data_member_location[DW_OP_plus_uconst 0x0]
    2236                      .dwattr $C$DW$235, DW_AT_accessibility(DW_ACCESS_public)
    2237              $C$DW$236       .dwtag  DW_TAG_member
    2238                      .dwattr $C$DW$236, DW_AT_type(*$C$DW$T$19)
    2239                      .dwattr $C$DW$236, DW_AT_name("GPIO71")
    2240                      .dwattr $C$DW$236, DW_AT_TI_symbol_name("_GPIO71")
    2241                      .dwattr $C$DW$236, DW_AT_bit_offset(0x08), DW_AT_bit_size(0x01)
    2242                      .dwattr $C$DW$236, DW_AT_data_member_location[DW_OP_plus_uconst 0x0]
    2243                      .dwattr $C$DW$236, DW_AT_accessibility(DW_ACCESS_public)
    2244              $C$DW$237       .dwtag  DW_TAG_member
    2245                      .dwattr $C$DW$237, DW_AT_type(*$C$DW$T$19)
    2246                      .dwattr $C$DW$237, DW_AT_name("GPIO72")
    2247                      .dwattr $C$DW$237, DW_AT_TI_symbol_name("_GPIO72")
    2248                      .dwattr $C$DW$237, DW_AT_bit_offset(0x07), DW_AT_bit_size(0x01)
    2249                      .dwattr $C$DW$237, DW_AT_data_member_location[DW_OP_plus_uconst 0x0]
    2250                      .dwattr $C$DW$237, DW_AT_accessibility(DW_ACCESS_public)
    2251              $C$DW$238       .dwtag  DW_TAG_member
    2252                      .dwattr $C$DW$238, DW_AT_type(*$C$DW$T$19)
    2253                      .dwattr $C$DW$238, DW_AT_name("GPIO73")
    2254                      .dwattr $C$DW$238, DW_AT_TI_symbol_name("_GPIO73")
    2255                      .dwattr $C$DW$238, DW_AT_bit_offset(0x06), DW_AT_bit_size(0x01)
    2256                      .dwattr $C$DW$238, DW_AT_data_member_location[DW_OP_plus_uconst 0x0]
    2257                      .dwattr $C$DW$238, DW_AT_accessibility(DW_ACCESS_public)
    2258              $C$DW$239       .dwtag  DW_TAG_member
    2259                      .dwattr $C$DW$239, DW_AT_type(*$C$DW$T$19)
    2260                      .dwattr $C$DW$239, DW_AT_name("GPIO74")
    2261                      .dwattr $C$DW$239, DW_AT_TI_symbol_name("_GPIO74")
    2262                      .dwattr $C$DW$239, DW_AT_bit_offset(0x05), DW_AT_bit_size(0x01)
    2263                      .dwattr $C$DW$239, DW_AT_data_member_location[DW_OP_plus_uconst 0x0]
    2264                      .dwattr $C$DW$239, DW_AT_accessibility(DW_ACCESS_public)
    2265              $C$DW$240       .dwtag  DW_TAG_member
    2266                      .dwattr $C$DW$240, DW_AT_type(*$C$DW$T$19)
    2267                      .dwattr $C$DW$240, DW_AT_name("GPIO75")
    2268                      .dwattr $C$DW$240, DW_AT_TI_symbol_name("_GPIO75")
    2269                      .dwattr $C$DW$240, DW_AT_bit_offset(0x04), DW_AT_bit_size(0x01)
    2270                      .dwattr $C$DW$240, DW_AT_data_member_location[DW_OP_plus_uconst 0x0]
    2271                      .dwattr $C$DW$240, DW_AT_accessibility(DW_ACCESS_public)
    2272              $C$DW$241       .dwtag  DW_TAG_member
TMS320C2000 Assembler PC v6.2.7 Thu Jul 02 08:31:06 2015

Tools Copyright (c) 1996-2014 Texas Instruments Incorporated
C:\Users\Tester\AppData\Local\Temp\0465610                           PAGE   43

    2273                      .dwattr $C$DW$241, DW_AT_type(*$C$DW$T$19)
    2274                      .dwattr $C$DW$241, DW_AT_name("GPIO76")
    2275                      .dwattr $C$DW$241, DW_AT_TI_symbol_name("_GPIO76")
    2276                      .dwattr $C$DW$241, DW_AT_bit_offset(0x03), DW_AT_bit_size(0x01)
    2277                      .dwattr $C$DW$241, DW_AT_data_member_location[DW_OP_plus_uconst 0x0]
    2278                      .dwattr $C$DW$241, DW_AT_accessibility(DW_ACCESS_public)
    2279              $C$DW$242       .dwtag  DW_TAG_member
    2280                      .dwattr $C$DW$242, DW_AT_type(*$C$DW$T$19)
    2281                      .dwattr $C$DW$242, DW_AT_name("GPIO77")
    2282                      .dwattr $C$DW$242, DW_AT_TI_symbol_name("_GPIO77")
    2283                      .dwattr $C$DW$242, DW_AT_bit_offset(0x02), DW_AT_bit_size(0x01)
    2284                      .dwattr $C$DW$242, DW_AT_data_member_location[DW_OP_plus_uconst 0x0]
    2285                      .dwattr $C$DW$242, DW_AT_accessibility(DW_ACCESS_public)
    2286              $C$DW$243       .dwtag  DW_TAG_member
    2287                      .dwattr $C$DW$243, DW_AT_type(*$C$DW$T$19)
    2288                      .dwattr $C$DW$243, DW_AT_name("GPIO78")
    2289                      .dwattr $C$DW$243, DW_AT_TI_symbol_name("_GPIO78")
    2290                      .dwattr $C$DW$243, DW_AT_bit_offset(0x01), DW_AT_bit_size(0x01)
    2291                      .dwattr $C$DW$243, DW_AT_data_member_location[DW_OP_plus_uconst 0x0]
    2292                      .dwattr $C$DW$243, DW_AT_accessibility(DW_ACCESS_public)
    2293              $C$DW$244       .dwtag  DW_TAG_member
    2294                      .dwattr $C$DW$244, DW_AT_type(*$C$DW$T$19)
    2295                      .dwattr $C$DW$244, DW_AT_name("GPIO79")
    2296                      .dwattr $C$DW$244, DW_AT_TI_symbol_name("_GPIO79")
    2297                      .dwattr $C$DW$244, DW_AT_bit_offset(0x00), DW_AT_bit_size(0x01)
    2298                      .dwattr $C$DW$244, DW_AT_data_member_location[DW_OP_plus_uconst 0x0]
    2299                      .dwattr $C$DW$244, DW_AT_accessibility(DW_ACCESS_public)
    2300              $C$DW$245       .dwtag  DW_TAG_member
    2301                      .dwattr $C$DW$245, DW_AT_type(*$C$DW$T$19)
    2302                      .dwattr $C$DW$245, DW_AT_name("GPIO80")
    2303                      .dwattr $C$DW$245, DW_AT_TI_symbol_name("_GPIO80")
    2304                      .dwattr $C$DW$245, DW_AT_bit_offset(0x0f), DW_AT_bit_size(0x01)
    2305                      .dwattr $C$DW$245, DW_AT_data_member_location[DW_OP_plus_uconst 0x1]
    2306                      .dwattr $C$DW$245, DW_AT_accessibility(DW_ACCESS_public)
    2307              $C$DW$246       .dwtag  DW_TAG_member
    2308                      .dwattr $C$DW$246, DW_AT_type(*$C$DW$T$19)
    2309                      .dwattr $C$DW$246, DW_AT_name("GPIO81")
    2310                      .dwattr $C$DW$246, DW_AT_TI_symbol_name("_GPIO81")
    2311                      .dwattr $C$DW$246, DW_AT_bit_offset(0x0e), DW_AT_bit_size(0x01)
    2312                      .dwattr $C$DW$246, DW_AT_data_member_location[DW_OP_plus_uconst 0x1]
    2313                      .dwattr $C$DW$246, DW_AT_accessibility(DW_ACCESS_public)
    2314              $C$DW$247       .dwtag  DW_TAG_member
    2315                      .dwattr $C$DW$247, DW_AT_type(*$C$DW$T$19)
    2316                      .dwattr $C$DW$247, DW_AT_name("GPIO82")
    2317                      .dwattr $C$DW$247, DW_AT_TI_symbol_name("_GPIO82")
    2318                      .dwattr $C$DW$247, DW_AT_bit_offset(0x0d), DW_AT_bit_size(0x01)
    2319                      .dwattr $C$DW$247, DW_AT_data_member_location[DW_OP_plus_uconst 0x1]
    2320                      .dwattr $C$DW$247, DW_AT_accessibility(DW_ACCESS_public)
    2321              $C$DW$248       .dwtag  DW_TAG_member
    2322                      .dwattr $C$DW$248, DW_AT_type(*$C$DW$T$19)
    2323                      .dwattr $C$DW$248, DW_AT_name("GPIO83")
    2324                      .dwattr $C$DW$248, DW_AT_TI_symbol_name("_GPIO83")
    2325                      .dwattr $C$DW$248, DW_AT_bit_offset(0x0c), DW_AT_bit_size(0x01)
    2326                      .dwattr $C$DW$248, DW_AT_data_member_location[DW_OP_plus_uconst 0x1]
    2327                      .dwattr $C$DW$248, DW_AT_accessibility(DW_ACCESS_public)
TMS320C2000 Assembler PC v6.2.7 Thu Jul 02 08:31:06 2015

Tools Copyright (c) 1996-2014 Texas Instruments Incorporated
C:\Users\Tester\AppData\Local\Temp\0465610                           PAGE   44

    2328              $C$DW$249       .dwtag  DW_TAG_member
    2329                      .dwattr $C$DW$249, DW_AT_type(*$C$DW$T$19)
    2330                      .dwattr $C$DW$249, DW_AT_name("GPIO84")
    2331                      .dwattr $C$DW$249, DW_AT_TI_symbol_name("_GPIO84")
    2332                      .dwattr $C$DW$249, DW_AT_bit_offset(0x0b), DW_AT_bit_size(0x01)
    2333                      .dwattr $C$DW$249, DW_AT_data_member_location[DW_OP_plus_uconst 0x1]
    2334                      .dwattr $C$DW$249, DW_AT_accessibility(DW_ACCESS_public)
    2335              $C$DW$250       .dwtag  DW_TAG_member
    2336                      .dwattr $C$DW$250, DW_AT_type(*$C$DW$T$19)
    2337                      .dwattr $C$DW$250, DW_AT_name("GPIO85")
    2338                      .dwattr $C$DW$250, DW_AT_TI_symbol_name("_GPIO85")
    2339                      .dwattr $C$DW$250, DW_AT_bit_offset(0x0a), DW_AT_bit_size(0x01)
    2340                      .dwattr $C$DW$250, DW_AT_data_member_location[DW_OP_plus_uconst 0x1]
    2341                      .dwattr $C$DW$250, DW_AT_accessibility(DW_ACCESS_public)
    2342              $C$DW$251       .dwtag  DW_TAG_member
    2343                      .dwattr $C$DW$251, DW_AT_type(*$C$DW$T$19)
    2344                      .dwattr $C$DW$251, DW_AT_name("GPIO86")
    2345                      .dwattr $C$DW$251, DW_AT_TI_symbol_name("_GPIO86")
    2346                      .dwattr $C$DW$251, DW_AT_bit_offset(0x09), DW_AT_bit_size(0x01)
    2347                      .dwattr $C$DW$251, DW_AT_data_member_location[DW_OP_plus_uconst 0x1]
    2348                      .dwattr $C$DW$251, DW_AT_accessibility(DW_ACCESS_public)
    2349              $C$DW$252       .dwtag  DW_TAG_member
    2350                      .dwattr $C$DW$252, DW_AT_type(*$C$DW$T$19)
    2351                      .dwattr $C$DW$252, DW_AT_name("GPIO87")
    2352                      .dwattr $C$DW$252, DW_AT_TI_symbol_name("_GPIO87")
    2353                      .dwattr $C$DW$252, DW_AT_bit_offset(0x08), DW_AT_bit_size(0x01)
    2354                      .dwattr $C$DW$252, DW_AT_data_member_location[DW_OP_plus_uconst 0x1]
    2355                      .dwattr $C$DW$252, DW_AT_accessibility(DW_ACCESS_public)
    2356              $C$DW$253       .dwtag  DW_TAG_member
    2357                      .dwattr $C$DW$253, DW_AT_type(*$C$DW$T$19)
    2358                      .dwattr $C$DW$253, DW_AT_name("rsvd1")
    2359                      .dwattr $C$DW$253, DW_AT_TI_symbol_name("_rsvd1")
    2360                      .dwattr $C$DW$253, DW_AT_bit_offset(0x00), DW_AT_bit_size(0x08)
    2361                      .dwattr $C$DW$253, DW_AT_data_member_location[DW_OP_plus_uconst 0x1]
    2362                      .dwattr $C$DW$253, DW_AT_accessibility(DW_ACCESS_public)
    2363                      .dwendtag $C$DW$T$41
    2364              
    2365              
    2366              $C$DW$T$42      .dwtag  DW_TAG_union_type
    2367                      .dwattr $C$DW$T$42, DW_AT_name("GPCDAT_REG")
    2368                      .dwattr $C$DW$T$42, DW_AT_byte_size(0x02)
    2369              $C$DW$254       .dwtag  DW_TAG_member
    2370                      .dwattr $C$DW$254, DW_AT_type(*$C$DW$T$21)
    2371                      .dwattr $C$DW$254, DW_AT_name("all")
    2372                      .dwattr $C$DW$254, DW_AT_TI_symbol_name("_all")
    2373                      .dwattr $C$DW$254, DW_AT_data_member_location[DW_OP_plus_uconst 0x0]
    2374                      .dwattr $C$DW$254, DW_AT_accessibility(DW_ACCESS_public)
    2375              $C$DW$255       .dwtag  DW_TAG_member
    2376                      .dwattr $C$DW$255, DW_AT_type(*$C$DW$T$41)
    2377                      .dwattr $C$DW$255, DW_AT_name("bit")
    2378                      .dwattr $C$DW$255, DW_AT_TI_symbol_name("_bit")
    2379                      .dwattr $C$DW$255, DW_AT_data_member_location[DW_OP_plus_uconst 0x0]
    2380                      .dwattr $C$DW$255, DW_AT_accessibility(DW_ACCESS_public)
    2381                      .dwendtag $C$DW$T$42
    2382              
TMS320C2000 Assembler PC v6.2.7 Thu Jul 02 08:31:06 2015

Tools Copyright (c) 1996-2014 Texas Instruments Incorporated
C:\Users\Tester\AppData\Local\Temp\0465610                           PAGE   45

    2383              
    2384              $C$DW$T$44      .dwtag  DW_TAG_structure_type
    2385                      .dwattr $C$DW$T$44, DW_AT_name("GPIO_CTRL_REGS")
    2386                      .dwattr $C$DW$T$44, DW_AT_byte_size(0x2e)
    2387              $C$DW$256       .dwtag  DW_TAG_member
    2388                      .dwattr $C$DW$256, DW_AT_type(*$C$DW$T$26)
    2389                      .dwattr $C$DW$256, DW_AT_name("GPACTRL")
    2390                      .dwattr $C$DW$256, DW_AT_TI_symbol_name("_GPACTRL")
    2391                      .dwattr $C$DW$256, DW_AT_data_member_location[DW_OP_plus_uconst 0x0]
    2392                      .dwattr $C$DW$256, DW_AT_accessibility(DW_ACCESS_public)
    2393              $C$DW$257       .dwtag  DW_TAG_member
    2394                      .dwattr $C$DW$257, DW_AT_type(*$C$DW$T$22)
    2395                      .dwattr $C$DW$257, DW_AT_name("GPAQSEL1")
    2396                      .dwattr $C$DW$257, DW_AT_TI_symbol_name("_GPAQSEL1")
    2397                      .dwattr $C$DW$257, DW_AT_data_member_location[DW_OP_plus_uconst 0x2]
    2398                      .dwattr $C$DW$257, DW_AT_accessibility(DW_ACCESS_public)
    2399              $C$DW$258       .dwtag  DW_TAG_member
    2400                      .dwattr $C$DW$258, DW_AT_type(*$C$DW$T$24)
    2401                      .dwattr $C$DW$258, DW_AT_name("GPAQSEL2")
    2402                      .dwattr $C$DW$258, DW_AT_TI_symbol_name("_GPAQSEL2")
    2403                      .dwattr $C$DW$258, DW_AT_data_member_location[DW_OP_plus_uconst 0x4]
    2404                      .dwattr $C$DW$258, DW_AT_accessibility(DW_ACCESS_public)
    2405              $C$DW$259       .dwtag  DW_TAG_member
    2406                      .dwattr $C$DW$259, DW_AT_type(*$C$DW$T$22)
    2407                      .dwattr $C$DW$259, DW_AT_name("GPAMUX1")
    2408                      .dwattr $C$DW$259, DW_AT_TI_symbol_name("_GPAMUX1")
    2409                      .dwattr $C$DW$259, DW_AT_data_member_location[DW_OP_plus_uconst 0x6]
    2410                      .dwattr $C$DW$259, DW_AT_accessibility(DW_ACCESS_public)
    2411              $C$DW$260       .dwtag  DW_TAG_member
    2412                      .dwattr $C$DW$260, DW_AT_type(*$C$DW$T$24)
    2413                      .dwattr $C$DW$260, DW_AT_name("GPAMUX2")
    2414                      .dwattr $C$DW$260, DW_AT_TI_symbol_name("_GPAMUX2")
    2415                      .dwattr $C$DW$260, DW_AT_data_member_location[DW_OP_plus_uconst 0x8]
    2416                      .dwattr $C$DW$260, DW_AT_accessibility(DW_ACCESS_public)
    2417              $C$DW$261       .dwtag  DW_TAG_member
    2418                      .dwattr $C$DW$261, DW_AT_type(*$C$DW$T$28)
    2419                      .dwattr $C$DW$261, DW_AT_name("GPADIR")
    2420                      .dwattr $C$DW$261, DW_AT_TI_symbol_name("_GPADIR")
    2421                      .dwattr $C$DW$261, DW_AT_data_member_location[DW_OP_plus_uconst 0xa]
    2422                      .dwattr $C$DW$261, DW_AT_accessibility(DW_ACCESS_public)
    2423              $C$DW$262       .dwtag  DW_TAG_member
    2424                      .dwattr $C$DW$262, DW_AT_type(*$C$DW$T$28)
    2425                      .dwattr $C$DW$262, DW_AT_name("GPAPUD")
    2426                      .dwattr $C$DW$262, DW_AT_TI_symbol_name("_GPAPUD")
    2427                      .dwattr $C$DW$262, DW_AT_data_member_location[DW_OP_plus_uconst 0xc]
    2428                      .dwattr $C$DW$262, DW_AT_accessibility(DW_ACCESS_public)
    2429              $C$DW$263       .dwtag  DW_TAG_member
    2430                      .dwattr $C$DW$263, DW_AT_type(*$C$DW$T$21)
    2431                      .dwattr $C$DW$263, DW_AT_name("rsvd1")
    2432                      .dwattr $C$DW$263, DW_AT_TI_symbol_name("_rsvd1")
    2433                      .dwattr $C$DW$263, DW_AT_data_member_location[DW_OP_plus_uconst 0xe]
    2434                      .dwattr $C$DW$263, DW_AT_accessibility(DW_ACCESS_public)
    2435              $C$DW$264       .dwtag  DW_TAG_member
    2436                      .dwattr $C$DW$264, DW_AT_type(*$C$DW$T$34)
    2437                      .dwattr $C$DW$264, DW_AT_name("GPBCTRL")
TMS320C2000 Assembler PC v6.2.7 Thu Jul 02 08:31:06 2015

Tools Copyright (c) 1996-2014 Texas Instruments Incorporated
C:\Users\Tester\AppData\Local\Temp\0465610                           PAGE   46

    2438                      .dwattr $C$DW$264, DW_AT_TI_symbol_name("_GPBCTRL")
    2439                      .dwattr $C$DW$264, DW_AT_data_member_location[DW_OP_plus_uconst 0x10]
    2440                      .dwattr $C$DW$264, DW_AT_accessibility(DW_ACCESS_public)
    2441              $C$DW$265       .dwtag  DW_TAG_member
    2442                      .dwattr $C$DW$265, DW_AT_type(*$C$DW$T$30)
    2443                      .dwattr $C$DW$265, DW_AT_name("GPBQSEL1")
    2444                      .dwattr $C$DW$265, DW_AT_TI_symbol_name("_GPBQSEL1")
    2445                      .dwattr $C$DW$265, DW_AT_data_member_location[DW_OP_plus_uconst 0x12]
    2446                      .dwattr $C$DW$265, DW_AT_accessibility(DW_ACCESS_public)
    2447              $C$DW$266       .dwtag  DW_TAG_member
    2448                      .dwattr $C$DW$266, DW_AT_type(*$C$DW$T$32)
    2449                      .dwattr $C$DW$266, DW_AT_name("GPBQSEL2")
    2450                      .dwattr $C$DW$266, DW_AT_TI_symbol_name("_GPBQSEL2")
    2451                      .dwattr $C$DW$266, DW_AT_data_member_location[DW_OP_plus_uconst 0x14]
    2452                      .dwattr $C$DW$266, DW_AT_accessibility(DW_ACCESS_public)
    2453              $C$DW$267       .dwtag  DW_TAG_member
    2454                      .dwattr $C$DW$267, DW_AT_type(*$C$DW$T$30)
    2455                      .dwattr $C$DW$267, DW_AT_name("GPBMUX1")
    2456                      .dwattr $C$DW$267, DW_AT_TI_symbol_name("_GPBMUX1")
    2457                      .dwattr $C$DW$267, DW_AT_data_member_location[DW_OP_plus_uconst 0x16]
    2458                      .dwattr $C$DW$267, DW_AT_accessibility(DW_ACCESS_public)
    2459              $C$DW$268       .dwtag  DW_TAG_member
    2460                      .dwattr $C$DW$268, DW_AT_type(*$C$DW$T$32)
    2461                      .dwattr $C$DW$268, DW_AT_name("GPBMUX2")
    2462                      .dwattr $C$DW$268, DW_AT_TI_symbol_name("_GPBMUX2")
    2463                      .dwattr $C$DW$268, DW_AT_data_member_location[DW_OP_plus_uconst 0x18]
    2464                      .dwattr $C$DW$268, DW_AT_accessibility(DW_ACCESS_public)
    2465              $C$DW$269       .dwtag  DW_TAG_member
    2466                      .dwattr $C$DW$269, DW_AT_type(*$C$DW$T$36)
    2467                      .dwattr $C$DW$269, DW_AT_name("GPBDIR")
    2468                      .dwattr $C$DW$269, DW_AT_TI_symbol_name("_GPBDIR")
    2469                      .dwattr $C$DW$269, DW_AT_data_member_location[DW_OP_plus_uconst 0x1a]
    2470                      .dwattr $C$DW$269, DW_AT_accessibility(DW_ACCESS_public)
    2471              $C$DW$270       .dwtag  DW_TAG_member
    2472                      .dwattr $C$DW$270, DW_AT_type(*$C$DW$T$36)
    2473                      .dwattr $C$DW$270, DW_AT_name("GPBPUD")
    2474                      .dwattr $C$DW$270, DW_AT_TI_symbol_name("_GPBPUD")
    2475                      .dwattr $C$DW$270, DW_AT_data_member_location[DW_OP_plus_uconst 0x1c]
    2476                      .dwattr $C$DW$270, DW_AT_accessibility(DW_ACCESS_public)
    2477              $C$DW$271       .dwtag  DW_TAG_member
    2478                      .dwattr $C$DW$271, DW_AT_type(*$C$DW$T$43)
    2479                      .dwattr $C$DW$271, DW_AT_name("rsvd2")
    2480                      .dwattr $C$DW$271, DW_AT_TI_symbol_name("_rsvd2")
    2481                      .dwattr $C$DW$271, DW_AT_data_member_location[DW_OP_plus_uconst 0x1e]
    2482                      .dwattr $C$DW$271, DW_AT_accessibility(DW_ACCESS_public)
    2483              $C$DW$272       .dwtag  DW_TAG_member
    2484                      .dwattr $C$DW$272, DW_AT_type(*$C$DW$T$38)
    2485                      .dwattr $C$DW$272, DW_AT_name("GPCMUX1")
    2486                      .dwattr $C$DW$272, DW_AT_TI_symbol_name("_GPCMUX1")
    2487                      .dwattr $C$DW$272, DW_AT_data_member_location[DW_OP_plus_uconst 0x26]
    2488                      .dwattr $C$DW$272, DW_AT_accessibility(DW_ACCESS_public)
    2489              $C$DW$273       .dwtag  DW_TAG_member
    2490                      .dwattr $C$DW$273, DW_AT_type(*$C$DW$T$40)
    2491                      .dwattr $C$DW$273, DW_AT_name("GPCMUX2")
    2492                      .dwattr $C$DW$273, DW_AT_TI_symbol_name("_GPCMUX2")
TMS320C2000 Assembler PC v6.2.7 Thu Jul 02 08:31:06 2015

Tools Copyright (c) 1996-2014 Texas Instruments Incorporated
C:\Users\Tester\AppData\Local\Temp\0465610                           PAGE   47

    2493                      .dwattr $C$DW$273, DW_AT_data_member_location[DW_OP_plus_uconst 0x28]
    2494                      .dwattr $C$DW$273, DW_AT_accessibility(DW_ACCESS_public)
    2495              $C$DW$274       .dwtag  DW_TAG_member
    2496                      .dwattr $C$DW$274, DW_AT_type(*$C$DW$T$42)
    2497                      .dwattr $C$DW$274, DW_AT_name("GPCDIR")
    2498                      .dwattr $C$DW$274, DW_AT_TI_symbol_name("_GPCDIR")
    2499                      .dwattr $C$DW$274, DW_AT_data_member_location[DW_OP_plus_uconst 0x2a]
    2500                      .dwattr $C$DW$274, DW_AT_accessibility(DW_ACCESS_public)
    2501              $C$DW$275       .dwtag  DW_TAG_member
    2502                      .dwattr $C$DW$275, DW_AT_type(*$C$DW$T$42)
    2503                      .dwattr $C$DW$275, DW_AT_name("GPCPUD")
    2504                      .dwattr $C$DW$275, DW_AT_TI_symbol_name("_GPCPUD")
    2505                      .dwattr $C$DW$275, DW_AT_data_member_location[DW_OP_plus_uconst 0x2c]
    2506                      .dwattr $C$DW$275, DW_AT_accessibility(DW_ACCESS_public)
    2507                      .dwendtag $C$DW$T$44
    2508              
    2509              $C$DW$276       .dwtag  DW_TAG_TI_far_type
    2510                      .dwattr $C$DW$276, DW_AT_type(*$C$DW$T$44)
    2511              $C$DW$T$65      .dwtag  DW_TAG_volatile_type
    2512                      .dwattr $C$DW$T$65, DW_AT_type(*$C$DW$276)
    2513              
    2514              $C$DW$T$45      .dwtag  DW_TAG_structure_type
    2515                      .dwattr $C$DW$T$45, DW_AT_name("I2CFFRX_BITS")
    2516                      .dwattr $C$DW$T$45, DW_AT_byte_size(0x01)
    2517              $C$DW$277       .dwtag  DW_TAG_member
    2518                      .dwattr $C$DW$277, DW_AT_type(*$C$DW$T$19)
    2519                      .dwattr $C$DW$277, DW_AT_name("RXFFIL")
    2520                      .dwattr $C$DW$277, DW_AT_TI_symbol_name("_RXFFIL")
    2521                      .dwattr $C$DW$277, DW_AT_bit_offset(0x0b), DW_AT_bit_size(0x05)
    2522                      .dwattr $C$DW$277, DW_AT_data_member_location[DW_OP_plus_uconst 0x0]
    2523                      .dwattr $C$DW$277, DW_AT_accessibility(DW_ACCESS_public)
    2524              $C$DW$278       .dwtag  DW_TAG_member
    2525                      .dwattr $C$DW$278, DW_AT_type(*$C$DW$T$19)
    2526                      .dwattr $C$DW$278, DW_AT_name("RXFFIENA")
    2527                      .dwattr $C$DW$278, DW_AT_TI_symbol_name("_RXFFIENA")
    2528                      .dwattr $C$DW$278, DW_AT_bit_offset(0x0a), DW_AT_bit_size(0x01)
    2529                      .dwattr $C$DW$278, DW_AT_data_member_location[DW_OP_plus_uconst 0x0]
    2530                      .dwattr $C$DW$278, DW_AT_accessibility(DW_ACCESS_public)
    2531              $C$DW$279       .dwtag  DW_TAG_member
    2532                      .dwattr $C$DW$279, DW_AT_type(*$C$DW$T$19)
    2533                      .dwattr $C$DW$279, DW_AT_name("RXFFINTCLR")
    2534                      .dwattr $C$DW$279, DW_AT_TI_symbol_name("_RXFFINTCLR")
    2535                      .dwattr $C$DW$279, DW_AT_bit_offset(0x09), DW_AT_bit_size(0x01)
    2536                      .dwattr $C$DW$279, DW_AT_data_member_location[DW_OP_plus_uconst 0x0]
    2537                      .dwattr $C$DW$279, DW_AT_accessibility(DW_ACCESS_public)
    2538              $C$DW$280       .dwtag  DW_TAG_member
    2539                      .dwattr $C$DW$280, DW_AT_type(*$C$DW$T$19)
    2540                      .dwattr $C$DW$280, DW_AT_name("RXFFINT")
    2541                      .dwattr $C$DW$280, DW_AT_TI_symbol_name("_RXFFINT")
    2542                      .dwattr $C$DW$280, DW_AT_bit_offset(0x08), DW_AT_bit_size(0x01)
    2543                      .dwattr $C$DW$280, DW_AT_data_member_location[DW_OP_plus_uconst 0x0]
    2544                      .dwattr $C$DW$280, DW_AT_accessibility(DW_ACCESS_public)
    2545              $C$DW$281       .dwtag  DW_TAG_member
    2546                      .dwattr $C$DW$281, DW_AT_type(*$C$DW$T$19)
    2547                      .dwattr $C$DW$281, DW_AT_name("RXFFST")
TMS320C2000 Assembler PC v6.2.7 Thu Jul 02 08:31:06 2015

Tools Copyright (c) 1996-2014 Texas Instruments Incorporated
C:\Users\Tester\AppData\Local\Temp\0465610                           PAGE   48

    2548                      .dwattr $C$DW$281, DW_AT_TI_symbol_name("_RXFFST")
    2549                      .dwattr $C$DW$281, DW_AT_bit_offset(0x03), DW_AT_bit_size(0x05)
    2550                      .dwattr $C$DW$281, DW_AT_data_member_location[DW_OP_plus_uconst 0x0]
    2551                      .dwattr $C$DW$281, DW_AT_accessibility(DW_ACCESS_public)
    2552              $C$DW$282       .dwtag  DW_TAG_member
    2553                      .dwattr $C$DW$282, DW_AT_type(*$C$DW$T$19)
    2554                      .dwattr $C$DW$282, DW_AT_name("RXFFRST")
    2555                      .dwattr $C$DW$282, DW_AT_TI_symbol_name("_RXFFRST")
    2556                      .dwattr $C$DW$282, DW_AT_bit_offset(0x02), DW_AT_bit_size(0x01)
    2557                      .dwattr $C$DW$282, DW_AT_data_member_location[DW_OP_plus_uconst 0x0]
    2558                      .dwattr $C$DW$282, DW_AT_accessibility(DW_ACCESS_public)
    2559              $C$DW$283       .dwtag  DW_TAG_member
    2560                      .dwattr $C$DW$283, DW_AT_type(*$C$DW$T$19)
    2561                      .dwattr $C$DW$283, DW_AT_name("rsvd1")
    2562                      .dwattr $C$DW$283, DW_AT_TI_symbol_name("_rsvd1")
    2563                      .dwattr $C$DW$283, DW_AT_bit_offset(0x00), DW_AT_bit_size(0x02)
    2564                      .dwattr $C$DW$283, DW_AT_data_member_location[DW_OP_plus_uconst 0x0]
    2565                      .dwattr $C$DW$283, DW_AT_accessibility(DW_ACCESS_public)
    2566                      .dwendtag $C$DW$T$45
    2567              
    2568              
    2569              $C$DW$T$46      .dwtag  DW_TAG_union_type
    2570                      .dwattr $C$DW$T$46, DW_AT_name("I2CFFRX_REG")
    2571                      .dwattr $C$DW$T$46, DW_AT_byte_size(0x01)
    2572              $C$DW$284       .dwtag  DW_TAG_member
    2573                      .dwattr $C$DW$284, DW_AT_type(*$C$DW$T$19)
    2574                      .dwattr $C$DW$284, DW_AT_name("all")
    2575                      .dwattr $C$DW$284, DW_AT_TI_symbol_name("_all")
    2576                      .dwattr $C$DW$284, DW_AT_data_member_location[DW_OP_plus_uconst 0x0]
    2577                      .dwattr $C$DW$284, DW_AT_accessibility(DW_ACCESS_public)
    2578              $C$DW$285       .dwtag  DW_TAG_member
    2579                      .dwattr $C$DW$285, DW_AT_type(*$C$DW$T$45)
    2580                      .dwattr $C$DW$285, DW_AT_name("bit")
    2581                      .dwattr $C$DW$285, DW_AT_TI_symbol_name("_bit")
    2582                      .dwattr $C$DW$285, DW_AT_data_member_location[DW_OP_plus_uconst 0x0]
    2583                      .dwattr $C$DW$285, DW_AT_accessibility(DW_ACCESS_public)
    2584                      .dwendtag $C$DW$T$46
    2585              
    2586              
    2587              $C$DW$T$47      .dwtag  DW_TAG_structure_type
    2588                      .dwattr $C$DW$T$47, DW_AT_name("I2CFFTX_BITS")
    2589                      .dwattr $C$DW$T$47, DW_AT_byte_size(0x01)
    2590              $C$DW$286       .dwtag  DW_TAG_member
    2591                      .dwattr $C$DW$286, DW_AT_type(*$C$DW$T$19)
    2592                      .dwattr $C$DW$286, DW_AT_name("TXFFIL")
    2593                      .dwattr $C$DW$286, DW_AT_TI_symbol_name("_TXFFIL")
    2594                      .dwattr $C$DW$286, DW_AT_bit_offset(0x0b), DW_AT_bit_size(0x05)
    2595                      .dwattr $C$DW$286, DW_AT_data_member_location[DW_OP_plus_uconst 0x0]
    2596                      .dwattr $C$DW$286, DW_AT_accessibility(DW_ACCESS_public)
    2597              $C$DW$287       .dwtag  DW_TAG_member
    2598                      .dwattr $C$DW$287, DW_AT_type(*$C$DW$T$19)
    2599                      .dwattr $C$DW$287, DW_AT_name("TXFFIENA")
    2600                      .dwattr $C$DW$287, DW_AT_TI_symbol_name("_TXFFIENA")
    2601                      .dwattr $C$DW$287, DW_AT_bit_offset(0x0a), DW_AT_bit_size(0x01)
    2602                      .dwattr $C$DW$287, DW_AT_data_member_location[DW_OP_plus_uconst 0x0]
TMS320C2000 Assembler PC v6.2.7 Thu Jul 02 08:31:06 2015

Tools Copyright (c) 1996-2014 Texas Instruments Incorporated
C:\Users\Tester\AppData\Local\Temp\0465610                           PAGE   49

    2603                      .dwattr $C$DW$287, DW_AT_accessibility(DW_ACCESS_public)
    2604              $C$DW$288       .dwtag  DW_TAG_member
    2605                      .dwattr $C$DW$288, DW_AT_type(*$C$DW$T$19)
    2606                      .dwattr $C$DW$288, DW_AT_name("TXFFINTCLR")
    2607                      .dwattr $C$DW$288, DW_AT_TI_symbol_name("_TXFFINTCLR")
    2608                      .dwattr $C$DW$288, DW_AT_bit_offset(0x09), DW_AT_bit_size(0x01)
    2609                      .dwattr $C$DW$288, DW_AT_data_member_location[DW_OP_plus_uconst 0x0]
    2610                      .dwattr $C$DW$288, DW_AT_accessibility(DW_ACCESS_public)
    2611              $C$DW$289       .dwtag  DW_TAG_member
    2612                      .dwattr $C$DW$289, DW_AT_type(*$C$DW$T$19)
    2613                      .dwattr $C$DW$289, DW_AT_name("TXFFINT")
    2614                      .dwattr $C$DW$289, DW_AT_TI_symbol_name("_TXFFINT")
    2615                      .dwattr $C$DW$289, DW_AT_bit_offset(0x08), DW_AT_bit_size(0x01)
    2616                      .dwattr $C$DW$289, DW_AT_data_member_location[DW_OP_plus_uconst 0x0]
    2617                      .dwattr $C$DW$289, DW_AT_accessibility(DW_ACCESS_public)
    2618              $C$DW$290       .dwtag  DW_TAG_member
    2619                      .dwattr $C$DW$290, DW_AT_type(*$C$DW$T$19)
    2620                      .dwattr $C$DW$290, DW_AT_name("TXFFST")
    2621                      .dwattr $C$DW$290, DW_AT_TI_symbol_name("_TXFFST")
    2622                      .dwattr $C$DW$290, DW_AT_bit_offset(0x03), DW_AT_bit_size(0x05)
    2623                      .dwattr $C$DW$290, DW_AT_data_member_location[DW_OP_plus_uconst 0x0]
    2624                      .dwattr $C$DW$290, DW_AT_accessibility(DW_ACCESS_public)
    2625              $C$DW$291       .dwtag  DW_TAG_member
    2626                      .dwattr $C$DW$291, DW_AT_type(*$C$DW$T$19)
    2627                      .dwattr $C$DW$291, DW_AT_name("TXFFRST")
    2628                      .dwattr $C$DW$291, DW_AT_TI_symbol_name("_TXFFRST")
    2629                      .dwattr $C$DW$291, DW_AT_bit_offset(0x02), DW_AT_bit_size(0x01)
    2630                      .dwattr $C$DW$291, DW_AT_data_member_location[DW_OP_plus_uconst 0x0]
    2631                      .dwattr $C$DW$291, DW_AT_accessibility(DW_ACCESS_public)
    2632              $C$DW$292       .dwtag  DW_TAG_member
    2633                      .dwattr $C$DW$292, DW_AT_type(*$C$DW$T$19)
    2634                      .dwattr $C$DW$292, DW_AT_name("I2CFFEN")
    2635                      .dwattr $C$DW$292, DW_AT_TI_symbol_name("_I2CFFEN")
    2636                      .dwattr $C$DW$292, DW_AT_bit_offset(0x01), DW_AT_bit_size(0x01)
    2637                      .dwattr $C$DW$292, DW_AT_data_member_location[DW_OP_plus_uconst 0x0]
    2638                      .dwattr $C$DW$292, DW_AT_accessibility(DW_ACCESS_public)
    2639              $C$DW$293       .dwtag  DW_TAG_member
    2640                      .dwattr $C$DW$293, DW_AT_type(*$C$DW$T$19)
    2641                      .dwattr $C$DW$293, DW_AT_name("rsvd1")
    2642                      .dwattr $C$DW$293, DW_AT_TI_symbol_name("_rsvd1")
    2643                      .dwattr $C$DW$293, DW_AT_bit_offset(0x00), DW_AT_bit_size(0x01)
    2644                      .dwattr $C$DW$293, DW_AT_data_member_location[DW_OP_plus_uconst 0x0]
    2645                      .dwattr $C$DW$293, DW_AT_accessibility(DW_ACCESS_public)
    2646                      .dwendtag $C$DW$T$47
    2647              
    2648              
    2649              $C$DW$T$48      .dwtag  DW_TAG_union_type
    2650                      .dwattr $C$DW$T$48, DW_AT_name("I2CFFTX_REG")
    2651                      .dwattr $C$DW$T$48, DW_AT_byte_size(0x01)
    2652              $C$DW$294       .dwtag  DW_TAG_member
    2653                      .dwattr $C$DW$294, DW_AT_type(*$C$DW$T$19)
    2654                      .dwattr $C$DW$294, DW_AT_name("all")
    2655                      .dwattr $C$DW$294, DW_AT_TI_symbol_name("_all")
    2656                      .dwattr $C$DW$294, DW_AT_data_member_location[DW_OP_plus_uconst 0x0]
    2657                      .dwattr $C$DW$294, DW_AT_accessibility(DW_ACCESS_public)
TMS320C2000 Assembler PC v6.2.7 Thu Jul 02 08:31:06 2015

Tools Copyright (c) 1996-2014 Texas Instruments Incorporated
C:\Users\Tester\AppData\Local\Temp\0465610                           PAGE   50

    2658              $C$DW$295       .dwtag  DW_TAG_member
    2659                      .dwattr $C$DW$295, DW_AT_type(*$C$DW$T$47)
    2660                      .dwattr $C$DW$295, DW_AT_name("bit")
    2661                      .dwattr $C$DW$295, DW_AT_TI_symbol_name("_bit")
    2662                      .dwattr $C$DW$295, DW_AT_data_member_location[DW_OP_plus_uconst 0x0]
    2663                      .dwattr $C$DW$295, DW_AT_accessibility(DW_ACCESS_public)
    2664                      .dwendtag $C$DW$T$48
    2665              
    2666              
    2667              $C$DW$T$49      .dwtag  DW_TAG_structure_type
    2668                      .dwattr $C$DW$T$49, DW_AT_name("I2CIER_BITS")
    2669                      .dwattr $C$DW$T$49, DW_AT_byte_size(0x01)
    2670              $C$DW$296       .dwtag  DW_TAG_member
    2671                      .dwattr $C$DW$296, DW_AT_type(*$C$DW$T$19)
    2672                      .dwattr $C$DW$296, DW_AT_name("ARBL")
    2673                      .dwattr $C$DW$296, DW_AT_TI_symbol_name("_ARBL")
    2674                      .dwattr $C$DW$296, DW_AT_bit_offset(0x0f), DW_AT_bit_size(0x01)
    2675                      .dwattr $C$DW$296, DW_AT_data_member_location[DW_OP_plus_uconst 0x0]
    2676                      .dwattr $C$DW$296, DW_AT_accessibility(DW_ACCESS_public)
    2677              $C$DW$297       .dwtag  DW_TAG_member
    2678                      .dwattr $C$DW$297, DW_AT_type(*$C$DW$T$19)
    2679                      .dwattr $C$DW$297, DW_AT_name("NACK")
    2680                      .dwattr $C$DW$297, DW_AT_TI_symbol_name("_NACK")
    2681                      .dwattr $C$DW$297, DW_AT_bit_offset(0x0e), DW_AT_bit_size(0x01)
    2682                      .dwattr $C$DW$297, DW_AT_data_member_location[DW_OP_plus_uconst 0x0]
    2683                      .dwattr $C$DW$297, DW_AT_accessibility(DW_ACCESS_public)
    2684              $C$DW$298       .dwtag  DW_TAG_member
    2685                      .dwattr $C$DW$298, DW_AT_type(*$C$DW$T$19)
    2686                      .dwattr $C$DW$298, DW_AT_name("ARDY")
    2687                      .dwattr $C$DW$298, DW_AT_TI_symbol_name("_ARDY")
    2688                      .dwattr $C$DW$298, DW_AT_bit_offset(0x0d), DW_AT_bit_size(0x01)
    2689                      .dwattr $C$DW$298, DW_AT_data_member_location[DW_OP_plus_uconst 0x0]
    2690                      .dwattr $C$DW$298, DW_AT_accessibility(DW_ACCESS_public)
    2691              $C$DW$299       .dwtag  DW_TAG_member
    2692                      .dwattr $C$DW$299, DW_AT_type(*$C$DW$T$19)
    2693                      .dwattr $C$DW$299, DW_AT_name("RRDY")
    2694                      .dwattr $C$DW$299, DW_AT_TI_symbol_name("_RRDY")
    2695                      .dwattr $C$DW$299, DW_AT_bit_offset(0x0c), DW_AT_bit_size(0x01)
    2696                      .dwattr $C$DW$299, DW_AT_data_member_location[DW_OP_plus_uconst 0x0]
    2697                      .dwattr $C$DW$299, DW_AT_accessibility(DW_ACCESS_public)
    2698              $C$DW$300       .dwtag  DW_TAG_member
    2699                      .dwattr $C$DW$300, DW_AT_type(*$C$DW$T$19)
    2700                      .dwattr $C$DW$300, DW_AT_name("XRDY")
    2701                      .dwattr $C$DW$300, DW_AT_TI_symbol_name("_XRDY")
    2702                      .dwattr $C$DW$300, DW_AT_bit_offset(0x0b), DW_AT_bit_size(0x01)
    2703                      .dwattr $C$DW$300, DW_AT_data_member_location[DW_OP_plus_uconst 0x0]
    2704                      .dwattr $C$DW$300, DW_AT_accessibility(DW_ACCESS_public)
    2705              $C$DW$301       .dwtag  DW_TAG_member
    2706                      .dwattr $C$DW$301, DW_AT_type(*$C$DW$T$19)
    2707                      .dwattr $C$DW$301, DW_AT_name("SCD")
    2708                      .dwattr $C$DW$301, DW_AT_TI_symbol_name("_SCD")
    2709                      .dwattr $C$DW$301, DW_AT_bit_offset(0x0a), DW_AT_bit_size(0x01)
    2710                      .dwattr $C$DW$301, DW_AT_data_member_location[DW_OP_plus_uconst 0x0]
    2711                      .dwattr $C$DW$301, DW_AT_accessibility(DW_ACCESS_public)
    2712              $C$DW$302       .dwtag  DW_TAG_member
TMS320C2000 Assembler PC v6.2.7 Thu Jul 02 08:31:06 2015

Tools Copyright (c) 1996-2014 Texas Instruments Incorporated
C:\Users\Tester\AppData\Local\Temp\0465610                           PAGE   51

    2713                      .dwattr $C$DW$302, DW_AT_type(*$C$DW$T$19)
    2714                      .dwattr $C$DW$302, DW_AT_name("AAS")
    2715                      .dwattr $C$DW$302, DW_AT_TI_symbol_name("_AAS")
    2716                      .dwattr $C$DW$302, DW_AT_bit_offset(0x09), DW_AT_bit_size(0x01)
    2717                      .dwattr $C$DW$302, DW_AT_data_member_location[DW_OP_plus_uconst 0x0]
    2718                      .dwattr $C$DW$302, DW_AT_accessibility(DW_ACCESS_public)
    2719              $C$DW$303       .dwtag  DW_TAG_member
    2720                      .dwattr $C$DW$303, DW_AT_type(*$C$DW$T$19)
    2721                      .dwattr $C$DW$303, DW_AT_name("rsvd")
    2722                      .dwattr $C$DW$303, DW_AT_TI_symbol_name("_rsvd")
    2723                      .dwattr $C$DW$303, DW_AT_bit_offset(0x00), DW_AT_bit_size(0x09)
    2724                      .dwattr $C$DW$303, DW_AT_data_member_location[DW_OP_plus_uconst 0x0]
    2725                      .dwattr $C$DW$303, DW_AT_accessibility(DW_ACCESS_public)
    2726                      .dwendtag $C$DW$T$49
    2727              
    2728              
    2729              $C$DW$T$50      .dwtag  DW_TAG_union_type
    2730                      .dwattr $C$DW$T$50, DW_AT_name("I2CIER_REG")
    2731                      .dwattr $C$DW$T$50, DW_AT_byte_size(0x01)
    2732              $C$DW$304       .dwtag  DW_TAG_member
    2733                      .dwattr $C$DW$304, DW_AT_type(*$C$DW$T$19)
    2734                      .dwattr $C$DW$304, DW_AT_name("all")
    2735                      .dwattr $C$DW$304, DW_AT_TI_symbol_name("_all")
    2736                      .dwattr $C$DW$304, DW_AT_data_member_location[DW_OP_plus_uconst 0x0]
    2737                      .dwattr $C$DW$304, DW_AT_accessibility(DW_ACCESS_public)
    2738              $C$DW$305       .dwtag  DW_TAG_member
    2739                      .dwattr $C$DW$305, DW_AT_type(*$C$DW$T$49)
    2740                      .dwattr $C$DW$305, DW_AT_name("bit")
    2741                      .dwattr $C$DW$305, DW_AT_TI_symbol_name("_bit")
    2742                      .dwattr $C$DW$305, DW_AT_data_member_location[DW_OP_plus_uconst 0x0]
    2743                      .dwattr $C$DW$305, DW_AT_accessibility(DW_ACCESS_public)
    2744                      .dwendtag $C$DW$T$50
    2745              
    2746              
    2747              $C$DW$T$51      .dwtag  DW_TAG_structure_type
    2748                      .dwattr $C$DW$T$51, DW_AT_name("I2CISRC_BITS")
    2749                      .dwattr $C$DW$T$51, DW_AT_byte_size(0x01)
    2750              $C$DW$306       .dwtag  DW_TAG_member
    2751                      .dwattr $C$DW$306, DW_AT_type(*$C$DW$T$19)
    2752                      .dwattr $C$DW$306, DW_AT_name("INTCODE")
    2753                      .dwattr $C$DW$306, DW_AT_TI_symbol_name("_INTCODE")
    2754                      .dwattr $C$DW$306, DW_AT_bit_offset(0x0d), DW_AT_bit_size(0x03)
    2755                      .dwattr $C$DW$306, DW_AT_data_member_location[DW_OP_plus_uconst 0x0]
    2756                      .dwattr $C$DW$306, DW_AT_accessibility(DW_ACCESS_public)
    2757              $C$DW$307       .dwtag  DW_TAG_member
    2758                      .dwattr $C$DW$307, DW_AT_type(*$C$DW$T$19)
    2759                      .dwattr $C$DW$307, DW_AT_name("rsvd1")
    2760                      .dwattr $C$DW$307, DW_AT_TI_symbol_name("_rsvd1")
    2761                      .dwattr $C$DW$307, DW_AT_bit_offset(0x00), DW_AT_bit_size(0x0d)
    2762                      .dwattr $C$DW$307, DW_AT_data_member_location[DW_OP_plus_uconst 0x0]
    2763                      .dwattr $C$DW$307, DW_AT_accessibility(DW_ACCESS_public)
    2764                      .dwendtag $C$DW$T$51
    2765              
    2766              
    2767              $C$DW$T$52      .dwtag  DW_TAG_union_type
TMS320C2000 Assembler PC v6.2.7 Thu Jul 02 08:31:06 2015

Tools Copyright (c) 1996-2014 Texas Instruments Incorporated
C:\Users\Tester\AppData\Local\Temp\0465610                           PAGE   52

    2768                      .dwattr $C$DW$T$52, DW_AT_name("I2CISRC_REG")
    2769                      .dwattr $C$DW$T$52, DW_AT_byte_size(0x01)
    2770              $C$DW$308       .dwtag  DW_TAG_member
    2771                      .dwattr $C$DW$308, DW_AT_type(*$C$DW$T$19)
    2772                      .dwattr $C$DW$308, DW_AT_name("all")
    2773                      .dwattr $C$DW$308, DW_AT_TI_symbol_name("_all")
    2774                      .dwattr $C$DW$308, DW_AT_data_member_location[DW_OP_plus_uconst 0x0]
    2775                      .dwattr $C$DW$308, DW_AT_accessibility(DW_ACCESS_public)
    2776              $C$DW$309       .dwtag  DW_TAG_member
    2777                      .dwattr $C$DW$309, DW_AT_type(*$C$DW$T$51)
    2778                      .dwattr $C$DW$309, DW_AT_name("bit")
    2779                      .dwattr $C$DW$309, DW_AT_TI_symbol_name("_bit")
    2780                      .dwattr $C$DW$309, DW_AT_data_member_location[DW_OP_plus_uconst 0x0]
    2781                      .dwattr $C$DW$309, DW_AT_accessibility(DW_ACCESS_public)
    2782                      .dwendtag $C$DW$T$52
    2783              
    2784              
    2785              $C$DW$T$53      .dwtag  DW_TAG_structure_type
    2786                      .dwattr $C$DW$T$53, DW_AT_name("I2CMDR_BITS")
    2787                      .dwattr $C$DW$T$53, DW_AT_byte_size(0x01)
    2788              $C$DW$310       .dwtag  DW_TAG_member
    2789                      .dwattr $C$DW$310, DW_AT_type(*$C$DW$T$19)
    2790                      .dwattr $C$DW$310, DW_AT_name("BC")
    2791                      .dwattr $C$DW$310, DW_AT_TI_symbol_name("_BC")
    2792                      .dwattr $C$DW$310, DW_AT_bit_offset(0x0d), DW_AT_bit_size(0x03)
    2793                      .dwattr $C$DW$310, DW_AT_data_member_location[DW_OP_plus_uconst 0x0]
    2794                      .dwattr $C$DW$310, DW_AT_accessibility(DW_ACCESS_public)
    2795              $C$DW$311       .dwtag  DW_TAG_member
    2796                      .dwattr $C$DW$311, DW_AT_type(*$C$DW$T$19)
    2797                      .dwattr $C$DW$311, DW_AT_name("FDF")
    2798                      .dwattr $C$DW$311, DW_AT_TI_symbol_name("_FDF")
    2799                      .dwattr $C$DW$311, DW_AT_bit_offset(0x0c), DW_AT_bit_size(0x01)
    2800                      .dwattr $C$DW$311, DW_AT_data_member_location[DW_OP_plus_uconst 0x0]
    2801                      .dwattr $C$DW$311, DW_AT_accessibility(DW_ACCESS_public)
    2802              $C$DW$312       .dwtag  DW_TAG_member
    2803                      .dwattr $C$DW$312, DW_AT_type(*$C$DW$T$19)
    2804                      .dwattr $C$DW$312, DW_AT_name("STB")
    2805                      .dwattr $C$DW$312, DW_AT_TI_symbol_name("_STB")
    2806                      .dwattr $C$DW$312, DW_AT_bit_offset(0x0b), DW_AT_bit_size(0x01)
    2807                      .dwattr $C$DW$312, DW_AT_data_member_location[DW_OP_plus_uconst 0x0]
    2808                      .dwattr $C$DW$312, DW_AT_accessibility(DW_ACCESS_public)
    2809              $C$DW$313       .dwtag  DW_TAG_member
    2810                      .dwattr $C$DW$313, DW_AT_type(*$C$DW$T$19)
    2811                      .dwattr $C$DW$313, DW_AT_name("IRS")
    2812                      .dwattr $C$DW$313, DW_AT_TI_symbol_name("_IRS")
    2813                      .dwattr $C$DW$313, DW_AT_bit_offset(0x0a), DW_AT_bit_size(0x01)
    2814                      .dwattr $C$DW$313, DW_AT_data_member_location[DW_OP_plus_uconst 0x0]
    2815                      .dwattr $C$DW$313, DW_AT_accessibility(DW_ACCESS_public)
    2816              $C$DW$314       .dwtag  DW_TAG_member
    2817                      .dwattr $C$DW$314, DW_AT_type(*$C$DW$T$19)
    2818                      .dwattr $C$DW$314, DW_AT_name("DLB")
    2819                      .dwattr $C$DW$314, DW_AT_TI_symbol_name("_DLB")
    2820                      .dwattr $C$DW$314, DW_AT_bit_offset(0x09), DW_AT_bit_size(0x01)
    2821                      .dwattr $C$DW$314, DW_AT_data_member_location[DW_OP_plus_uconst 0x0]
    2822                      .dwattr $C$DW$314, DW_AT_accessibility(DW_ACCESS_public)
TMS320C2000 Assembler PC v6.2.7 Thu Jul 02 08:31:06 2015

Tools Copyright (c) 1996-2014 Texas Instruments Incorporated
C:\Users\Tester\AppData\Local\Temp\0465610                           PAGE   53

    2823              $C$DW$315       .dwtag  DW_TAG_member
    2824                      .dwattr $C$DW$315, DW_AT_type(*$C$DW$T$19)
    2825                      .dwattr $C$DW$315, DW_AT_name("RM")
    2826                      .dwattr $C$DW$315, DW_AT_TI_symbol_name("_RM")
    2827                      .dwattr $C$DW$315, DW_AT_bit_offset(0x08), DW_AT_bit_size(0x01)
    2828                      .dwattr $C$DW$315, DW_AT_data_member_location[DW_OP_plus_uconst 0x0]
    2829                      .dwattr $C$DW$315, DW_AT_accessibility(DW_ACCESS_public)
    2830              $C$DW$316       .dwtag  DW_TAG_member
    2831                      .dwattr $C$DW$316, DW_AT_type(*$C$DW$T$19)
    2832                      .dwattr $C$DW$316, DW_AT_name("XA")
    2833                      .dwattr $C$DW$316, DW_AT_TI_symbol_name("_XA")
    2834                      .dwattr $C$DW$316, DW_AT_bit_offset(0x07), DW_AT_bit_size(0x01)
    2835                      .dwattr $C$DW$316, DW_AT_data_member_location[DW_OP_plus_uconst 0x0]
    2836                      .dwattr $C$DW$316, DW_AT_accessibility(DW_ACCESS_public)
    2837              $C$DW$317       .dwtag  DW_TAG_member
    2838                      .dwattr $C$DW$317, DW_AT_type(*$C$DW$T$19)
    2839                      .dwattr $C$DW$317, DW_AT_name("TRX")
    2840                      .dwattr $C$DW$317, DW_AT_TI_symbol_name("_TRX")
    2841                      .dwattr $C$DW$317, DW_AT_bit_offset(0x06), DW_AT_bit_size(0x01)
    2842                      .dwattr $C$DW$317, DW_AT_data_member_location[DW_OP_plus_uconst 0x0]
    2843                      .dwattr $C$DW$317, DW_AT_accessibility(DW_ACCESS_public)
    2844              $C$DW$318       .dwtag  DW_TAG_member
    2845                      .dwattr $C$DW$318, DW_AT_type(*$C$DW$T$19)
    2846                      .dwattr $C$DW$318, DW_AT_name("MST")
    2847                      .dwattr $C$DW$318, DW_AT_TI_symbol_name("_MST")
    2848                      .dwattr $C$DW$318, DW_AT_bit_offset(0x05), DW_AT_bit_size(0x01)
    2849                      .dwattr $C$DW$318, DW_AT_data_member_location[DW_OP_plus_uconst 0x0]
    2850                      .dwattr $C$DW$318, DW_AT_accessibility(DW_ACCESS_public)
    2851              $C$DW$319       .dwtag  DW_TAG_member
    2852                      .dwattr $C$DW$319, DW_AT_type(*$C$DW$T$19)
    2853                      .dwattr $C$DW$319, DW_AT_name("STP")
    2854                      .dwattr $C$DW$319, DW_AT_TI_symbol_name("_STP")
    2855                      .dwattr $C$DW$319, DW_AT_bit_offset(0x04), DW_AT_bit_size(0x01)
    2856                      .dwattr $C$DW$319, DW_AT_data_member_location[DW_OP_plus_uconst 0x0]
    2857                      .dwattr $C$DW$319, DW_AT_accessibility(DW_ACCESS_public)
    2858              $C$DW$320       .dwtag  DW_TAG_member
    2859                      .dwattr $C$DW$320, DW_AT_type(*$C$DW$T$19)
    2860                      .dwattr $C$DW$320, DW_AT_name("rsvd1")
    2861                      .dwattr $C$DW$320, DW_AT_TI_symbol_name("_rsvd1")
    2862                      .dwattr $C$DW$320, DW_AT_bit_offset(0x03), DW_AT_bit_size(0x01)
    2863                      .dwattr $C$DW$320, DW_AT_data_member_location[DW_OP_plus_uconst 0x0]
    2864                      .dwattr $C$DW$320, DW_AT_accessibility(DW_ACCESS_public)
    2865              $C$DW$321       .dwtag  DW_TAG_member
    2866                      .dwattr $C$DW$321, DW_AT_type(*$C$DW$T$19)
    2867                      .dwattr $C$DW$321, DW_AT_name("STT")
    2868                      .dwattr $C$DW$321, DW_AT_TI_symbol_name("_STT")
    2869                      .dwattr $C$DW$321, DW_AT_bit_offset(0x02), DW_AT_bit_size(0x01)
    2870                      .dwattr $C$DW$321, DW_AT_data_member_location[DW_OP_plus_uconst 0x0]
    2871                      .dwattr $C$DW$321, DW_AT_accessibility(DW_ACCESS_public)
    2872              $C$DW$322       .dwtag  DW_TAG_member
    2873                      .dwattr $C$DW$322, DW_AT_type(*$C$DW$T$19)
    2874                      .dwattr $C$DW$322, DW_AT_name("FREE")
    2875                      .dwattr $C$DW$322, DW_AT_TI_symbol_name("_FREE")
    2876                      .dwattr $C$DW$322, DW_AT_bit_offset(0x01), DW_AT_bit_size(0x01)
    2877                      .dwattr $C$DW$322, DW_AT_data_member_location[DW_OP_plus_uconst 0x0]
TMS320C2000 Assembler PC v6.2.7 Thu Jul 02 08:31:06 2015

Tools Copyright (c) 1996-2014 Texas Instruments Incorporated
C:\Users\Tester\AppData\Local\Temp\0465610                           PAGE   54

    2878                      .dwattr $C$DW$322, DW_AT_accessibility(DW_ACCESS_public)
    2879              $C$DW$323       .dwtag  DW_TAG_member
    2880                      .dwattr $C$DW$323, DW_AT_type(*$C$DW$T$19)
    2881                      .dwattr $C$DW$323, DW_AT_name("NACKMOD")
    2882                      .dwattr $C$DW$323, DW_AT_TI_symbol_name("_NACKMOD")
    2883                      .dwattr $C$DW$323, DW_AT_bit_offset(0x00), DW_AT_bit_size(0x01)
    2884                      .dwattr $C$DW$323, DW_AT_data_member_location[DW_OP_plus_uconst 0x0]
    2885                      .dwattr $C$DW$323, DW_AT_accessibility(DW_ACCESS_public)
    2886                      .dwendtag $C$DW$T$53
    2887              
    2888              
    2889              $C$DW$T$54      .dwtag  DW_TAG_union_type
    2890                      .dwattr $C$DW$T$54, DW_AT_name("I2CMDR_REG")
    2891                      .dwattr $C$DW$T$54, DW_AT_byte_size(0x01)
    2892              $C$DW$324       .dwtag  DW_TAG_member
    2893                      .dwattr $C$DW$324, DW_AT_type(*$C$DW$T$19)
    2894                      .dwattr $C$DW$324, DW_AT_name("all")
    2895                      .dwattr $C$DW$324, DW_AT_TI_symbol_name("_all")
    2896                      .dwattr $C$DW$324, DW_AT_data_member_location[DW_OP_plus_uconst 0x0]
    2897                      .dwattr $C$DW$324, DW_AT_accessibility(DW_ACCESS_public)
    2898              $C$DW$325       .dwtag  DW_TAG_member
    2899                      .dwattr $C$DW$325, DW_AT_type(*$C$DW$T$53)
    2900                      .dwattr $C$DW$325, DW_AT_name("bit")
    2901                      .dwattr $C$DW$325, DW_AT_TI_symbol_name("_bit")
    2902                      .dwattr $C$DW$325, DW_AT_data_member_location[DW_OP_plus_uconst 0x0]
    2903                      .dwattr $C$DW$325, DW_AT_accessibility(DW_ACCESS_public)
    2904                      .dwendtag $C$DW$T$54
    2905              
    2906              
    2907              $C$DW$T$55      .dwtag  DW_TAG_structure_type
    2908                      .dwattr $C$DW$T$55, DW_AT_name("I2CPSC_BITS")
    2909                      .dwattr $C$DW$T$55, DW_AT_byte_size(0x01)
    2910              $C$DW$326       .dwtag  DW_TAG_member
    2911                      .dwattr $C$DW$326, DW_AT_type(*$C$DW$T$19)
    2912                      .dwattr $C$DW$326, DW_AT_name("IPSC")
    2913                      .dwattr $C$DW$326, DW_AT_TI_symbol_name("_IPSC")
    2914                      .dwattr $C$DW$326, DW_AT_bit_offset(0x08), DW_AT_bit_size(0x08)
    2915                      .dwattr $C$DW$326, DW_AT_data_member_location[DW_OP_plus_uconst 0x0]
    2916                      .dwattr $C$DW$326, DW_AT_accessibility(DW_ACCESS_public)
    2917              $C$DW$327       .dwtag  DW_TAG_member
    2918                      .dwattr $C$DW$327, DW_AT_type(*$C$DW$T$19)
    2919                      .dwattr $C$DW$327, DW_AT_name("rsvd1")
    2920                      .dwattr $C$DW$327, DW_AT_TI_symbol_name("_rsvd1")
    2921                      .dwattr $C$DW$327, DW_AT_bit_offset(0x00), DW_AT_bit_size(0x08)
    2922                      .dwattr $C$DW$327, DW_AT_data_member_location[DW_OP_plus_uconst 0x0]
    2923                      .dwattr $C$DW$327, DW_AT_accessibility(DW_ACCESS_public)
    2924                      .dwendtag $C$DW$T$55
    2925              
    2926              
    2927              $C$DW$T$56      .dwtag  DW_TAG_union_type
    2928                      .dwattr $C$DW$T$56, DW_AT_name("I2CPSC_REG")
    2929                      .dwattr $C$DW$T$56, DW_AT_byte_size(0x01)
    2930              $C$DW$328       .dwtag  DW_TAG_member
    2931                      .dwattr $C$DW$328, DW_AT_type(*$C$DW$T$19)
    2932                      .dwattr $C$DW$328, DW_AT_name("all")
TMS320C2000 Assembler PC v6.2.7 Thu Jul 02 08:31:06 2015

Tools Copyright (c) 1996-2014 Texas Instruments Incorporated
C:\Users\Tester\AppData\Local\Temp\0465610                           PAGE   55

    2933                      .dwattr $C$DW$328, DW_AT_TI_symbol_name("_all")
    2934                      .dwattr $C$DW$328, DW_AT_data_member_location[DW_OP_plus_uconst 0x0]
    2935                      .dwattr $C$DW$328, DW_AT_accessibility(DW_ACCESS_public)
    2936              $C$DW$329       .dwtag  DW_TAG_member
    2937                      .dwattr $C$DW$329, DW_AT_type(*$C$DW$T$55)
    2938                      .dwattr $C$DW$329, DW_AT_name("bit")
    2939                      .dwattr $C$DW$329, DW_AT_TI_symbol_name("_bit")
    2940                      .dwattr $C$DW$329, DW_AT_data_member_location[DW_OP_plus_uconst 0x0]
    2941                      .dwattr $C$DW$329, DW_AT_accessibility(DW_ACCESS_public)
    2942                      .dwendtag $C$DW$T$56
    2943              
    2944              
    2945              $C$DW$T$57      .dwtag  DW_TAG_structure_type
    2946                      .dwattr $C$DW$T$57, DW_AT_name("I2CSTR_BITS")
    2947                      .dwattr $C$DW$T$57, DW_AT_byte_size(0x01)
    2948              $C$DW$330       .dwtag  DW_TAG_member
    2949                      .dwattr $C$DW$330, DW_AT_type(*$C$DW$T$19)
    2950                      .dwattr $C$DW$330, DW_AT_name("ARBL")
    2951                      .dwattr $C$DW$330, DW_AT_TI_symbol_name("_ARBL")
    2952                      .dwattr $C$DW$330, DW_AT_bit_offset(0x0f), DW_AT_bit_size(0x01)
    2953                      .dwattr $C$DW$330, DW_AT_data_member_location[DW_OP_plus_uconst 0x0]
    2954                      .dwattr $C$DW$330, DW_AT_accessibility(DW_ACCESS_public)
    2955              $C$DW$331       .dwtag  DW_TAG_member
    2956                      .dwattr $C$DW$331, DW_AT_type(*$C$DW$T$19)
    2957                      .dwattr $C$DW$331, DW_AT_name("NACK")
    2958                      .dwattr $C$DW$331, DW_AT_TI_symbol_name("_NACK")
    2959                      .dwattr $C$DW$331, DW_AT_bit_offset(0x0e), DW_AT_bit_size(0x01)
    2960                      .dwattr $C$DW$331, DW_AT_data_member_location[DW_OP_plus_uconst 0x0]
    2961                      .dwattr $C$DW$331, DW_AT_accessibility(DW_ACCESS_public)
    2962              $C$DW$332       .dwtag  DW_TAG_member
    2963                      .dwattr $C$DW$332, DW_AT_type(*$C$DW$T$19)
    2964                      .dwattr $C$DW$332, DW_AT_name("ARDY")
    2965                      .dwattr $C$DW$332, DW_AT_TI_symbol_name("_ARDY")
    2966                      .dwattr $C$DW$332, DW_AT_bit_offset(0x0d), DW_AT_bit_size(0x01)
    2967                      .dwattr $C$DW$332, DW_AT_data_member_location[DW_OP_plus_uconst 0x0]
    2968                      .dwattr $C$DW$332, DW_AT_accessibility(DW_ACCESS_public)
    2969              $C$DW$333       .dwtag  DW_TAG_member
    2970                      .dwattr $C$DW$333, DW_AT_type(*$C$DW$T$19)
    2971                      .dwattr $C$DW$333, DW_AT_name("RRDY")
    2972                      .dwattr $C$DW$333, DW_AT_TI_symbol_name("_RRDY")
    2973                      .dwattr $C$DW$333, DW_AT_bit_offset(0x0c), DW_AT_bit_size(0x01)
    2974                      .dwattr $C$DW$333, DW_AT_data_member_location[DW_OP_plus_uconst 0x0]
    2975                      .dwattr $C$DW$333, DW_AT_accessibility(DW_ACCESS_public)
    2976              $C$DW$334       .dwtag  DW_TAG_member
    2977                      .dwattr $C$DW$334, DW_AT_type(*$C$DW$T$19)
    2978                      .dwattr $C$DW$334, DW_AT_name("XRDY")
    2979                      .dwattr $C$DW$334, DW_AT_TI_symbol_name("_XRDY")
    2980                      .dwattr $C$DW$334, DW_AT_bit_offset(0x0b), DW_AT_bit_size(0x01)
    2981                      .dwattr $C$DW$334, DW_AT_data_member_location[DW_OP_plus_uconst 0x0]
    2982                      .dwattr $C$DW$334, DW_AT_accessibility(DW_ACCESS_public)
    2983              $C$DW$335       .dwtag  DW_TAG_member
    2984                      .dwattr $C$DW$335, DW_AT_type(*$C$DW$T$19)
    2985                      .dwattr $C$DW$335, DW_AT_name("SCD")
    2986                      .dwattr $C$DW$335, DW_AT_TI_symbol_name("_SCD")
    2987                      .dwattr $C$DW$335, DW_AT_bit_offset(0x0a), DW_AT_bit_size(0x01)
TMS320C2000 Assembler PC v6.2.7 Thu Jul 02 08:31:06 2015

Tools Copyright (c) 1996-2014 Texas Instruments Incorporated
C:\Users\Tester\AppData\Local\Temp\0465610                           PAGE   56

    2988                      .dwattr $C$DW$335, DW_AT_data_member_location[DW_OP_plus_uconst 0x0]
    2989                      .dwattr $C$DW$335, DW_AT_accessibility(DW_ACCESS_public)
    2990              $C$DW$336       .dwtag  DW_TAG_member
    2991                      .dwattr $C$DW$336, DW_AT_type(*$C$DW$T$19)
    2992                      .dwattr $C$DW$336, DW_AT_name("rsvd1")
    2993                      .dwattr $C$DW$336, DW_AT_TI_symbol_name("_rsvd1")
    2994                      .dwattr $C$DW$336, DW_AT_bit_offset(0x08), DW_AT_bit_size(0x02)
    2995                      .dwattr $C$DW$336, DW_AT_data_member_location[DW_OP_plus_uconst 0x0]
    2996                      .dwattr $C$DW$336, DW_AT_accessibility(DW_ACCESS_public)
    2997              $C$DW$337       .dwtag  DW_TAG_member
    2998                      .dwattr $C$DW$337, DW_AT_type(*$C$DW$T$19)
    2999                      .dwattr $C$DW$337, DW_AT_name("AD0")
    3000                      .dwattr $C$DW$337, DW_AT_TI_symbol_name("_AD0")
    3001                      .dwattr $C$DW$337, DW_AT_bit_offset(0x07), DW_AT_bit_size(0x01)
    3002                      .dwattr $C$DW$337, DW_AT_data_member_location[DW_OP_plus_uconst 0x0]
    3003                      .dwattr $C$DW$337, DW_AT_accessibility(DW_ACCESS_public)
    3004              $C$DW$338       .dwtag  DW_TAG_member
    3005                      .dwattr $C$DW$338, DW_AT_type(*$C$DW$T$19)
    3006                      .dwattr $C$DW$338, DW_AT_name("AAS")
    3007                      .dwattr $C$DW$338, DW_AT_TI_symbol_name("_AAS")
    3008                      .dwattr $C$DW$338, DW_AT_bit_offset(0x06), DW_AT_bit_size(0x01)
    3009                      .dwattr $C$DW$338, DW_AT_data_member_location[DW_OP_plus_uconst 0x0]
    3010                      .dwattr $C$DW$338, DW_AT_accessibility(DW_ACCESS_public)
    3011              $C$DW$339       .dwtag  DW_TAG_member
    3012                      .dwattr $C$DW$339, DW_AT_type(*$C$DW$T$19)
    3013                      .dwattr $C$DW$339, DW_AT_name("XSMT")
    3014                      .dwattr $C$DW$339, DW_AT_TI_symbol_name("_XSMT")
    3015                      .dwattr $C$DW$339, DW_AT_bit_offset(0x05), DW_AT_bit_size(0x01)
    3016                      .dwattr $C$DW$339, DW_AT_data_member_location[DW_OP_plus_uconst 0x0]
    3017                      .dwattr $C$DW$339, DW_AT_accessibility(DW_ACCESS_public)
    3018              $C$DW$340       .dwtag  DW_TAG_member
    3019                      .dwattr $C$DW$340, DW_AT_type(*$C$DW$T$19)
    3020                      .dwattr $C$DW$340, DW_AT_name("RSFULL")
    3021                      .dwattr $C$DW$340, DW_AT_TI_symbol_name("_RSFULL")
    3022                      .dwattr $C$DW$340, DW_AT_bit_offset(0x04), DW_AT_bit_size(0x01)
    3023                      .dwattr $C$DW$340, DW_AT_data_member_location[DW_OP_plus_uconst 0x0]
    3024                      .dwattr $C$DW$340, DW_AT_accessibility(DW_ACCESS_public)
    3025              $C$DW$341       .dwtag  DW_TAG_member
    3026                      .dwattr $C$DW$341, DW_AT_type(*$C$DW$T$19)
    3027                      .dwattr $C$DW$341, DW_AT_name("BB")
    3028                      .dwattr $C$DW$341, DW_AT_TI_symbol_name("_BB")
    3029                      .dwattr $C$DW$341, DW_AT_bit_offset(0x03), DW_AT_bit_size(0x01)
    3030                      .dwattr $C$DW$341, DW_AT_data_member_location[DW_OP_plus_uconst 0x0]
    3031                      .dwattr $C$DW$341, DW_AT_accessibility(DW_ACCESS_public)
    3032              $C$DW$342       .dwtag  DW_TAG_member
    3033                      .dwattr $C$DW$342, DW_AT_type(*$C$DW$T$19)
    3034                      .dwattr $C$DW$342, DW_AT_name("NACKSNT")
    3035                      .dwattr $C$DW$342, DW_AT_TI_symbol_name("_NACKSNT")
    3036                      .dwattr $C$DW$342, DW_AT_bit_offset(0x02), DW_AT_bit_size(0x01)
    3037                      .dwattr $C$DW$342, DW_AT_data_member_location[DW_OP_plus_uconst 0x0]
    3038                      .dwattr $C$DW$342, DW_AT_accessibility(DW_ACCESS_public)
    3039              $C$DW$343       .dwtag  DW_TAG_member
    3040                      .dwattr $C$DW$343, DW_AT_type(*$C$DW$T$19)
    3041                      .dwattr $C$DW$343, DW_AT_name("SDIR")
    3042                      .dwattr $C$DW$343, DW_AT_TI_symbol_name("_SDIR")
TMS320C2000 Assembler PC v6.2.7 Thu Jul 02 08:31:06 2015

Tools Copyright (c) 1996-2014 Texas Instruments Incorporated
C:\Users\Tester\AppData\Local\Temp\0465610                           PAGE   57

    3043                      .dwattr $C$DW$343, DW_AT_bit_offset(0x01), DW_AT_bit_size(0x01)
    3044                      .dwattr $C$DW$343, DW_AT_data_member_location[DW_OP_plus_uconst 0x0]
    3045                      .dwattr $C$DW$343, DW_AT_accessibility(DW_ACCESS_public)
    3046              $C$DW$344       .dwtag  DW_TAG_member
    3047                      .dwattr $C$DW$344, DW_AT_type(*$C$DW$T$19)
    3048                      .dwattr $C$DW$344, DW_AT_name("rsvd2")
    3049                      .dwattr $C$DW$344, DW_AT_TI_symbol_name("_rsvd2")
    3050                      .dwattr $C$DW$344, DW_AT_bit_offset(0x00), DW_AT_bit_size(0x01)
    3051                      .dwattr $C$DW$344, DW_AT_data_member_location[DW_OP_plus_uconst 0x0]
    3052                      .dwattr $C$DW$344, DW_AT_accessibility(DW_ACCESS_public)
    3053                      .dwendtag $C$DW$T$57
    3054              
    3055              
    3056              $C$DW$T$58      .dwtag  DW_TAG_union_type
    3057                      .dwattr $C$DW$T$58, DW_AT_name("I2CSTR_REG")
    3058                      .dwattr $C$DW$T$58, DW_AT_byte_size(0x01)
    3059              $C$DW$345       .dwtag  DW_TAG_member
    3060                      .dwattr $C$DW$345, DW_AT_type(*$C$DW$T$19)
    3061                      .dwattr $C$DW$345, DW_AT_name("all")
    3062                      .dwattr $C$DW$345, DW_AT_TI_symbol_name("_all")
    3063                      .dwattr $C$DW$345, DW_AT_data_member_location[DW_OP_plus_uconst 0x0]
    3064                      .dwattr $C$DW$345, DW_AT_accessibility(DW_ACCESS_public)
    3065              $C$DW$346       .dwtag  DW_TAG_member
    3066                      .dwattr $C$DW$346, DW_AT_type(*$C$DW$T$57)
    3067                      .dwattr $C$DW$346, DW_AT_name("bit")
    3068                      .dwattr $C$DW$346, DW_AT_TI_symbol_name("_bit")
    3069                      .dwattr $C$DW$346, DW_AT_data_member_location[DW_OP_plus_uconst 0x0]
    3070                      .dwattr $C$DW$346, DW_AT_accessibility(DW_ACCESS_public)
    3071                      .dwendtag $C$DW$T$58
    3072              
    3073              
    3074              $C$DW$T$60      .dwtag  DW_TAG_structure_type
    3075                      .dwattr $C$DW$T$60, DW_AT_name("I2C_REGS")
    3076                      .dwattr $C$DW$T$60, DW_AT_byte_size(0x22)
    3077              $C$DW$347       .dwtag  DW_TAG_member
    3078                      .dwattr $C$DW$347, DW_AT_type(*$C$DW$T$19)
    3079                      .dwattr $C$DW$347, DW_AT_name("I2COAR")
    3080                      .dwattr $C$DW$347, DW_AT_TI_symbol_name("_I2COAR")
    3081                      .dwattr $C$DW$347, DW_AT_data_member_location[DW_OP_plus_uconst 0x0]
    3082                      .dwattr $C$DW$347, DW_AT_accessibility(DW_ACCESS_public)
    3083              $C$DW$348       .dwtag  DW_TAG_member
    3084                      .dwattr $C$DW$348, DW_AT_type(*$C$DW$T$50)
    3085                      .dwattr $C$DW$348, DW_AT_name("I2CIER")
    3086                      .dwattr $C$DW$348, DW_AT_TI_symbol_name("_I2CIER")
    3087                      .dwattr $C$DW$348, DW_AT_data_member_location[DW_OP_plus_uconst 0x1]
    3088                      .dwattr $C$DW$348, DW_AT_accessibility(DW_ACCESS_public)
    3089              $C$DW$349       .dwtag  DW_TAG_member
    3090                      .dwattr $C$DW$349, DW_AT_type(*$C$DW$T$58)
    3091                      .dwattr $C$DW$349, DW_AT_name("I2CSTR")
    3092                      .dwattr $C$DW$349, DW_AT_TI_symbol_name("_I2CSTR")
    3093                      .dwattr $C$DW$349, DW_AT_data_member_location[DW_OP_plus_uconst 0x2]
    3094                      .dwattr $C$DW$349, DW_AT_accessibility(DW_ACCESS_public)
    3095              $C$DW$350       .dwtag  DW_TAG_member
    3096                      .dwattr $C$DW$350, DW_AT_type(*$C$DW$T$19)
    3097                      .dwattr $C$DW$350, DW_AT_name("I2CCLKL")
TMS320C2000 Assembler PC v6.2.7 Thu Jul 02 08:31:06 2015

Tools Copyright (c) 1996-2014 Texas Instruments Incorporated
C:\Users\Tester\AppData\Local\Temp\0465610                           PAGE   58

    3098                      .dwattr $C$DW$350, DW_AT_TI_symbol_name("_I2CCLKL")
    3099                      .dwattr $C$DW$350, DW_AT_data_member_location[DW_OP_plus_uconst 0x3]
    3100                      .dwattr $C$DW$350, DW_AT_accessibility(DW_ACCESS_public)
    3101              $C$DW$351       .dwtag  DW_TAG_member
    3102                      .dwattr $C$DW$351, DW_AT_type(*$C$DW$T$19)
    3103                      .dwattr $C$DW$351, DW_AT_name("I2CCLKH")
    3104                      .dwattr $C$DW$351, DW_AT_TI_symbol_name("_I2CCLKH")
    3105                      .dwattr $C$DW$351, DW_AT_data_member_location[DW_OP_plus_uconst 0x4]
    3106                      .dwattr $C$DW$351, DW_AT_accessibility(DW_ACCESS_public)
    3107              $C$DW$352       .dwtag  DW_TAG_member
    3108                      .dwattr $C$DW$352, DW_AT_type(*$C$DW$T$19)
    3109                      .dwattr $C$DW$352, DW_AT_name("I2CCNT")
    3110                      .dwattr $C$DW$352, DW_AT_TI_symbol_name("_I2CCNT")
    3111                      .dwattr $C$DW$352, DW_AT_data_member_location[DW_OP_plus_uconst 0x5]
    3112                      .dwattr $C$DW$352, DW_AT_accessibility(DW_ACCESS_public)
    3113              $C$DW$353       .dwtag  DW_TAG_member
    3114                      .dwattr $C$DW$353, DW_AT_type(*$C$DW$T$19)
    3115                      .dwattr $C$DW$353, DW_AT_name("I2CDRR")
    3116                      .dwattr $C$DW$353, DW_AT_TI_symbol_name("_I2CDRR")
    3117                      .dwattr $C$DW$353, DW_AT_data_member_location[DW_OP_plus_uconst 0x6]
    3118                      .dwattr $C$DW$353, DW_AT_accessibility(DW_ACCESS_public)
    3119              $C$DW$354       .dwtag  DW_TAG_member
    3120                      .dwattr $C$DW$354, DW_AT_type(*$C$DW$T$19)
    3121                      .dwattr $C$DW$354, DW_AT_name("I2CSAR")
    3122                      .dwattr $C$DW$354, DW_AT_TI_symbol_name("_I2CSAR")
    3123                      .dwattr $C$DW$354, DW_AT_data_member_location[DW_OP_plus_uconst 0x7]
    3124                      .dwattr $C$DW$354, DW_AT_accessibility(DW_ACCESS_public)
    3125              $C$DW$355       .dwtag  DW_TAG_member
    3126                      .dwattr $C$DW$355, DW_AT_type(*$C$DW$T$19)
    3127                      .dwattr $C$DW$355, DW_AT_name("I2CDXR")
    3128                      .dwattr $C$DW$355, DW_AT_TI_symbol_name("_I2CDXR")
    3129                      .dwattr $C$DW$355, DW_AT_data_member_location[DW_OP_plus_uconst 0x8]
    3130                      .dwattr $C$DW$355, DW_AT_accessibility(DW_ACCESS_public)
    3131              $C$DW$356       .dwtag  DW_TAG_member
    3132                      .dwattr $C$DW$356, DW_AT_type(*$C$DW$T$54)
    3133                      .dwattr $C$DW$356, DW_AT_name("I2CMDR")
    3134                      .dwattr $C$DW$356, DW_AT_TI_symbol_name("_I2CMDR")
    3135                      .dwattr $C$DW$356, DW_AT_data_member_location[DW_OP_plus_uconst 0x9]
    3136                      .dwattr $C$DW$356, DW_AT_accessibility(DW_ACCESS_public)
    3137              $C$DW$357       .dwtag  DW_TAG_member
    3138                      .dwattr $C$DW$357, DW_AT_type(*$C$DW$T$52)
    3139                      .dwattr $C$DW$357, DW_AT_name("I2CISRC")
    3140                      .dwattr $C$DW$357, DW_AT_TI_symbol_name("_I2CISRC")
    3141                      .dwattr $C$DW$357, DW_AT_data_member_location[DW_OP_plus_uconst 0xa]
