TMS320C2000 Assembler PC v6.2.7 Thu Jul 02 08:31:10 2015

Tools Copyright (c) 1996-2014 Texas Instruments Incorporated
C:\Users\Tester\AppData\Local\Temp\0600410                           PAGE    1

       1              ;***************************************************************
       2              ;* TMS320C2000 C/C++ Codegen                         PC v6.2.7 *
       3              ;* Date/Time created: Thu Jul 02 08:31:10 2015                 *
       4              ;***************************************************************
       5                      .compiler_opts --diag_wrap=off --float_support=fpu32 --hll_source=on --mem_model:code=flat --mem_mode
       6        0002  FP      .set    XAR2
       7              
       8              $C$DW$CU        .dwtag  DW_TAG_compile_unit
       9                      .dwattr $C$DW$CU, DW_AT_name("../UART/UartAdded.c")
      10                      .dwattr $C$DW$CU, DW_AT_producer("TMS320C2000 C/C++ Codegen PC v6.2.7 Copyright (c) 1996-2014 Texas I
      11                      .dwattr $C$DW$CU, DW_AT_TI_version(0x01)
      12                      .dwattr $C$DW$CU, DW_AT_comp_dir("D:\ActiveProject\EKT5\PKMT_NONBIOS\InvertorCntrl\ISPprg")
      13              
      14              $C$DW$1 .dwtag  DW_TAG_subprogram, DW_AT_name("initUartBBufer")
      15                      .dwattr $C$DW$1, DW_AT_TI_symbol_name("_initUartBBufer")
      16                      .dwattr $C$DW$1, DW_AT_declaration
      17                      .dwattr $C$DW$1, DW_AT_external
      18              
      19              $C$DW$2 .dwtag  DW_TAG_subprogram, DW_AT_name("testRcBufB")
      20                      .dwattr $C$DW$2, DW_AT_TI_symbol_name("_testRcBufB")
      21                      .dwattr $C$DW$2, DW_AT_type(*$C$DW$T$5)
      22                      .dwattr $C$DW$2, DW_AT_declaration
      23                      .dwattr $C$DW$2, DW_AT_external
      24              
      25              $C$DW$3 .dwtag  DW_TAG_subprogram, DW_AT_name("putRcBufBFromInt")
      26                      .dwattr $C$DW$3, DW_AT_TI_symbol_name("_putRcBufBFromInt")
      27                      .dwattr $C$DW$3, DW_AT_type(*$C$DW$T$5)
      28                      .dwattr $C$DW$3, DW_AT_declaration
      29                      .dwattr $C$DW$3, DW_AT_external
      30              $C$DW$4 .dwtag  DW_TAG_formal_parameter
      31                      .dwattr $C$DW$4, DW_AT_type(*$C$DW$T$5)
      32                      .dwendtag $C$DW$3
      33              
      34              
      35              $C$DW$5 .dwtag  DW_TAG_subprogram, DW_AT_name("getTxBufBForInt")
      36                      .dwattr $C$DW$5, DW_AT_TI_symbol_name("_getTxBufBForInt")
      37                      .dwattr $C$DW$5, DW_AT_type(*$C$DW$T$5)
      38                      .dwattr $C$DW$5, DW_AT_declaration
      39                      .dwattr $C$DW$5, DW_AT_external
      40              $C$DW$6 .dwtag  DW_TAG_formal_parameter
      41                      .dwattr $C$DW$6, DW_AT_type(*$C$DW$T$101)
      42                      .dwendtag $C$DW$5
      43              
      44              $C$DW$7 .dwtag  DW_TAG_variable, DW_AT_name("ScibRegs")
      45                      .dwattr $C$DW$7, DW_AT_TI_symbol_name("_ScibRegs")
      46                      .dwattr $C$DW$7, DW_AT_type(*$C$DW$T$95)
      47                      .dwattr $C$DW$7, DW_AT_declaration
      48                      .dwattr $C$DW$7, DW_AT_external
      49              $C$DW$8 .dwtag  DW_TAG_variable, DW_AT_name("PieCtrlRegs")
      50                      .dwattr $C$DW$8, DW_AT_TI_symbol_name("_PieCtrlRegs")
      51                      .dwattr $C$DW$8, DW_AT_type(*$C$DW$T$85)
      52                      .dwattr $C$DW$8, DW_AT_declaration
      53                      .dwattr $C$DW$8, DW_AT_external
      54              $C$DW$9 .dwtag  DW_TAG_variable, DW_AT_name("GpioCtrlRegs")
      55                      .dwattr $C$DW$9, DW_AT_TI_symbol_name("_GpioCtrlRegs")
TMS320C2000 Assembler PC v6.2.7 Thu Jul 02 08:31:10 2015

Tools Copyright (c) 1996-2014 Texas Instruments Incorporated
C:\Users\Tester\AppData\Local\Temp\0600410                           PAGE    2

      56                      .dwattr $C$DW$9, DW_AT_type(*$C$DW$T$81)
      57                      .dwattr $C$DW$9, DW_AT_declaration
      58                      .dwattr $C$DW$9, DW_AT_external
      59              $C$DW$10        .dwtag  DW_TAG_variable, DW_AT_name("PieVectTable")
      60                      .dwattr $C$DW$10, DW_AT_TI_symbol_name("_PieVectTable")
      61                      .dwattr $C$DW$10, DW_AT_type(*$C$DW$T$57)
      62                      .dwattr $C$DW$10, DW_AT_declaration
      63                      .dwattr $C$DW$10, DW_AT_external
      64              ;       C:\ti\ccsv6\tools\compiler\c2000_6.2.7\bin\ac2000.exe -@C:\\Users\\Tester\\AppData\\Local\\Temp\\0600
      65 00000000               .sect   ".text"
      66                      .clink
      67                      .global _initUARTAddRS
      68              
      69              $C$DW$11        .dwtag  DW_TAG_subprogram, DW_AT_name("initUARTAddRS")
      70                      .dwattr $C$DW$11, DW_AT_low_pc(_initUARTAddRS)
      71                      .dwattr $C$DW$11, DW_AT_high_pc(0x00)
      72                      .dwattr $C$DW$11, DW_AT_TI_symbol_name("_initUARTAddRS")
      73                      .dwattr $C$DW$11, DW_AT_external
      74                      .dwattr $C$DW$11, DW_AT_TI_begin_file("../UART/UartAdded.c")
      75                      .dwattr $C$DW$11, DW_AT_TI_begin_line(0x29)
      76                      .dwattr $C$DW$11, DW_AT_TI_begin_column(0x06)
      77                      .dwattr $C$DW$11, DW_AT_TI_max_frame_size(-2)
      78                      .dwpsn  file "../UART/UartAdded.c",line 42,column 1,is_stmt,address _initUARTAddRS
      79              
      80                      .dwfde $C$DW$CIE, _initUARTAddRS
      81              
      82              ;***************************************************************
      83              ;* FNAME: _initUARTAddRS                FR SIZE:   0           *
      84              ;*                                                             *
      85              ;* FUNCTION ENVIRONMENT                                        *
      86              ;*                                                             *
      87              ;* FUNCTION PROPERTIES                                         *
      88              ;*                            0 Parameter,  0 Auto,  0 SOE     *
      89              ;***************************************************************
      90              
      91 00000000       _initUARTAddRS:
      92                      .dwcfi  cfa_offset, -2
      93                      .dwcfi  save_reg_to_mem, 26, 0
      94                      .dwcfi  save_reg_to_reg, 78, 26
      95                      .dwpsn  file "../UART/UartAdded.c",line 43,column 2,is_stmt
      96              $C$DW$12        .dwtag  DW_TAG_TI_branch
      97                      .dwattr $C$DW$12, DW_AT_low_pc(0x00)
      98                      .dwattr $C$DW$12, DW_AT_name("_initUartBBufer")
      99                      .dwattr $C$DW$12, DW_AT_TI_call
     100 00000000 7640!         LCR       #_initUartBBufer      ; [CPU_] |43| 
         00000001 0000 
     101                      ; call occurs [#_initUartBBufer] ; [] |43| 
     102                      .dwpsn  file "../UART/UartAdded.c",line 44,column 2,is_stmt
     103              $C$DW$13        .dwtag  DW_TAG_TI_branch
     104                      .dwattr $C$DW$13, DW_AT_low_pc(0x00)
     105                      .dwattr $C$DW$13, DW_AT_name("_initGPOIUartAddRS")
     106                      .dwattr $C$DW$13, DW_AT_TI_call
     107 00000002 7640'         LCR       #_initGPOIUartAddRS   ; [CPU_] |44| 
         00000003 0039 
     108                      ; call occurs [#_initGPOIUartAddRS] ; [] |44| 
TMS320C2000 Assembler PC v6.2.7 Thu Jul 02 08:31:10 2015

Tools Copyright (c) 1996-2014 Texas Instruments Incorporated
C:\Users\Tester\AppData\Local\Temp\0600410                           PAGE    3

     109                      .dwpsn  file "../UART/UartAdded.c",line 45,column 2,is_stmt
     110              $C$DW$14        .dwtag  DW_TAG_TI_branch
     111                      .dwattr $C$DW$14, DW_AT_low_pc(0x00)
     112                      .dwattr $C$DW$14, DW_AT_name("_scib_fifo_init")
     113                      .dwattr $C$DW$14, DW_AT_TI_call
     114 00000004 7640'         LCR       #_scib_fifo_init      ; [CPU_] |45| 
         00000005 000B 
     115                      ; call occurs [#_scib_fifo_init] ; [] |45| 
     116                      .dwpsn  file "../UART/UartAdded.c",line 47,column 2,is_stmt
     117              $C$DW$15        .dwtag  DW_TAG_TI_branch
     118                      .dwattr $C$DW$15, DW_AT_low_pc(0x00)
     119                      .dwattr $C$DW$15, DW_AT_name("_initCoreUART_B")
     120                      .dwattr $C$DW$15, DW_AT_TI_call
     121 00000006 7640'         LCR       #_initCoreUART_B      ; [CPU_] |47| 
         00000007 002B 
     122                      ; call occurs [#_initCoreUART_B] ; [] |47| 
     123                      .dwpsn  file "../UART/UartAdded.c",line 52,column 2,is_stmt
     124              $C$DW$16        .dwtag  DW_TAG_TI_branch
     125                      .dwattr $C$DW$16, DW_AT_low_pc(0x00)
     126                      .dwattr $C$DW$16, DW_AT_name("_initUartIntAddRS")
     127                      .dwattr $C$DW$16, DW_AT_TI_call
     128 00000008 7640'         LCR       #_initUartIntAddRS    ; [CPU_] |52| 
         00000009 006B 
     129                      ; call occurs [#_initUartIntAddRS] ; [] |52| 
     130                      .dwpsn  file "../UART/UartAdded.c",line 53,column 1,is_stmt
     131              $C$DW$17        .dwtag  DW_TAG_TI_branch
     132                      .dwattr $C$DW$17, DW_AT_low_pc(0x00)
     133                      .dwattr $C$DW$17, DW_AT_TI_return
     134 0000000a 0006          LRETR     ; [CPU_] 
     135                      ; return occurs ; [] 
     136                      .dwattr $C$DW$11, DW_AT_TI_end_file("../UART/UartAdded.c")
     137                      .dwattr $C$DW$11, DW_AT_TI_end_line(0x35)
     138                      .dwattr $C$DW$11, DW_AT_TI_end_column(0x01)
     139                      .dwendentry
     140                      .dwendtag $C$DW$11
     141              
     142 0000000b               .sect   ".text"
     143                      .clink
     144                      .global _scib_fifo_init
     145              
     146              $C$DW$18        .dwtag  DW_TAG_subprogram, DW_AT_name("scib_fifo_init")
     147                      .dwattr $C$DW$18, DW_AT_low_pc(_scib_fifo_init)
     148                      .dwattr $C$DW$18, DW_AT_high_pc(0x00)
     149                      .dwattr $C$DW$18, DW_AT_TI_symbol_name("_scib_fifo_init")
     150                      .dwattr $C$DW$18, DW_AT_external
     151                      .dwattr $C$DW$18, DW_AT_TI_begin_file("../UART/UartAdded.c")
     152                      .dwattr $C$DW$18, DW_AT_TI_begin_line(0x38)
     153                      .dwattr $C$DW$18, DW_AT_TI_begin_column(0x06)
     154                      .dwattr $C$DW$18, DW_AT_TI_max_frame_size(-2)
     155                      .dwpsn  file "../UART/UartAdded.c",line 57,column 1,is_stmt,address _scib_fifo_init
     156              
     157                      .dwfde $C$DW$CIE, _scib_fifo_init
     158              
     159              ;***************************************************************
     160              ;* FNAME: _scib_fifo_init               FR SIZE:   0           *
TMS320C2000 Assembler PC v6.2.7 Thu Jul 02 08:31:10 2015

Tools Copyright (c) 1996-2014 Texas Instruments Incorporated
C:\Users\Tester\AppData\Local\Temp\0600410                           PAGE    4

     161              ;*                                                             *
     162              ;* FUNCTION ENVIRONMENT                                        *
     163              ;*                                                             *
     164              ;* FUNCTION PROPERTIES                                         *
     165              ;*                            0 Parameter,  0 Auto,  0 SOE     *
     166              ;***************************************************************
     167              
     168 0000000b       _scib_fifo_init:
     169                      .dwcfi  cfa_offset, -2
     170                      .dwcfi  save_reg_to_mem, 26, 0
     171                      .dwcfi  save_reg_to_reg, 78, 26
     172                      .dwpsn  file "../UART/UartAdded.c",line 58,column 5,is_stmt
     173 0000000b 761F!         MOVW      DP,#_ScibRegs+10      ; [CPU_U] 
         0000000c 0000 
     174 0000000d 280A!         MOV       @_ScibRegs+10,#57408  ; [CPU_] |58| 
         0000000e E040 
     175                      .dwpsn  file "../UART/UartAdded.c",line 59,column 5,is_stmt
     176 0000000f 1A0A!         OR        @_ScibRegs+10,#0x0020 ; [CPU_] |59| 
         00000010 0020 
     177                      .dwpsn  file "../UART/UartAdded.c",line 60,column 5,is_stmt
     178 00000011 280B!         MOV       @_ScibRegs+11,#8257   ; [CPU_] |60| 
         00000012 2041 
     179                      .dwpsn  file "../UART/UartAdded.c",line 61,column 5,is_stmt
     180 00000013 1A0B!         OR        @_ScibRegs+11,#0x0020 ; [CPU_] |61| 
         00000014 0020 
     181                      .dwpsn  file "../UART/UartAdded.c",line 62,column 5,is_stmt
     182 00000015 2B0C!         MOV       @_ScibRegs+12,#0      ; [CPU_] |62| 
     183                      .dwpsn  file "../UART/UartAdded.c",line 63,column 1,is_stmt
     184              $C$DW$19        .dwtag  DW_TAG_TI_branch
     185                      .dwattr $C$DW$19, DW_AT_low_pc(0x00)
     186                      .dwattr $C$DW$19, DW_AT_TI_return
     187 00000016 0006          LRETR     ; [CPU_] 
     188                      ; return occurs ; [] 
     189                      .dwattr $C$DW$18, DW_AT_TI_end_file("../UART/UartAdded.c")
     190                      .dwattr $C$DW$18, DW_AT_TI_end_line(0x3f)
     191                      .dwattr $C$DW$18, DW_AT_TI_end_column(0x01)
     192                      .dwendentry
     193                      .dwendtag $C$DW$18
     194              
     195 00000017               .sect   ".text"
     196                      .clink
     197                      .global _InitScibGpio
     198              
     199              $C$DW$20        .dwtag  DW_TAG_subprogram, DW_AT_name("InitScibGpio")
     200                      .dwattr $C$DW$20, DW_AT_low_pc(_InitScibGpio)
     201                      .dwattr $C$DW$20, DW_AT_high_pc(0x00)
     202                      .dwattr $C$DW$20, DW_AT_TI_symbol_name("_InitScibGpio")
     203                      .dwattr $C$DW$20, DW_AT_external
     204                      .dwattr $C$DW$20, DW_AT_TI_begin_file("../UART/UartAdded.c")
     205                      .dwattr $C$DW$20, DW_AT_TI_begin_line(0x41)
     206                      .dwattr $C$DW$20, DW_AT_TI_begin_column(0x06)
     207                      .dwattr $C$DW$20, DW_AT_TI_max_frame_size(-2)
     208                      .dwpsn  file "../UART/UartAdded.c",line 66,column 1,is_stmt,address _InitScibGpio
     209              
     210                      .dwfde $C$DW$CIE, _InitScibGpio
TMS320C2000 Assembler PC v6.2.7 Thu Jul 02 08:31:10 2015

Tools Copyright (c) 1996-2014 Texas Instruments Incorporated
C:\Users\Tester\AppData\Local\Temp\0600410                           PAGE    5

     211              
     212              ;***************************************************************
     213              ;* FNAME: _InitScibGpio                 FR SIZE:   0           *
     214              ;*                                                             *
     215              ;* FUNCTION ENVIRONMENT                                        *
     216              ;*                                                             *
     217              ;* FUNCTION PROPERTIES                                         *
     218              ;*                            0 Parameter,  0 Auto,  0 SOE     *
     219              ;***************************************************************
     220              
     221 00000017       _InitScibGpio:
     222                      .dwcfi  cfa_offset, -2
     223                      .dwcfi  save_reg_to_mem, 26, 0
     224                      .dwcfi  save_reg_to_reg, 78, 26
     225                      .dwpsn  file "../UART/UartAdded.c",line 67,column 4,is_stmt
     226 00000017 7622   EALLOW
     227                      .dwpsn  file "../UART/UartAdded.c",line 73,column 2,is_stmt
     228 00000018 761F!         MOVW      DP,#_GpioCtrlRegs+13  ; [CPU_U] 
         00000019 0000 
     229 0000001a 180D!         AND       @_GpioCtrlRegs+13,#0xfff7 ; [CPU_] |73| 
         0000001b FFF7 
     230                      .dwpsn  file "../UART/UartAdded.c",line 74,column 2,is_stmt
     231 0000001c 180D!         AND       @_GpioCtrlRegs+13,#0xfffb ; [CPU_] |74| 
         0000001d FFFB 
     232                      .dwpsn  file "../UART/UartAdded.c",line 80,column 2,is_stmt
     233 0000001e 1A04!         OR        @_GpioCtrlRegs+4,#0x00c0 ; [CPU_] |80| 
         0000001f 00C0 
     234                      .dwpsn  file "../UART/UartAdded.c",line 85,column 2,is_stmt
     235 00000020 CC08!         AND       AL,@_GpioCtrlRegs+8,#0xffcf ; [CPU_] |85| 
         00000021 FFCF 
     236 00000022 5020          ORB       AL,#0x20              ; [CPU_] |85| 
     237 00000023 9608!         MOV       @_GpioCtrlRegs+8,AL   ; [CPU_] |85| 
     238                      .dwpsn  file "../UART/UartAdded.c",line 86,column 2,is_stmt
     239 00000024 CC08!         AND       AL,@_GpioCtrlRegs+8,#0xff3f ; [CPU_] |86| 
         00000025 FF3F 
     240 00000026 5080          ORB       AL,#0x80              ; [CPU_] |86| 
     241 00000027 9608!         MOV       @_GpioCtrlRegs+8,AL   ; [CPU_] |86| 
     242                      .dwpsn  file "../UART/UartAdded.c",line 88,column 5,is_stmt
     243 00000028 761A   EDIS
     244                      .dwpsn  file "../UART/UartAdded.c",line 89,column 1,is_stmt
     245 00000029 FF69          SPM       #0                    ; [CPU_] 
     246              $C$DW$21        .dwtag  DW_TAG_TI_branch
     247                      .dwattr $C$DW$21, DW_AT_low_pc(0x00)
     248                      .dwattr $C$DW$21, DW_AT_TI_return
     249 0000002a 0006          LRETR     ; [CPU_] 
     250                      ; return occurs ; [] 
     251                      .dwattr $C$DW$20, DW_AT_TI_end_file("../UART/UartAdded.c")
     252                      .dwattr $C$DW$20, DW_AT_TI_end_line(0x59)
     253                      .dwattr $C$DW$20, DW_AT_TI_end_column(0x01)
     254                      .dwendentry
     255                      .dwendtag $C$DW$20
     256              
     257 0000002b               .sect   ".text"
     258                      .clink
     259                      .global _initCoreUART_B
TMS320C2000 Assembler PC v6.2.7 Thu Jul 02 08:31:10 2015

Tools Copyright (c) 1996-2014 Texas Instruments Incorporated
C:\Users\Tester\AppData\Local\Temp\0600410                           PAGE    6

     260              
     261              $C$DW$22        .dwtag  DW_TAG_subprogram, DW_AT_name("initCoreUART_B")
     262                      .dwattr $C$DW$22, DW_AT_low_pc(_initCoreUART_B)
     263                      .dwattr $C$DW$22, DW_AT_high_pc(0x00)
     264                      .dwattr $C$DW$22, DW_AT_TI_symbol_name("_initCoreUART_B")
     265                      .dwattr $C$DW$22, DW_AT_external
     266                      .dwattr $C$DW$22, DW_AT_TI_begin_file("../UART/UartAdded.c")
     267                      .dwattr $C$DW$22, DW_AT_TI_begin_line(0x5b)
     268                      .dwattr $C$DW$22, DW_AT_TI_begin_column(0x06)
     269                      .dwattr $C$DW$22, DW_AT_TI_max_frame_size(-2)
     270                      .dwpsn  file "../UART/UartAdded.c",line 92,column 1,is_stmt,address _initCoreUART_B
     271              
     272                      .dwfde $C$DW$CIE, _initCoreUART_B
     273              
     274              ;***************************************************************
     275              ;* FNAME: _initCoreUART_B               FR SIZE:   0           *
     276              ;*                                                             *
     277              ;* FUNCTION ENVIRONMENT                                        *
     278              ;*                                                             *
     279              ;* FUNCTION PROPERTIES                                         *
     280              ;*                            0 Parameter,  0 Auto,  0 SOE     *
     281              ;***************************************************************
     282              
     283 0000002b       _initCoreUART_B:
     284                      .dwcfi  cfa_offset, -2
     285                      .dwcfi  save_reg_to_mem, 26, 0
     286                      .dwcfi  save_reg_to_reg, 78, 26
     287                      .dwpsn  file "../UART/UartAdded.c",line 96,column 2,is_stmt
     288 0000002b 761F!         MOVW      DP,#_ScibRegs         ; [CPU_U] 
         0000002c 0000 
     289 0000002d 56BF!         MOVB      @_ScibRegs,#7,UNC     ; [CPU_] |96| 
         0000002e 0700 
     290                      .dwpsn  file "../UART/UartAdded.c",line 99,column 2,is_stmt
     291 0000002f 56BF!         MOVB      @_ScibRegs+1,#3,UNC   ; [CPU_] |99| 
         00000030 0301 
     292                      .dwpsn  file "../UART/UartAdded.c",line 101,column 2,is_stmt
     293 00000031 56BF!         MOVB      @_ScibRegs+4,#3,UNC   ; [CPU_] |101| 
         00000032 0304 
     294                      .dwpsn  file "../UART/UartAdded.c",line 104,column 2,is_stmt
     295 00000033 2B02!         MOV       @_ScibRegs+2,#0       ; [CPU_] |104| 
     296                      .dwpsn  file "../UART/UartAdded.c",line 105,column 2,is_stmt
     297 00000034 56BF!         MOVB      @_ScibRegs+3,#26,UNC  ; [CPU_] |105| 
         00000035 1A03 
     298                      .dwpsn  file "../UART/UartAdded.c",line 106,column 2,is_stmt
     299 00000036 56BF!         MOVB      @_ScibRegs+1,#35,UNC  ; [CPU_] |106| 
         00000037 2301 
     300                      .dwpsn  file "../UART/UartAdded.c",line 107,column 1,is_stmt
     301              $C$DW$23        .dwtag  DW_TAG_TI_branch
     302                      .dwattr $C$DW$23, DW_AT_low_pc(0x00)
     303                      .dwattr $C$DW$23, DW_AT_TI_return
     304 00000038 0006          LRETR     ; [CPU_] 
     305                      ; return occurs ; [] 
     306                      .dwattr $C$DW$22, DW_AT_TI_end_file("../UART/UartAdded.c")
     307                      .dwattr $C$DW$22, DW_AT_TI_end_line(0x6b)
     308                      .dwattr $C$DW$22, DW_AT_TI_end_column(0x01)
TMS320C2000 Assembler PC v6.2.7 Thu Jul 02 08:31:10 2015

Tools Copyright (c) 1996-2014 Texas Instruments Incorporated
C:\Users\Tester\AppData\Local\Temp\0600410                           PAGE    7

     309                      .dwendentry
     310                      .dwendtag $C$DW$22
     311              
     312 00000039               .sect   ".text"
     313                      .clink
     314                      .global _initGPOIUartAddRS
     315              
     316              $C$DW$24        .dwtag  DW_TAG_subprogram, DW_AT_name("initGPOIUartAddRS")
     317                      .dwattr $C$DW$24, DW_AT_low_pc(_initGPOIUartAddRS)
     318                      .dwattr $C$DW$24, DW_AT_high_pc(0x00)
     319                      .dwattr $C$DW$24, DW_AT_TI_symbol_name("_initGPOIUartAddRS")
     320                      .dwattr $C$DW$24, DW_AT_external
     321                      .dwattr $C$DW$24, DW_AT_TI_begin_file("../UART/UartAdded.c")
     322                      .dwattr $C$DW$24, DW_AT_TI_begin_line(0x6d)
     323                      .dwattr $C$DW$24, DW_AT_TI_begin_column(0x06)
     324                      .dwattr $C$DW$24, DW_AT_TI_max_frame_size(-2)
     325                      .dwpsn  file "../UART/UartAdded.c",line 110,column 1,is_stmt,address _initGPOIUartAddRS
     326              
     327                      .dwfde $C$DW$CIE, _initGPOIUartAddRS
     328              
     329              ;***************************************************************
     330              ;* FNAME: _initGPOIUartAddRS            FR SIZE:   0           *
     331              ;*                                                             *
     332              ;* FUNCTION ENVIRONMENT                                        *
     333              ;*                                                             *
     334              ;* FUNCTION PROPERTIES                                         *
     335              ;*                            0 Parameter,  0 Auto,  0 SOE     *
     336              ;***************************************************************
     337              
     338 00000039       _initGPOIUartAddRS:
     339                      .dwcfi  cfa_offset, -2
     340                      .dwcfi  save_reg_to_mem, 26, 0
     341                      .dwcfi  save_reg_to_reg, 78, 26
     342                      .dwpsn  file "../UART/UartAdded.c",line 112,column 2,is_stmt
     343              $C$DW$25        .dwtag  DW_TAG_TI_branch
     344                      .dwattr $C$DW$25, DW_AT_low_pc(0x00)
     345                      .dwattr $C$DW$25, DW_AT_name("_InitScibGpio")
     346                      .dwattr $C$DW$25, DW_AT_TI_call
     347 00000039 7640'         LCR       #_InitScibGpio        ; [CPU_] |112| 
         0000003a 0017 
     348                      ; call occurs [#_InitScibGpio] ; [] |112| 
     349                      .dwpsn  file "../UART/UartAdded.c",line 118,column 1,is_stmt
     350              $C$DW$26        .dwtag  DW_TAG_TI_branch
     351                      .dwattr $C$DW$26, DW_AT_low_pc(0x00)
     352                      .dwattr $C$DW$26, DW_AT_TI_return
     353 0000003b 0006          LRETR     ; [CPU_] 
     354                      ; return occurs ; [] 
     355                      .dwattr $C$DW$24, DW_AT_TI_end_file("../UART/UartAdded.c")
     356                      .dwattr $C$DW$24, DW_AT_TI_end_line(0x76)
     357                      .dwattr $C$DW$24, DW_AT_TI_end_column(0x01)
     358                      .dwendentry
     359                      .dwendtag $C$DW$24
     360              
     361 0000003c               .sect   ".text"
     362                      .clink
TMS320C2000 Assembler PC v6.2.7 Thu Jul 02 08:31:10 2015

Tools Copyright (c) 1996-2014 Texas Instruments Incorporated
C:\Users\Tester\AppData\Local\Temp\0600410                           PAGE    8

     363                      .global _sci_fifo_initAddRS
     364              
     365              $C$DW$27        .dwtag  DW_TAG_subprogram, DW_AT_name("sci_fifo_initAddRS")
     366                      .dwattr $C$DW$27, DW_AT_low_pc(_sci_fifo_initAddRS)
     367                      .dwattr $C$DW$27, DW_AT_high_pc(0x00)
     368                      .dwattr $C$DW$27, DW_AT_TI_symbol_name("_sci_fifo_initAddRS")
     369                      .dwattr $C$DW$27, DW_AT_external
     370                      .dwattr $C$DW$27, DW_AT_TI_begin_file("../UART/UartAdded.c")
     371                      .dwattr $C$DW$27, DW_AT_TI_begin_line(0x78)
     372                      .dwattr $C$DW$27, DW_AT_TI_begin_column(0x06)
     373                      .dwattr $C$DW$27, DW_AT_TI_max_frame_size(-2)
     374                      .dwpsn  file "../UART/UartAdded.c",line 121,column 1,is_stmt,address _sci_fifo_initAddRS
     375              
     376                      .dwfde $C$DW$CIE, _sci_fifo_initAddRS
     377              
     378              ;***************************************************************
     379              ;* FNAME: _sci_fifo_initAddRS           FR SIZE:   0           *
     380              ;*                                                             *
     381              ;* FUNCTION ENVIRONMENT                                        *
     382              ;*                                                             *
     383              ;* FUNCTION PROPERTIES                                         *
     384              ;*                            0 Parameter,  0 Auto,  0 SOE     *
     385              ;***************************************************************
     386              
     387 0000003c       _sci_fifo_initAddRS:
     388                      .dwcfi  cfa_offset, -2
     389                      .dwcfi  save_reg_to_mem, 26, 0
     390                      .dwcfi  save_reg_to_reg, 78, 26
     391                      .dwpsn  file "../UART/UartAdded.c",line 123,column 2,is_stmt
     392              $C$DW$28        .dwtag  DW_TAG_TI_branch
     393                      .dwattr $C$DW$28, DW_AT_low_pc(0x00)
     394                      .dwattr $C$DW$28, DW_AT_name("_scib_fifo_init")
     395                      .dwattr $C$DW$28, DW_AT_TI_call
     396 0000003c 7640'         LCR       #_scib_fifo_init      ; [CPU_] |123| 
         0000003d 000B 
     397                      ; call occurs [#_scib_fifo_init] ; [] |123| 
     398                      .dwpsn  file "../UART/UartAdded.c",line 130,column 1,is_stmt
     399              $C$DW$29        .dwtag  DW_TAG_TI_branch
     400                      .dwattr $C$DW$29, DW_AT_low_pc(0x00)
     401                      .dwattr $C$DW$29, DW_AT_TI_return
     402 0000003e 0006          LRETR     ; [CPU_] 
     403                      ; return occurs ; [] 
     404                      .dwattr $C$DW$27, DW_AT_TI_end_file("../UART/UartAdded.c")
     405                      .dwattr $C$DW$27, DW_AT_TI_end_line(0x82)
     406                      .dwattr $C$DW$27, DW_AT_TI_end_column(0x01)
     407                      .dwendentry
     408                      .dwendtag $C$DW$27
     409              
     410 0000003f               .sect   ".text"
     411                      .clink
     412                      .global _getUART_RCAddRS
     413              
     414              $C$DW$30        .dwtag  DW_TAG_subprogram, DW_AT_name("getUART_RCAddRS")
     415                      .dwattr $C$DW$30, DW_AT_low_pc(_getUART_RCAddRS)
     416                      .dwattr $C$DW$30, DW_AT_high_pc(0x00)
TMS320C2000 Assembler PC v6.2.7 Thu Jul 02 08:31:10 2015

Tools Copyright (c) 1996-2014 Texas Instruments Incorporated
C:\Users\Tester\AppData\Local\Temp\0600410                           PAGE    9

     417                      .dwattr $C$DW$30, DW_AT_TI_symbol_name("_getUART_RCAddRS")
     418                      .dwattr $C$DW$30, DW_AT_external
     419                      .dwattr $C$DW$30, DW_AT_type(*$C$DW$T$5)
     420                      .dwattr $C$DW$30, DW_AT_TI_begin_file("../UART/UartAdded.c")
     421                      .dwattr $C$DW$30, DW_AT_TI_begin_line(0x84)
     422                      .dwattr $C$DW$30, DW_AT_TI_begin_column(0x06)
     423                      .dwattr $C$DW$30, DW_AT_TI_max_frame_size(-4)
     424                      .dwpsn  file "../UART/UartAdded.c",line 133,column 1,is_stmt,address _getUART_RCAddRS
     425              
     426                      .dwfde $C$DW$CIE, _getUART_RCAddRS
     427              $C$DW$31        .dwtag  DW_TAG_formal_parameter, DW_AT_name("rc")
     428                      .dwattr $C$DW$31, DW_AT_TI_symbol_name("_rc")
     429                      .dwattr $C$DW$31, DW_AT_type(*$C$DW$T$101)
     430                      .dwattr $C$DW$31, DW_AT_location[DW_OP_reg12]
     431              
     432              ;***************************************************************
     433              ;* FNAME: _getUART_RCAddRS              FR SIZE:   2           *
     434              ;*                                                             *
     435              ;* FUNCTION ENVIRONMENT                                        *
     436              ;*                                                             *
     437              ;* FUNCTION PROPERTIES                                         *
     438              ;*                            0 Parameter,  2 Auto,  0 SOE     *
     439              ;***************************************************************
     440              
     441 0000003f       _getUART_RCAddRS:
     442                      .dwcfi  cfa_offset, -2
     443                      .dwcfi  save_reg_to_mem, 26, 0
     444                      .dwcfi  save_reg_to_reg, 78, 26
     445 0000003f FE02          ADDB      SP,#2                 ; [CPU_U] 
     446                      .dwcfi  cfa_offset, -4
     447              $C$DW$32        .dwtag  DW_TAG_variable, DW_AT_name("rc")
     448                      .dwattr $C$DW$32, DW_AT_TI_symbol_name("_rc")
     449                      .dwattr $C$DW$32, DW_AT_type(*$C$DW$T$101)
     450                      .dwattr $C$DW$32, DW_AT_location[DW_OP_breg20 -2]
     451 00000040 A842          MOVL      *-SP[2],XAR4          ; [CPU_] |133| 
     452                      .dwpsn  file "../UART/UartAdded.c",line 135,column 2,is_stmt
     453 00000041 761F!         MOVW      DP,#_ScibRegs+11      ; [CPU_U] 
         00000042 0000 
     454 00000043 CC0B!         AND       AL,@_ScibRegs+11,#0x1f00 ; [CPU_] |135| 
         00000044 1F00 
     455 00000045 FFC7          LSR       AL,8                  ; [CPU_] |135| 
     456 00000046 6506          B         $C$L1,LEQ             ; [CPU_] |135| 
     457                      ; branchcc occurs ; [] |135| 
     458                      .dwpsn  file "../UART/UartAdded.c",line 136,column 3,is_stmt
     459 00000047 8A42          MOVL      XAR4,*-SP[2]          ; [CPU_] |136| 
     460 00000048 9207!         MOV       AL,@_ScibRegs+7       ; [CPU_] |136| 
     461 00000049 96C4          MOV       *+XAR4[0],AL          ; [CPU_] |136| 
     462                      .dwpsn  file "../UART/UartAdded.c",line 137,column 3,is_stmt
     463 0000004a 9A01          MOVB      AL,#1                 ; [CPU_] |137| 
     464 0000004b 6F02          B         $C$L2,UNC             ; [CPU_] |137| 
     465                      ; branch occurs ; [] |137| 
     466 0000004c       $C$L1:    
     467                      .dwpsn  file "../UART/UartAdded.c",line 139,column 3,is_stmt
     468 0000004c 9A00          MOVB      AL,#0                 ; [CPU_] |139| 
     469 0000004d       $C$L2:    
TMS320C2000 Assembler PC v6.2.7 Thu Jul 02 08:31:10 2015

Tools Copyright (c) 1996-2014 Texas Instruments Incorporated
C:\Users\Tester\AppData\Local\Temp\0600410                           PAGE   10

     470                      .dwpsn  file "../UART/UartAdded.c",line 149,column 1,is_stmt
     471 0000004d FE82          SUBB      SP,#2                 ; [CPU_U] 
     472                      .dwcfi  cfa_offset, -2
     473              $C$DW$33        .dwtag  DW_TAG_TI_branch
     474                      .dwattr $C$DW$33, DW_AT_low_pc(0x00)
     475                      .dwattr $C$DW$33, DW_AT_TI_return
     476 0000004e 0006          LRETR     ; [CPU_] 
     477                      ; return occurs ; [] 
     478                      .dwattr $C$DW$30, DW_AT_TI_end_file("../UART/UartAdded.c")
     479                      .dwattr $C$DW$30, DW_AT_TI_end_line(0x95)
     480                      .dwattr $C$DW$30, DW_AT_TI_end_column(0x01)
     481                      .dwendentry
     482                      .dwendtag $C$DW$30
     483              
     484 0000004f               .sect   ".text"
     485                      .clink
     486                      .global _testUART_RCAddRS
     487              
     488              $C$DW$34        .dwtag  DW_TAG_subprogram, DW_AT_name("testUART_RCAddRS")
     489                      .dwattr $C$DW$34, DW_AT_low_pc(_testUART_RCAddRS)
     490                      .dwattr $C$DW$34, DW_AT_high_pc(0x00)
     491                      .dwattr $C$DW$34, DW_AT_TI_symbol_name("_testUART_RCAddRS")
     492                      .dwattr $C$DW$34, DW_AT_external
     493                      .dwattr $C$DW$34, DW_AT_type(*$C$DW$T$5)
     494                      .dwattr $C$DW$34, DW_AT_TI_begin_file("../UART/UartAdded.c")
     495                      .dwattr $C$DW$34, DW_AT_TI_begin_line(0x97)
     496                      .dwattr $C$DW$34, DW_AT_TI_begin_column(0x06)
     497                      .dwattr $C$DW$34, DW_AT_TI_max_frame_size(-2)
     498                      .dwpsn  file "../UART/UartAdded.c",line 152,column 1,is_stmt,address _testUART_RCAddRS
     499              
     500                      .dwfde $C$DW$CIE, _testUART_RCAddRS
     501              
     502              ;***************************************************************
     503              ;* FNAME: _testUART_RCAddRS             FR SIZE:   0           *
     504              ;*                                                             *
     505              ;* FUNCTION ENVIRONMENT                                        *
     506              ;*                                                             *
     507              ;* FUNCTION PROPERTIES                                         *
     508              ;*                            0 Parameter,  0 Auto,  0 SOE     *
     509              ;***************************************************************
     510              
     511 0000004f       _testUART_RCAddRS:
     512                      .dwcfi  cfa_offset, -2
     513                      .dwcfi  save_reg_to_mem, 26, 0
     514                      .dwcfi  save_reg_to_reg, 78, 26
     515                      .dwpsn  file "../UART/UartAdded.c",line 154,column 2,is_stmt
     516 0000004f 761F!         MOVW      DP,#_ScibRegs+11      ; [CPU_U] 
         00000050 0000 
     517 00000051 CC0B!         AND       AL,@_ScibRegs+11,#0x1f00 ; [CPU_] |154| 
         00000052 1F00 
     518 00000053 FFC7          LSR       AL,8                  ; [CPU_] |154| 
     519                      .dwpsn  file "../UART/UartAdded.c",line 160,column 1,is_stmt
     520              $C$DW$35        .dwtag  DW_TAG_TI_branch
     521                      .dwattr $C$DW$35, DW_AT_low_pc(0x00)
     522                      .dwattr $C$DW$35, DW_AT_TI_return
TMS320C2000 Assembler PC v6.2.7 Thu Jul 02 08:31:10 2015

Tools Copyright (c) 1996-2014 Texas Instruments Incorporated
C:\Users\Tester\AppData\Local\Temp\0600410                           PAGE   11

     523 00000054 0006          LRETR     ; [CPU_] 
     524                      ; return occurs ; [] 
     525                      .dwattr $C$DW$34, DW_AT_TI_end_file("../UART/UartAdded.c")
     526                      .dwattr $C$DW$34, DW_AT_TI_end_line(0xa0)
     527                      .dwattr $C$DW$34, DW_AT_TI_end_column(0x01)
     528                      .dwendentry
     529                      .dwendtag $C$DW$34
     530              
     531 00000055               .sect   ".text"
     532                      .clink
     533                      .global _testUART_TXAddRS
     534              
     535              $C$DW$36        .dwtag  DW_TAG_subprogram, DW_AT_name("testUART_TXAddRS")
     536                      .dwattr $C$DW$36, DW_AT_low_pc(_testUART_TXAddRS)
     537                      .dwattr $C$DW$36, DW_AT_high_pc(0x00)
     538                      .dwattr $C$DW$36, DW_AT_TI_symbol_name("_testUART_TXAddRS")
     539                      .dwattr $C$DW$36, DW_AT_external
     540                      .dwattr $C$DW$36, DW_AT_type(*$C$DW$T$5)
     541                      .dwattr $C$DW$36, DW_AT_TI_begin_file("../UART/UartAdded.c")
     542                      .dwattr $C$DW$36, DW_AT_TI_begin_line(0xa2)
     543                      .dwattr $C$DW$36, DW_AT_TI_begin_column(0x06)
     544                      .dwattr $C$DW$36, DW_AT_TI_max_frame_size(-2)
     545                      .dwpsn  file "../UART/UartAdded.c",line 163,column 1,is_stmt,address _testUART_TXAddRS
     546              
     547                      .dwfde $C$DW$CIE, _testUART_TXAddRS
     548              
     549              ;***************************************************************
     550              ;* FNAME: _testUART_TXAddRS             FR SIZE:   0           *
     551              ;*                                                             *
     552              ;* FUNCTION ENVIRONMENT                                        *
     553              ;*                                                             *
     554              ;* FUNCTION PROPERTIES                                         *
     555              ;*                            0 Parameter,  0 Auto,  0 SOE     *
     556              ;***************************************************************
     557              
     558 00000055       _testUART_TXAddRS:
     559                      .dwcfi  cfa_offset, -2
     560                      .dwcfi  save_reg_to_mem, 26, 0
     561                      .dwcfi  save_reg_to_reg, 78, 26
     562                      .dwpsn  file "../UART/UartAdded.c",line 165,column 2,is_stmt
     563 00000055 761F!         MOVW      DP,#_ScibRegs+10      ; [CPU_U] 
         00000056 0000 
     564 00000057 CC0A!         AND       AL,@_ScibRegs+10,#0x1f00 ; [CPU_] |165| 
         00000058 1F00 
     565 00000059 FFC7          LSR       AL,8                  ; [CPU_] |165| 
     566                      .dwpsn  file "../UART/UartAdded.c",line 171,column 1,is_stmt
     567              $C$DW$37        .dwtag  DW_TAG_TI_branch
     568                      .dwattr $C$DW$37, DW_AT_low_pc(0x00)
     569                      .dwattr $C$DW$37, DW_AT_TI_return
     570 0000005a 0006          LRETR     ; [CPU_] 
     571                      ; return occurs ; [] 
     572                      .dwattr $C$DW$36, DW_AT_TI_end_file("../UART/UartAdded.c")
     573                      .dwattr $C$DW$36, DW_AT_TI_end_line(0xab)
     574                      .dwattr $C$DW$36, DW_AT_TI_end_column(0x01)
     575                      .dwendentry
TMS320C2000 Assembler PC v6.2.7 Thu Jul 02 08:31:10 2015

Tools Copyright (c) 1996-2014 Texas Instruments Incorporated
C:\Users\Tester\AppData\Local\Temp\0600410                           PAGE   12

     576                      .dwendtag $C$DW$36
     577              
     578 0000005b               .sect   ".text"
     579                      .clink
     580                      .global _setUART_TXAddRS
     581              
     582              $C$DW$38        .dwtag  DW_TAG_subprogram, DW_AT_name("setUART_TXAddRS")
     583                      .dwattr $C$DW$38, DW_AT_low_pc(_setUART_TXAddRS)
     584                      .dwattr $C$DW$38, DW_AT_high_pc(0x00)
     585                      .dwattr $C$DW$38, DW_AT_TI_symbol_name("_setUART_TXAddRS")
     586                      .dwattr $C$DW$38, DW_AT_external
     587                      .dwattr $C$DW$38, DW_AT_type(*$C$DW$T$5)
     588                      .dwattr $C$DW$38, DW_AT_TI_begin_file("../UART/UartAdded.c")
     589                      .dwattr $C$DW$38, DW_AT_TI_begin_line(0xad)
     590                      .dwattr $C$DW$38, DW_AT_TI_begin_column(0x06)
     591                      .dwattr $C$DW$38, DW_AT_TI_max_frame_size(-4)
     592                      .dwpsn  file "../UART/UartAdded.c",line 174,column 1,is_stmt,address _setUART_TXAddRS
     593              
     594                      .dwfde $C$DW$CIE, _setUART_TXAddRS
     595              $C$DW$39        .dwtag  DW_TAG_formal_parameter, DW_AT_name("tx")
     596                      .dwattr $C$DW$39, DW_AT_TI_symbol_name("_tx")
     597                      .dwattr $C$DW$39, DW_AT_type(*$C$DW$T$5)
     598                      .dwattr $C$DW$39, DW_AT_location[DW_OP_reg0]
     599              
     600              ;***************************************************************
     601              ;* FNAME: _setUART_TXAddRS              FR SIZE:   2           *
     602              ;*                                                             *
     603              ;* FUNCTION ENVIRONMENT                                        *
     604              ;*                                                             *
     605              ;* FUNCTION PROPERTIES                                         *
     606              ;*                            0 Parameter,  1 Auto,  0 SOE     *
     607              ;***************************************************************
     608              
     609 0000005b       _setUART_TXAddRS:
     610                      .dwcfi  cfa_offset, -2
     611                      .dwcfi  save_reg_to_mem, 26, 0
     612                      .dwcfi  save_reg_to_reg, 78, 26
     613 0000005b FE02          ADDB      SP,#2                 ; [CPU_U] 
     614                      .dwcfi  cfa_offset, -4
     615              $C$DW$40        .dwtag  DW_TAG_variable, DW_AT_name("tx")
     616                      .dwattr $C$DW$40, DW_AT_TI_symbol_name("_tx")
     617                      .dwattr $C$DW$40, DW_AT_type(*$C$DW$T$5)
     618                      .dwattr $C$DW$40, DW_AT_location[DW_OP_breg20 -1]
     619 0000005c 9641          MOV       *-SP[1],AL            ; [CPU_] |174| 
     620                      .dwpsn  file "../UART/UartAdded.c",line 176,column 5,is_stmt
     621 0000005d 761F!         MOVW      DP,#_ScibRegs+10      ; [CPU_U] 
         0000005e 0000 
     622 0000005f CC0A!         AND       AL,@_ScibRegs+10,#0x1f00 ; [CPU_] |176| 
         00000060 1F00 
     623 00000061 FFC7          LSR       AL,8                  ; [CPU_] |176| 
     624 00000062 5207          CMPB      AL,#7                 ; [CPU_] |176| 
     625 00000063 6305          B         $C$L3,GEQ             ; [CPU_] |176| 
     626                      ; branchcc occurs ; [] |176| 
     627                      .dwpsn  file "../UART/UartAdded.c",line 177,column 6,is_stmt
     628 00000064 9241          MOV       AL,*-SP[1]            ; [CPU_] |177| 
TMS320C2000 Assembler PC v6.2.7 Thu Jul 02 08:31:10 2015

Tools Copyright (c) 1996-2014 Texas Instruments Incorporated
C:\Users\Tester\AppData\Local\Temp\0600410                           PAGE   13

     629 00000065 9609!         MOV       @_ScibRegs+9,AL       ; [CPU_] |177| 
     630                      .dwpsn  file "../UART/UartAdded.c",line 178,column 6,is_stmt
     631 00000066 9A01          MOVB      AL,#1                 ; [CPU_] |178| 
     632 00000067 6F02          B         $C$L4,UNC             ; [CPU_] |178| 
     633                      ; branch occurs ; [] |178| 
     634 00000068       $C$L3:    
     635                      .dwpsn  file "../UART/UartAdded.c",line 181,column 6,is_stmt
     636 00000068 9A00          MOVB      AL,#0                 ; [CPU_] |181| 
     637 00000069       $C$L4:    
     638                      .dwpsn  file "../UART/UartAdded.c",line 193,column 1,is_stmt
     639 00000069 FE82          SUBB      SP,#2                 ; [CPU_U] 
     640                      .dwcfi  cfa_offset, -2
     641              $C$DW$41        .dwtag  DW_TAG_TI_branch
     642                      .dwattr $C$DW$41, DW_AT_low_pc(0x00)
     643                      .dwattr $C$DW$41, DW_AT_TI_return
     644 0000006a 0006          LRETR     ; [CPU_] 
     645                      ; return occurs ; [] 
     646                      .dwattr $C$DW$38, DW_AT_TI_end_file("../UART/UartAdded.c")
     647                      .dwattr $C$DW$38, DW_AT_TI_end_line(0xc1)
     648                      .dwattr $C$DW$38, DW_AT_TI_end_column(0x01)
     649                      .dwendentry
     650                      .dwendtag $C$DW$38
     651              
     652 00000000               .sect   ".text:retain"
     653                      .retain
     654                      .retainrefs
     655                      .global _scibTxFifoIsr
     656              
     657              $C$DW$42        .dwtag  DW_TAG_subprogram, DW_AT_name("scibTxFifoIsr")
     658                      .dwattr $C$DW$42, DW_AT_low_pc(_scibTxFifoIsr)
     659                      .dwattr $C$DW$42, DW_AT_high_pc(0x00)
     660                      .dwattr $C$DW$42, DW_AT_TI_symbol_name("_scibTxFifoIsr")
     661                      .dwattr $C$DW$42, DW_AT_external
     662                      .dwattr $C$DW$42, DW_AT_TI_begin_file("../UART/UartAdded.c")
     663                      .dwattr $C$DW$42, DW_AT_TI_begin_line(0xc3)
     664                      .dwattr $C$DW$42, DW_AT_TI_begin_column(0x10)
     665                      .dwattr $C$DW$42, DW_AT_TI_interrupt
     666                      .dwattr $C$DW$42, DW_AT_TI_max_frame_size(-28)
     667                      .dwpsn  file "../UART/UartAdded.c",line 196,column 1,is_stmt,address _scibTxFifoIsr
     668              
     669                      .dwfde $C$DW$CIE, _scibTxFifoIsr
     670              
     671              ;***************************************************************
     672              ;* FNAME: _scibTxFifoIsr                FR SIZE:  26           *
     673              ;*                                                             *
     674              ;* FUNCTION ENVIRONMENT                                        *
     675              ;*                                                             *
     676              ;* FUNCTION PROPERTIES                                         *
     677              ;*                            0 Parameter,  1 Auto, 24 SOE     *
     678              ;***************************************************************
     679              
     680 00000000       _scibTxFifoIsr:
     681                      .dwcfi  cfa_offset, -2
     682                      .dwcfi  save_reg_to_mem, 26, 0
     683                      .dwcfi  save_reg_to_reg, 78, 26
TMS320C2000 Assembler PC v6.2.7 Thu Jul 02 08:31:10 2015

Tools Copyright (c) 1996-2014 Texas Instruments Incorporated
C:\Users\Tester\AppData\Local\Temp\0600410                           PAGE   14

     684 00000000 761B          ASP       ; [CPU_] 
     685 00000001 FFF0          PUSH      RB                    ; [CPU_] 
     686                      .dwcfi  save_reg_to_mem, 73, 2
     687                      .dwcfi  save_reg_to_mem, 74, 3
     688                      .dwcfi  cfa_offset, -4
     689 00000002 0005          PUSH      AR1H:AR0H             ; [CPU_] 
     690                      .dwcfi  save_reg_to_mem, 5, 4
     691                      .dwcfi  save_reg_to_mem, 7, 5
     692                      .dwcfi  cfa_offset, -6
     693 00000003 ABBD          MOVL      *SP++,XT              ; [CPU_] 
     694                      .dwcfi  save_reg_to_mem, 21, 6
     695                      .dwcfi  save_reg_to_mem, 22, 7
     696                      .dwcfi  cfa_offset, -8
     697 00000004 A8BD          MOVL      *SP++,XAR4            ; [CPU_] 
     698                      .dwcfi  save_reg_to_mem, 12, 8
     699                      .dwcfi  save_reg_to_mem, 13, 9
     700                      .dwcfi  cfa_offset, -10
     701 00000005 A0BD          MOVL      *SP++,XAR5            ; [CPU_] 
     702                      .dwcfi  save_reg_to_mem, 14, 10
     703                      .dwcfi  save_reg_to_mem, 15, 11
     704                      .dwcfi  cfa_offset, -12
     705 00000006 C2BD          MOVL      *SP++,XAR6            ; [CPU_] 
     706                      .dwcfi  save_reg_to_mem, 16, 12
     707                      .dwcfi  save_reg_to_mem, 17, 13
     708                      .dwcfi  cfa_offset, -14
     709 00000007 C3BD          MOVL      *SP++,XAR7            ; [CPU_] 
     710                      .dwcfi  save_reg_to_mem, 18, 14
     711                      .dwcfi  save_reg_to_mem, 19, 15
     712                      .dwcfi  cfa_offset, -16
     713 00000008 E200          MOV32     *SP++,STF             ; [CPU_] 
         00000009 00BD 
     714                      .dwcfi  save_reg_to_mem, 39, 16
     715                      .dwcfi  save_reg_to_mem, 40, 17
     716                      .dwcfi  cfa_offset, -18
     717 0000000a E203          MOV32     *SP++,R0H             ; [CPU_] 
         0000000b 00BD 
     718 0000000c E203          MOV32     *SP++,R1H             ; [CPU_] 
         0000000d 01BD 
     719 0000000e E203          MOV32     *SP++,R2H             ; [CPU_] 
         0000000f 02BD 
     720 00000010 E203          MOV32     *SP++,R3H             ; [CPU_] 
         00000011 03BD 
     721 00000012 E630          SETFLG    RNDF32=1, RNDF64=1    ; [CPU_] 
         00000013 0600 
     722 00000014 FE02          ADDB      SP,#2                 ; [CPU_U] 
     723                      .dwcfi  cfa_offset, -28
     724 00000015 FF69          SPM       0                     ; [CPU_] 
     725 00000016 2942          CLRC      PAGE0,OVM             ; [CPU_] 
     726 00000017 5616          CLRC      AMODE                 ; [CPU_] 
     727              $C$DW$43        .dwtag  DW_TAG_variable, DW_AT_name("tmp")
     728                      .dwattr $C$DW$43, DW_AT_TI_symbol_name("_tmp")
     729                      .dwattr $C$DW$43, DW_AT_type(*$C$DW$T$5)
     730                      .dwattr $C$DW$43, DW_AT_location[DW_OP_breg20 -1]
     731                      .dwpsn  file "../UART/UartAdded.c",line 199,column 2,is_stmt
     732 00000018 6F13          B         $C$L7,UNC             ; [CPU_] |199| 
TMS320C2000 Assembler PC v6.2.7 Thu Jul 02 08:31:10 2015

Tools Copyright (c) 1996-2014 Texas Instruments Incorporated
C:\Users\Tester\AppData\Local\Temp\0600410                           PAGE   15

     733                      ; branch occurs ; [] |199| 
     734 00000019       $C$L5:    
     735                      .dwpsn  file "../UART/UartAdded.c",line 200,column 3,is_stmt
     736 00000019 5CAD          MOVZ      AR4,SP                ; [CPU_U] |200| 
     737 0000001a DC81          SUBB      XAR4,#1               ; [CPU_U] |200| 
     738              $C$DW$44        .dwtag  DW_TAG_TI_branch
     739                      .dwattr $C$DW$44, DW_AT_low_pc(0x00)
     740                      .dwattr $C$DW$44, DW_AT_name("_getTxBufBForInt")
     741                      .dwattr $C$DW$44, DW_AT_TI_call
     742 0000001b 7640!         LCR       #_getTxBufBForInt     ; [CPU_] |200| 
         0000001c 0000 
     743                      ; call occurs [#_getTxBufBForInt] ; [] |200| 
     744 0000001d 5200          CMPB      AL,#0                 ; [CPU_] |200| 
     745 0000001e EC08          BF        $C$L6,EQ              ; [CPU_] |200| 
     746                      ; branchcc occurs ; [] |200| 
     747                      .dwpsn  file "../UART/UartAdded.c",line 201,column 4,is_stmt
     748 0000001f 9241          MOV       AL,*-SP[1]            ; [CPU_] |201| 
     749 00000020 761F!         MOVW      DP,#_ScibRegs+9       ; [CPU_U] 
         00000021 0000 
     750 00000022 9609!         MOV       @_ScibRegs+9,AL       ; [CPU_] |201| 
     751                      .dwpsn  file "../UART/UartAdded.c",line 202,column 4,is_stmt
     752 00000023 1A0A!         OR        @_ScibRegs+10,#0x0040 ; [CPU_] |202| 
         00000024 0040 
     753                      .dwpsn  file "../UART/UartAdded.c",line 203,column 3,is_stmt
     754 00000025 6F06          B         $C$L7,UNC             ; [CPU_] |203| 
     755                      ; branch occurs ; [] |203| 
     756 00000026       $C$L6:    
     757                      .dwpsn  file "../UART/UartAdded.c",line 205,column 4,is_stmt
     758 00000026 761F!         MOVW      DP,#_ScibRegs+10      ; [CPU_U] 
         00000027 0000 
     759 00000028 180A!         AND       @_ScibRegs+10,#0xffdf ; [CPU_] |205| 
         00000029 FFDF 
     760                      .dwpsn  file "../UART/UartAdded.c",line 206,column 4,is_stmt
     761 0000002a 6F08          B         $C$L8,UNC             ; [CPU_] |206| 
     762                      ; branch occurs ; [] |206| 
     763 0000002b       $C$L7:    
     764                      .dwpsn  file "../UART/UartAdded.c",line 199,column 8,is_stmt
     765 0000002b 761F!         MOVW      DP,#_ScibRegs+10      ; [CPU_U] 
         0000002c 0000 
     766 0000002d CC0A!         AND       AL,@_ScibRegs+10,#0x1f00 ; [CPU_] |199| 
         0000002e 1F00 
     767 0000002f FFC7          LSR       AL,8                  ; [CPU_] |199| 
     768 00000030 5207          CMPB      AL,#7                 ; [CPU_] |199| 
     769 00000031 64E8          B         $C$L5,LT              ; [CPU_] |199| 
     770                      ; branchcc occurs ; [] |199| 
     771 00000032       $C$L8:    
     772                      .dwpsn  file "../UART/UartAdded.c",line 209,column 2,is_stmt
     773 00000032 761F!         MOVW      DP,#_PieCtrlRegs+1    ; [CPU_U] 
         00000033 0000 
     774 00000034 1A01!         OR        @_PieCtrlRegs+1,#0x0100 ; [CPU_] |209| 
         00000035 0100 
     775                      .dwpsn  file "../UART/UartAdded.c",line 226,column 1,is_stmt
     776 00000036 FE82          SUBB      SP,#2                 ; [CPU_U] 
     777                      .dwcfi  cfa_offset, -26
     778 00000037 E2AF          MOV32     R3H,*--SP             ; [CPU_] 
TMS320C2000 Assembler PC v6.2.7 Thu Jul 02 08:31:10 2015

Tools Copyright (c) 1996-2014 Texas Instruments Incorporated
C:\Users\Tester\AppData\Local\Temp\0600410                           PAGE   16

         00000038 03BE 
     779 00000039 E2AF          MOV32     R2H,*--SP             ; [CPU_] 
         0000003a 02BE 
     780 0000003b E2AF          MOV32     R1H,*--SP             ; [CPU_] 
         0000003c 01BE 
     781 0000003d E2AF          MOV32     R0H,*--SP             ; [CPU_] 
         0000003e 00BE 
     782 0000003f E280          MOV32     STF,*--SP             ; [CPU_] 
         00000040 00BE 
     783                      .dwcfi  cfa_offset, -16
     784                      .dwcfi  restore_reg, 39
     785                      .dwcfi  restore_reg, 40
     786 00000041 C5BE          MOVL      XAR7,*--SP            ; [CPU_] 
     787                      .dwcfi  cfa_offset, -14
     788                      .dwcfi  restore_reg, 18
     789 00000042 C4BE          MOVL      XAR6,*--SP            ; [CPU_] 
     790                      .dwcfi  cfa_offset, -12
     791                      .dwcfi  restore_reg, 16
     792 00000043 83BE          MOVL      XAR5,*--SP            ; [CPU_] 
     793                      .dwcfi  cfa_offset, -10
     794                      .dwcfi  restore_reg, 14
     795 00000044 8ABE          MOVL      XAR4,*--SP            ; [CPU_] 
     796                      .dwcfi  cfa_offset, -8
     797                      .dwcfi  restore_reg, 12
     798 00000045 87BE          MOVL      XT,*--SP              ; [CPU_] 
     799                      .dwcfi  cfa_offset, -6
     800                      .dwcfi  restore_reg, 22
     801                      .dwcfi  restore_reg, 21
     802 00000046 0003          POP       AR1H:AR0H             ; [CPU_] 
     803                      .dwcfi  cfa_offset, -4
     804                      .dwcfi  restore_reg, 5
     805                      .dwcfi  restore_reg, 7
     806 00000047 FFF1          POP       RB                    ; [CPU_] 
     807                      .dwcfi  cfa_offset, -2
     808                      .dwcfi  restore_reg, 73
     809                      .dwcfi  restore_reg, 74
     810 00000048 7617          NASP      ; [CPU_] 
     811              $C$DW$45        .dwtag  DW_TAG_TI_branch
     812                      .dwattr $C$DW$45, DW_AT_low_pc(0x00)
     813                      .dwattr $C$DW$45, DW_AT_TI_return
     814 00000049 7602          IRET      ; [CPU_] 
     815                      ; return occurs ; [] 
     816                      .dwattr $C$DW$42, DW_AT_TI_end_file("../UART/UartAdded.c")
     817                      .dwattr $C$DW$42, DW_AT_TI_end_line(0xe2)
     818                      .dwattr $C$DW$42, DW_AT_TI_end_column(0x01)
     819                      .dwendentry
     820                      .dwendtag $C$DW$42
     821              
     822 0000004a               .sect   ".text:retain"
     823                      .retain
     824                      .retainrefs
     825                      .global _scibRxFifoIsr
     826              
     827              $C$DW$46        .dwtag  DW_TAG_subprogram, DW_AT_name("scibRxFifoIsr")
     828                      .dwattr $C$DW$46, DW_AT_low_pc(_scibRxFifoIsr)
TMS320C2000 Assembler PC v6.2.7 Thu Jul 02 08:31:10 2015

Tools Copyright (c) 1996-2014 Texas Instruments Incorporated
C:\Users\Tester\AppData\Local\Temp\0600410                           PAGE   17

     829                      .dwattr $C$DW$46, DW_AT_high_pc(0x00)
     830                      .dwattr $C$DW$46, DW_AT_TI_symbol_name("_scibRxFifoIsr")
     831                      .dwattr $C$DW$46, DW_AT_external
     832                      .dwattr $C$DW$46, DW_AT_TI_begin_file("../UART/UartAdded.c")
     833                      .dwattr $C$DW$46, DW_AT_TI_begin_line(0xe4)
     834                      .dwattr $C$DW$46, DW_AT_TI_begin_column(0x10)
     835                      .dwattr $C$DW$46, DW_AT_TI_interrupt
     836                      .dwattr $C$DW$46, DW_AT_TI_max_frame_size(-28)
     837                      .dwpsn  file "../UART/UartAdded.c",line 229,column 1,is_stmt,address _scibRxFifoIsr
     838              
     839                      .dwfde $C$DW$CIE, _scibRxFifoIsr
     840              
     841              ;***************************************************************
     842              ;* FNAME: _scibRxFifoIsr                FR SIZE:  26           *
     843              ;*                                                             *
     844              ;* FUNCTION ENVIRONMENT                                        *
     845              ;*                                                             *
     846              ;* FUNCTION PROPERTIES                                         *
     847              ;*                            0 Parameter,  1 Auto, 24 SOE     *
     848              ;***************************************************************
     849              
     850 0000004a       _scibRxFifoIsr:
     851                      .dwcfi  cfa_offset, -2
     852                      .dwcfi  save_reg_to_mem, 26, 0
     853                      .dwcfi  save_reg_to_reg, 78, 26
     854 0000004a 761B          ASP       ; [CPU_] 
     855 0000004b FFF0          PUSH      RB                    ; [CPU_] 
     856                      .dwcfi  save_reg_to_mem, 73, 2
     857                      .dwcfi  save_reg_to_mem, 74, 3
     858                      .dwcfi  cfa_offset, -4
     859 0000004c 0005          PUSH      AR1H:AR0H             ; [CPU_] 
     860                      .dwcfi  save_reg_to_mem, 5, 4
     861                      .dwcfi  save_reg_to_mem, 7, 5
     862                      .dwcfi  cfa_offset, -6
     863 0000004d ABBD          MOVL      *SP++,XT              ; [CPU_] 
     864                      .dwcfi  save_reg_to_mem, 21, 6
     865                      .dwcfi  save_reg_to_mem, 22, 7
     866                      .dwcfi  cfa_offset, -8
     867 0000004e A8BD          MOVL      *SP++,XAR4            ; [CPU_] 
     868                      .dwcfi  save_reg_to_mem, 12, 8
     869                      .dwcfi  save_reg_to_mem, 13, 9
     870                      .dwcfi  cfa_offset, -10
     871 0000004f A0BD          MOVL      *SP++,XAR5            ; [CPU_] 
     872                      .dwcfi  save_reg_to_mem, 14, 10
     873                      .dwcfi  save_reg_to_mem, 15, 11
     874                      .dwcfi  cfa_offset, -12
     875 00000050 C2BD          MOVL      *SP++,XAR6            ; [CPU_] 
     876                      .dwcfi  save_reg_to_mem, 16, 12
     877                      .dwcfi  save_reg_to_mem, 17, 13
     878                      .dwcfi  cfa_offset, -14
     879 00000051 C3BD          MOVL      *SP++,XAR7            ; [CPU_] 
     880                      .dwcfi  save_reg_to_mem, 18, 14
     881                      .dwcfi  save_reg_to_mem, 19, 15
     882                      .dwcfi  cfa_offset, -16
     883 00000052 E200          MOV32     *SP++,STF             ; [CPU_] 
TMS320C2000 Assembler PC v6.2.7 Thu Jul 02 08:31:10 2015

Tools Copyright (c) 1996-2014 Texas Instruments Incorporated
C:\Users\Tester\AppData\Local\Temp\0600410                           PAGE   18

         00000053 00BD 
     884                      .dwcfi  save_reg_to_mem, 39, 16
     885                      .dwcfi  save_reg_to_mem, 40, 17
     886                      .dwcfi  cfa_offset, -18
     887 00000054 E203          MOV32     *SP++,R0H             ; [CPU_] 
         00000055 00BD 
     888 00000056 E203          MOV32     *SP++,R1H             ; [CPU_] 
         00000057 01BD 
     889 00000058 E203          MOV32     *SP++,R2H             ; [CPU_] 
         00000059 02BD 
     890 0000005a E203          MOV32     *SP++,R3H             ; [CPU_] 
         0000005b 03BD 
     891 0000005c E630          SETFLG    RNDF32=1, RNDF64=1    ; [CPU_] 
         0000005d 0600 
     892 0000005e FE02          ADDB      SP,#2                 ; [CPU_U] 
     893                      .dwcfi  cfa_offset, -28
     894 0000005f FF69          SPM       0                     ; [CPU_] 
     895 00000060 2942          CLRC      PAGE0,OVM             ; [CPU_] 
     896 00000061 5616          CLRC      AMODE                 ; [CPU_] 
     897              $C$DW$47        .dwtag  DW_TAG_variable, DW_AT_name("tmp")
     898                      .dwattr $C$DW$47, DW_AT_TI_symbol_name("_tmp")
     899                      .dwattr $C$DW$47, DW_AT_type(*$C$DW$T$5)
     900                      .dwattr $C$DW$47, DW_AT_location[DW_OP_breg20 -1]
     901                      .dwpsn  file "../UART/UartAdded.c",line 232,column 2,is_stmt
     902 00000062 6F0A          B         $C$L10,UNC            ; [CPU_] |232| 
     903                      ; branch occurs ; [] |232| 
     904 00000063       $C$L9:    
     905                      .dwpsn  file "../UART/UartAdded.c",line 233,column 4,is_stmt
     906 00000063 9207!         MOV       AL,@_ScibRegs+7       ; [CPU_] |233| 
     907 00000064 9641          MOV       *-SP[1],AL            ; [CPU_] |233| 
     908                      .dwpsn  file "../UART/UartAdded.c",line 235,column 3,is_stmt
     909              $C$DW$48        .dwtag  DW_TAG_TI_branch
     910                      .dwattr $C$DW$48, DW_AT_low_pc(0x00)
     911                      .dwattr $C$DW$48, DW_AT_name("_testRcBufB")
     912                      .dwattr $C$DW$48, DW_AT_TI_call
     913 00000065 7640!         LCR       #_testRcBufB          ; [CPU_] |235| 
         00000066 0000 
     914                      ; call occurs [#_testRcBufB] ; [] |235| 
     915 00000067 5200          CMPB      AL,#0                 ; [CPU_] |235| 
     916 00000068 EC04          BF        $C$L10,EQ             ; [CPU_] |235| 
     917                      ; branchcc occurs ; [] |235| 
     918                      .dwpsn  file "../UART/UartAdded.c",line 236,column 4,is_stmt
     919 00000069 9241          MOV       AL,*-SP[1]            ; [CPU_] |236| 
     920              $C$DW$49        .dwtag  DW_TAG_TI_branch
     921                      .dwattr $C$DW$49, DW_AT_low_pc(0x00)
     922                      .dwattr $C$DW$49, DW_AT_name("_putRcBufBFromInt")
     923                      .dwattr $C$DW$49, DW_AT_TI_call
     924 0000006a 7640!         LCR       #_putRcBufBFromInt    ; [CPU_] |236| 
         0000006b 0000 
     925                      ; call occurs [#_putRcBufBFromInt] ; [] |236| 
     926 0000006c       $C$L10:    
     927                      .dwpsn  file "../UART/UartAdded.c",line 243,column 2,is_stmt
     928 0000006c 761F!         MOVW      DP,#_ScibRegs+11      ; [CPU_U] 
         0000006d 0000 
     929 0000006e CC0B!         AND       AL,@_ScibRegs+11,#0x1f00 ; [CPU_] |243| 
TMS320C2000 Assembler PC v6.2.7 Thu Jul 02 08:31:10 2015

Tools Copyright (c) 1996-2014 Texas Instruments Incorporated
C:\Users\Tester\AppData\Local\Temp\0600410                           PAGE   19

         0000006f 1F00 
     930 00000070 FFC7          LSR       AL,8                  ; [CPU_] |243| 
     931 00000071 EDF2          BF        $C$L9,NEQ             ; [CPU_] |243| 
     932                      ; branchcc occurs ; [] |243| 
     933                      .dwpsn  file "../UART/UartAdded.c",line 244,column 2,is_stmt
     934 00000072 1A0B!         OR        @_ScibRegs+11,#0x0040 ; [CPU_] |244| 
         00000073 0040 
     935                      .dwpsn  file "../UART/UartAdded.c",line 245,column 2,is_stmt
     936 00000074 1A0B!         OR        @_ScibRegs+11,#0x4000 ; [CPU_] |245| 
         00000075 4000 
     937                      .dwpsn  file "../UART/UartAdded.c",line 246,column 2,is_stmt
     938 00000076 761F!         MOVW      DP,#_PieCtrlRegs+1    ; [CPU_U] 
         00000077 0000 
     939 00000078 1A01!         OR        @_PieCtrlRegs+1,#0x0100 ; [CPU_] |246| 
         00000079 0100 
     940                      .dwpsn  file "../UART/UartAdded.c",line 265,column 1,is_stmt
     941 0000007a FE82          SUBB      SP,#2                 ; [CPU_U] 
     942                      .dwcfi  cfa_offset, -26
     943 0000007b E2AF          MOV32     R3H,*--SP             ; [CPU_] 
         0000007c 03BE 
     944 0000007d E2AF          MOV32     R2H,*--SP             ; [CPU_] 
         0000007e 02BE 
     945 0000007f E2AF          MOV32     R1H,*--SP             ; [CPU_] 
         00000080 01BE 
     946 00000081 E2AF          MOV32     R0H,*--SP             ; [CPU_] 
         00000082 00BE 
     947 00000083 E280          MOV32     STF,*--SP             ; [CPU_] 
         00000084 00BE 
     948                      .dwcfi  cfa_offset, -16
     949                      .dwcfi  restore_reg, 39
     950                      .dwcfi  restore_reg, 40
     951 00000085 C5BE          MOVL      XAR7,*--SP            ; [CPU_] 
     952                      .dwcfi  cfa_offset, -14
     953                      .dwcfi  restore_reg, 18
     954 00000086 C4BE          MOVL      XAR6,*--SP            ; [CPU_] 
     955                      .dwcfi  cfa_offset, -12
     956                      .dwcfi  restore_reg, 16
     957 00000087 83BE          MOVL      XAR5,*--SP            ; [CPU_] 
     958                      .dwcfi  cfa_offset, -10
     959                      .dwcfi  restore_reg, 14
     960 00000088 8ABE          MOVL      XAR4,*--SP            ; [CPU_] 
     961                      .dwcfi  cfa_offset, -8
     962                      .dwcfi  restore_reg, 12
     963 00000089 87BE          MOVL      XT,*--SP              ; [CPU_] 
     964                      .dwcfi  cfa_offset, -6
     965                      .dwcfi  restore_reg, 22
     966                      .dwcfi  restore_reg, 21
     967 0000008a 0003          POP       AR1H:AR0H             ; [CPU_] 
     968                      .dwcfi  cfa_offset, -4
     969                      .dwcfi  restore_reg, 5
     970                      .dwcfi  restore_reg, 7
     971 0000008b FFF1          POP       RB                    ; [CPU_] 
     972                      .dwcfi  cfa_offset, -2
     973                      .dwcfi  restore_reg, 73
     974                      .dwcfi  restore_reg, 74
TMS320C2000 Assembler PC v6.2.7 Thu Jul 02 08:31:10 2015

Tools Copyright (c) 1996-2014 Texas Instruments Incorporated
C:\Users\Tester\AppData\Local\Temp\0600410                           PAGE   20

     975 0000008c 7617          NASP      ; [CPU_] 
     976              $C$DW$50        .dwtag  DW_TAG_TI_branch
     977                      .dwattr $C$DW$50, DW_AT_low_pc(0x00)
     978                      .dwattr $C$DW$50, DW_AT_TI_return
     979 0000008d 7602          IRET      ; [CPU_] 
     980                      ; return occurs ; [] 
     981                      .dwattr $C$DW$46, DW_AT_TI_end_file("../UART/UartAdded.c")
     982                      .dwattr $C$DW$46, DW_AT_TI_end_line(0x109)
     983                      .dwattr $C$DW$46, DW_AT_TI_end_column(0x01)
     984                      .dwendentry
     985                      .dwendtag $C$DW$46
     986              
     987 0000006b               .sect   ".text"
     988                      .clink
     989                      .global _initUartIntAddRS
     990              
     991              $C$DW$51        .dwtag  DW_TAG_subprogram, DW_AT_name("initUartIntAddRS")
     992                      .dwattr $C$DW$51, DW_AT_low_pc(_initUartIntAddRS)
     993                      .dwattr $C$DW$51, DW_AT_high_pc(0x00)
     994                      .dwattr $C$DW$51, DW_AT_TI_symbol_name("_initUartIntAddRS")
     995                      .dwattr $C$DW$51, DW_AT_external
     996                      .dwattr $C$DW$51, DW_AT_TI_begin_file("../UART/UartAdded.c")
     997                      .dwattr $C$DW$51, DW_AT_TI_begin_line(0x10b)
     998                      .dwattr $C$DW$51, DW_AT_TI_begin_column(0x06)
     999                      .dwattr $C$DW$51, DW_AT_TI_max_frame_size(-2)
    1000                      .dwpsn  file "../UART/UartAdded.c",line 268,column 1,is_stmt,address _initUartIntAddRS
    1001              
    1002                      .dwfde $C$DW$CIE, _initUartIntAddRS
    1003              
    1004              ;***************************************************************
    1005              ;* FNAME: _initUartIntAddRS             FR SIZE:   0           *
    1006              ;*                                                             *
    1007              ;* FUNCTION ENVIRONMENT                                        *
    1008              ;*                                                             *
    1009              ;* FUNCTION PROPERTIES                                         *
    1010              ;*                            0 Parameter,  0 Auto,  0 SOE     *
    1011              ;***************************************************************
    1012              
    1013 0000006b       _initUartIntAddRS:
    1014                      .dwcfi  cfa_offset, -2
    1015                      .dwcfi  save_reg_to_mem, 26, 0
    1016                      .dwcfi  save_reg_to_reg, 78, 26
    1017                      .dwpsn  file "../UART/UartAdded.c",line 270,column 2,is_stmt
    1018 0000006b 7622   EALLOW
    1019                      .dwpsn  file "../UART/UartAdded.c",line 271,column 2,is_stmt
    1020 0000006c 8F00+         MOVL      XAR4,#_scibRxFifoIsr  ; [CPU_U] |271| 
         0000006d 004A 
    1021 0000006e 761F!         MOVW      DP,#_PieVectTable+196 ; [CPU_U] 
         0000006f 0003 
    1022 00000070 A804!         MOVL      @_PieVectTable+196,XAR4 ; [CPU_] |271| 
    1023                      .dwpsn  file "../UART/UartAdded.c",line 272,column 2,is_stmt
    1024 00000071 8F00+         MOVL      XAR4,#_scibTxFifoIsr  ; [CPU_U] |272| 
         00000072 0000 
    1025 00000073 A806!         MOVL      @_PieVectTable+198,XAR4 ; [CPU_] |272| 
    1026                      .dwpsn  file "../UART/UartAdded.c",line 273,column 2,is_stmt
TMS320C2000 Assembler PC v6.2.7 Thu Jul 02 08:31:10 2015

Tools Copyright (c) 1996-2014 Texas Instruments Incorporated
C:\Users\Tester\AppData\Local\Temp\0600410                           PAGE   21

    1027 00000074 761A   EDIS
    1028                      .dwpsn  file "../UART/UartAdded.c",line 274,column 2,is_stmt
    1029 00000075 761F!         MOVW      DP,#_PieCtrlRegs+18   ; [CPU_U] 
         00000076 0000 
    1030 00000077 1A12!         OR        @_PieCtrlRegs+18,#0x0004 ; [CPU_] |274| 
         00000078 0004 
    1031                      .dwpsn  file "../UART/UartAdded.c",line 275,column 2,is_stmt
    1032 00000079 1A12!         OR        @_PieCtrlRegs+18,#0x0008 ; [CPU_] |275| 
         0000007a 0008 
    1033                      .dwpsn  file "../UART/UartAdded.c",line 276,column 2,is_stmt
    1034 0000007b 761F!         MOVW      DP,#_ScibRegs+10      ; [CPU_U] 
         0000007c 0000 
    1035 0000007d 1A0A!         OR        @_ScibRegs+10,#0x2000 ; [CPU_] |276| 
         0000007e 2000 
    1036                      .dwpsn  file "../UART/UartAdded.c",line 277,column 2,is_stmt
    1037 0000007f 1A0B!         OR        @_ScibRegs+11,#0x2000 ; [CPU_] |277| 
         00000080 2000 
    1038                      .dwpsn  file "../UART/UartAdded.c",line 278,column 2,is_stmt
    1039 00000081 7623          OR        IER,#0x0100           ; [CPU_] |278| 
         00000082 0100 
    1040                      .dwpsn  file "../UART/UartAdded.c",line 291,column 1,is_stmt
    1041 00000083 FF69          SPM       #0                    ; [CPU_] 
    1042              $C$DW$52        .dwtag  DW_TAG_TI_branch
    1043                      .dwattr $C$DW$52, DW_AT_low_pc(0x00)
    1044                      .dwattr $C$DW$52, DW_AT_TI_return
    1045 00000084 0006          LRETR     ; [CPU_] 
    1046                      ; return occurs ; [] 
    1047                      .dwattr $C$DW$51, DW_AT_TI_end_file("../UART/UartAdded.c")
    1048                      .dwattr $C$DW$51, DW_AT_TI_end_line(0x123)
    1049                      .dwattr $C$DW$51, DW_AT_TI_end_column(0x01)
    1050                      .dwendentry
    1051                      .dwendtag $C$DW$51
    1052              
    1053 00000085               .sect   ".text"
    1054                      .clink
    1055                      .global _enableSciTxIntAddRS
    1056              
    1057              $C$DW$53        .dwtag  DW_TAG_subprogram, DW_AT_name("enableSciTxIntAddRS")
    1058                      .dwattr $C$DW$53, DW_AT_low_pc(_enableSciTxIntAddRS)
    1059                      .dwattr $C$DW$53, DW_AT_high_pc(0x00)
    1060                      .dwattr $C$DW$53, DW_AT_TI_symbol_name("_enableSciTxIntAddRS")
    1061                      .dwattr $C$DW$53, DW_AT_external
    1062                      .dwattr $C$DW$53, DW_AT_TI_begin_file("../UART/UartAdded.c")
    1063                      .dwattr $C$DW$53, DW_AT_TI_begin_line(0x125)
    1064                      .dwattr $C$DW$53, DW_AT_TI_begin_column(0x06)
    1065                      .dwattr $C$DW$53, DW_AT_TI_max_frame_size(-2)
    1066                      .dwpsn  file "../UART/UartAdded.c",line 294,column 1,is_stmt,address _enableSciTxIntAddRS
    1067              
    1068                      .dwfde $C$DW$CIE, _enableSciTxIntAddRS
    1069              
    1070              ;***************************************************************
    1071              ;* FNAME: _enableSciTxIntAddRS          FR SIZE:   0           *
    1072              ;*                                                             *
    1073              ;* FUNCTION ENVIRONMENT                                        *
    1074              ;*                                                             *
TMS320C2000 Assembler PC v6.2.7 Thu Jul 02 08:31:10 2015

Tools Copyright (c) 1996-2014 Texas Instruments Incorporated
C:\Users\Tester\AppData\Local\Temp\0600410                           PAGE   22

    1075              ;* FUNCTION PROPERTIES                                         *
    1076              ;*                            0 Parameter,  0 Auto,  0 SOE     *
    1077              ;***************************************************************
    1078              
    1079 00000085       _enableSciTxIntAddRS:
    1080                      .dwcfi  cfa_offset, -2
    1081                      .dwcfi  save_reg_to_mem, 26, 0
    1082                      .dwcfi  save_reg_to_reg, 78, 26
    1083                      .dwpsn  file "../UART/UartAdded.c",line 296,column 5,is_stmt
    1084 00000085 761F!         MOVW      DP,#_ScibRegs+10      ; [CPU_U] 
         00000086 0000 
    1085 00000087 1A0A!         OR        @_ScibRegs+10,#0x0020 ; [CPU_] |296| 
         00000088 0020 
    1086                      .dwpsn  file "../UART/UartAdded.c",line 305,column 1,is_stmt
    1087              $C$DW$54        .dwtag  DW_TAG_TI_branch
    1088                      .dwattr $C$DW$54, DW_AT_low_pc(0x00)
    1089                      .dwattr $C$DW$54, DW_AT_TI_return
    1090 00000089 0006          LRETR     ; [CPU_] 
    1091                      ; return occurs ; [] 
    1092                      .dwattr $C$DW$53, DW_AT_TI_end_file("../UART/UartAdded.c")
    1093                      .dwattr $C$DW$53, DW_AT_TI_end_line(0x131)
    1094                      .dwattr $C$DW$53, DW_AT_TI_end_column(0x01)
    1095                      .dwendentry
    1096                      .dwendtag $C$DW$53
    1097              
    1098 0000008a               .sect   ".text"
    1099                      .clink
    1100                      .global _disableSciTxIntAddRS
    1101              
    1102              $C$DW$55        .dwtag  DW_TAG_subprogram, DW_AT_name("disableSciTxIntAddRS")
    1103                      .dwattr $C$DW$55, DW_AT_low_pc(_disableSciTxIntAddRS)
    1104                      .dwattr $C$DW$55, DW_AT_high_pc(0x00)
    1105                      .dwattr $C$DW$55, DW_AT_TI_symbol_name("_disableSciTxIntAddRS")
    1106                      .dwattr $C$DW$55, DW_AT_external
    1107                      .dwattr $C$DW$55, DW_AT_TI_begin_file("../UART/UartAdded.c")
    1108                      .dwattr $C$DW$55, DW_AT_TI_begin_line(0x133)
    1109                      .dwattr $C$DW$55, DW_AT_TI_begin_column(0x06)
    1110                      .dwattr $C$DW$55, DW_AT_TI_max_frame_size(-2)
    1111                      .dwpsn  file "../UART/UartAdded.c",line 308,column 1,is_stmt,address _disableSciTxIntAddRS
    1112              
    1113                      .dwfde $C$DW$CIE, _disableSciTxIntAddRS
    1114              
    1115              ;***************************************************************
    1116              ;* FNAME: _disableSciTxIntAddRS         FR SIZE:   0           *
    1117              ;*                                                             *
    1118              ;* FUNCTION ENVIRONMENT                                        *
    1119              ;*                                                             *
    1120              ;* FUNCTION PROPERTIES                                         *
    1121              ;*                            0 Parameter,  0 Auto,  0 SOE     *
    1122              ;***************************************************************
    1123              
    1124 0000008a       _disableSciTxIntAddRS:
    1125                      .dwcfi  cfa_offset, -2
    1126                      .dwcfi  save_reg_to_mem, 26, 0
    1127                      .dwcfi  save_reg_to_reg, 78, 26
TMS320C2000 Assembler PC v6.2.7 Thu Jul 02 08:31:10 2015

Tools Copyright (c) 1996-2014 Texas Instruments Incorporated
C:\Users\Tester\AppData\Local\Temp\0600410                           PAGE   23

    1128                      .dwpsn  file "../UART/UartAdded.c",line 318,column 1,is_stmt
    1129              $C$DW$56        .dwtag  DW_TAG_TI_branch
    1130                      .dwattr $C$DW$56, DW_AT_low_pc(0x00)
    1131                      .dwattr $C$DW$56, DW_AT_TI_return
    1132 0000008a 0006          LRETR     ; [CPU_] 
    1133                      ; return occurs ; [] 
    1134                      .dwattr $C$DW$55, DW_AT_TI_end_file("../UART/UartAdded.c")
    1135                      .dwattr $C$DW$55, DW_AT_TI_end_line(0x13e)
    1136                      .dwattr $C$DW$55, DW_AT_TI_end_column(0x01)
    1137                      .dwendentry
    1138                      .dwendtag $C$DW$55
    1139              
    1140 0000008b               .sect   ".text"
    1141                      .clink
    1142                      .global _enableSciRcIntAddRS
    1143              
    1144              $C$DW$57        .dwtag  DW_TAG_subprogram, DW_AT_name("enableSciRcIntAddRS")
    1145                      .dwattr $C$DW$57, DW_AT_low_pc(_enableSciRcIntAddRS)
    1146                      .dwattr $C$DW$57, DW_AT_high_pc(0x00)
    1147                      .dwattr $C$DW$57, DW_AT_TI_symbol_name("_enableSciRcIntAddRS")
    1148                      .dwattr $C$DW$57, DW_AT_external
    1149                      .dwattr $C$DW$57, DW_AT_TI_begin_file("../UART/UartAdded.c")
    1150                      .dwattr $C$DW$57, DW_AT_TI_begin_line(0x140)
    1151                      .dwattr $C$DW$57, DW_AT_TI_begin_column(0x06)
    1152                      .dwattr $C$DW$57, DW_AT_TI_max_frame_size(-2)
    1153                      .dwpsn  file "../UART/UartAdded.c",line 321,column 1,is_stmt,address _enableSciRcIntAddRS
    1154              
    1155                      .dwfde $C$DW$CIE, _enableSciRcIntAddRS
    1156              
    1157              ;***************************************************************
    1158              ;* FNAME: _enableSciRcIntAddRS          FR SIZE:   0           *
    1159              ;*                                                             *
    1160              ;* FUNCTION ENVIRONMENT                                        *
    1161              ;*                                                             *
    1162              ;* FUNCTION PROPERTIES                                         *
    1163              ;*                            0 Parameter,  0 Auto,  0 SOE     *
    1164              ;***************************************************************
    1165              
    1166 0000008b       _enableSciRcIntAddRS:
    1167                      .dwcfi  cfa_offset, -2
    1168                      .dwcfi  save_reg_to_mem, 26, 0
    1169                      .dwcfi  save_reg_to_reg, 78, 26
    1170                      .dwpsn  file "../UART/UartAdded.c",line 323,column 5,is_stmt
    1171 0000008b 761F!         MOVW      DP,#_ScibRegs+11      ; [CPU_U] 
         0000008c 0000 
    1172 0000008d 1A0B!         OR        @_ScibRegs+11,#0x0020 ; [CPU_] |323| 
         0000008e 0020 
    1173                      .dwpsn  file "../UART/UartAdded.c",line 332,column 1,is_stmt
    1174              $C$DW$58        .dwtag  DW_TAG_TI_branch
    1175                      .dwattr $C$DW$58, DW_AT_low_pc(0x00)
    1176                      .dwattr $C$DW$58, DW_AT_TI_return
    1177 0000008f 0006          LRETR     ; [CPU_] 
    1178                      ; return occurs ; [] 
    1179                      .dwattr $C$DW$57, DW_AT_TI_end_file("../UART/UartAdded.c")
    1180                      .dwattr $C$DW$57, DW_AT_TI_end_line(0x14c)
TMS320C2000 Assembler PC v6.2.7 Thu Jul 02 08:31:10 2015

Tools Copyright (c) 1996-2014 Texas Instruments Incorporated
C:\Users\Tester\AppData\Local\Temp\0600410                           PAGE   24

    1181                      .dwattr $C$DW$57, DW_AT_TI_end_column(0x01)
    1182                      .dwendentry
    1183                      .dwendtag $C$DW$57
    1184              
    1185 00000090               .sect   ".text"
    1186                      .clink
    1187                      .global _disableSciRcIntAddRS
    1188              
    1189              $C$DW$59        .dwtag  DW_TAG_subprogram, DW_AT_name("disableSciRcIntAddRS")
    1190                      .dwattr $C$DW$59, DW_AT_low_pc(_disableSciRcIntAddRS)
    1191                      .dwattr $C$DW$59, DW_AT_high_pc(0x00)
    1192                      .dwattr $C$DW$59, DW_AT_TI_symbol_name("_disableSciRcIntAddRS")
    1193                      .dwattr $C$DW$59, DW_AT_external
    1194                      .dwattr $C$DW$59, DW_AT_TI_begin_file("../UART/UartAdded.c")
    1195                      .dwattr $C$DW$59, DW_AT_TI_begin_line(0x14e)
    1196                      .dwattr $C$DW$59, DW_AT_TI_begin_column(0x06)
    1197                      .dwattr $C$DW$59, DW_AT_TI_max_frame_size(-2)
    1198                      .dwpsn  file "../UART/UartAdded.c",line 335,column 1,is_stmt,address _disableSciRcIntAddRS
    1199              
    1200                      .dwfde $C$DW$CIE, _disableSciRcIntAddRS
    1201              
    1202              ;***************************************************************
    1203              ;* FNAME: _disableSciRcIntAddRS         FR SIZE:   0           *
    1204              ;*                                                             *
    1205              ;* FUNCTION ENVIRONMENT                                        *
    1206              ;*                                                             *
    1207              ;* FUNCTION PROPERTIES                                         *
    1208              ;*                            0 Parameter,  0 Auto,  0 SOE     *
    1209              ;***************************************************************
    1210              
    1211 00000090       _disableSciRcIntAddRS:
    1212                      .dwcfi  cfa_offset, -2
    1213                      .dwcfi  save_reg_to_mem, 26, 0
    1214                      .dwcfi  save_reg_to_reg, 78, 26
    1215                      .dwpsn  file "../UART/UartAdded.c",line 337,column 2,is_stmt
    1216 00000090 761F!         MOVW      DP,#_ScibRegs+11      ; [CPU_U] 
         00000091 0000 
    1217 00000092 180B!         AND       @_ScibRegs+11,#0xffdf ; [CPU_] |337| 
         00000093 FFDF 
    1218                      .dwpsn  file "../UART/UartAdded.c",line 345,column 1,is_stmt
    1219              $C$DW$60        .dwtag  DW_TAG_TI_branch
    1220                      .dwattr $C$DW$60, DW_AT_low_pc(0x00)
    1221                      .dwattr $C$DW$60, DW_AT_TI_return
    1222 00000094 0006          LRETR     ; [CPU_] 
    1223                      ; return occurs ; [] 
    1224                      .dwattr $C$DW$59, DW_AT_TI_end_file("../UART/UartAdded.c")
    1225                      .dwattr $C$DW$59, DW_AT_TI_end_line(0x159)
    1226                      .dwattr $C$DW$59, DW_AT_TI_end_column(0x01)
    1227                      .dwendentry
    1228                      .dwendtag $C$DW$59
    1229              
    1230              ;**************************************************************
    1231              ;* UNDEFINED EXTERNAL REFERENCES                              *
    1232              ;**************************************************************
    1233                      .global _initUartBBufer
TMS320C2000 Assembler PC v6.2.7 Thu Jul 02 08:31:10 2015

Tools Copyright (c) 1996-2014 Texas Instruments Incorporated
C:\Users\Tester\AppData\Local\Temp\0600410                           PAGE   25

    1234                      .global _testRcBufB
    1235                      .global _putRcBufBFromInt
    1236                      .global _getTxBufBForInt
    1237                      .global _ScibRegs
    1238                      .global _PieCtrlRegs
    1239                      .global _GpioCtrlRegs
    1240                      .global _PieVectTable
    1241              
    1242              ;***************************************************************
    1243              ;* TYPE INFORMATION                                            *
    1244              ;***************************************************************
    1245              
    1246              $C$DW$T$20      .dwtag  DW_TAG_structure_type
    1247                      .dwattr $C$DW$T$20, DW_AT_name("GPA1_BITS")
    1248                      .dwattr $C$DW$T$20, DW_AT_byte_size(0x02)
    1249              $C$DW$61        .dwtag  DW_TAG_member
    1250                      .dwattr $C$DW$61, DW_AT_type(*$C$DW$T$19)
    1251                      .dwattr $C$DW$61, DW_AT_name("GPIO0")
    1252                      .dwattr $C$DW$61, DW_AT_TI_symbol_name("_GPIO0")
    1253                      .dwattr $C$DW$61, DW_AT_bit_offset(0x0e), DW_AT_bit_size(0x02)
    1254                      .dwattr $C$DW$61, DW_AT_data_member_location[DW_OP_plus_uconst 0x0]
    1255                      .dwattr $C$DW$61, DW_AT_accessibility(DW_ACCESS_public)
    1256              $C$DW$62        .dwtag  DW_TAG_member
    1257                      .dwattr $C$DW$62, DW_AT_type(*$C$DW$T$19)
    1258                      .dwattr $C$DW$62, DW_AT_name("GPIO1")
    1259                      .dwattr $C$DW$62, DW_AT_TI_symbol_name("_GPIO1")
    1260                      .dwattr $C$DW$62, DW_AT_bit_offset(0x0c), DW_AT_bit_size(0x02)
    1261                      .dwattr $C$DW$62, DW_AT_data_member_location[DW_OP_plus_uconst 0x0]
    1262                      .dwattr $C$DW$62, DW_AT_accessibility(DW_ACCESS_public)
    1263              $C$DW$63        .dwtag  DW_TAG_member
    1264                      .dwattr $C$DW$63, DW_AT_type(*$C$DW$T$19)
    1265                      .dwattr $C$DW$63, DW_AT_name("GPIO2")
    1266                      .dwattr $C$DW$63, DW_AT_TI_symbol_name("_GPIO2")
    1267                      .dwattr $C$DW$63, DW_AT_bit_offset(0x0a), DW_AT_bit_size(0x02)
    1268                      .dwattr $C$DW$63, DW_AT_data_member_location[DW_OP_plus_uconst 0x0]
    1269                      .dwattr $C$DW$63, DW_AT_accessibility(DW_ACCESS_public)
    1270              $C$DW$64        .dwtag  DW_TAG_member
    1271                      .dwattr $C$DW$64, DW_AT_type(*$C$DW$T$19)
    1272                      .dwattr $C$DW$64, DW_AT_name("GPIO3")
    1273                      .dwattr $C$DW$64, DW_AT_TI_symbol_name("_GPIO3")
    1274                      .dwattr $C$DW$64, DW_AT_bit_offset(0x08), DW_AT_bit_size(0x02)
    1275                      .dwattr $C$DW$64, DW_AT_data_member_location[DW_OP_plus_uconst 0x0]
    1276                      .dwattr $C$DW$64, DW_AT_accessibility(DW_ACCESS_public)
    1277              $C$DW$65        .dwtag  DW_TAG_member
    1278                      .dwattr $C$DW$65, DW_AT_type(*$C$DW$T$19)
    1279                      .dwattr $C$DW$65, DW_AT_name("GPIO4")
    1280                      .dwattr $C$DW$65, DW_AT_TI_symbol_name("_GPIO4")
    1281                      .dwattr $C$DW$65, DW_AT_bit_offset(0x06), DW_AT_bit_size(0x02)
    1282                      .dwattr $C$DW$65, DW_AT_data_member_location[DW_OP_plus_uconst 0x0]
    1283                      .dwattr $C$DW$65, DW_AT_accessibility(DW_ACCESS_public)
    1284              $C$DW$66        .dwtag  DW_TAG_member
    1285                      .dwattr $C$DW$66, DW_AT_type(*$C$DW$T$19)
    1286                      .dwattr $C$DW$66, DW_AT_name("GPIO5")
    1287                      .dwattr $C$DW$66, DW_AT_TI_symbol_name("_GPIO5")
    1288                      .dwattr $C$DW$66, DW_AT_bit_offset(0x04), DW_AT_bit_size(0x02)
TMS320C2000 Assembler PC v6.2.7 Thu Jul 02 08:31:10 2015

Tools Copyright (c) 1996-2014 Texas Instruments Incorporated
C:\Users\Tester\AppData\Local\Temp\0600410                           PAGE   26

    1289                      .dwattr $C$DW$66, DW_AT_data_member_location[DW_OP_plus_uconst 0x0]
    1290                      .dwattr $C$DW$66, DW_AT_accessibility(DW_ACCESS_public)
    1291              $C$DW$67        .dwtag  DW_TAG_member
    1292                      .dwattr $C$DW$67, DW_AT_type(*$C$DW$T$19)
    1293                      .dwattr $C$DW$67, DW_AT_name("GPIO6")
    1294                      .dwattr $C$DW$67, DW_AT_TI_symbol_name("_GPIO6")
    1295                      .dwattr $C$DW$67, DW_AT_bit_offset(0x02), DW_AT_bit_size(0x02)
    1296                      .dwattr $C$DW$67, DW_AT_data_member_location[DW_OP_plus_uconst 0x0]
    1297                      .dwattr $C$DW$67, DW_AT_accessibility(DW_ACCESS_public)
    1298              $C$DW$68        .dwtag  DW_TAG_member
    1299                      .dwattr $C$DW$68, DW_AT_type(*$C$DW$T$19)
    1300                      .dwattr $C$DW$68, DW_AT_name("GPIO7")
    1301                      .dwattr $C$DW$68, DW_AT_TI_symbol_name("_GPIO7")
    1302                      .dwattr $C$DW$68, DW_AT_bit_offset(0x00), DW_AT_bit_size(0x02)
    1303                      .dwattr $C$DW$68, DW_AT_data_member_location[DW_OP_plus_uconst 0x0]
    1304                      .dwattr $C$DW$68, DW_AT_accessibility(DW_ACCESS_public)
    1305              $C$DW$69        .dwtag  DW_TAG_member
    1306                      .dwattr $C$DW$69, DW_AT_type(*$C$DW$T$19)
    1307                      .dwattr $C$DW$69, DW_AT_name("GPIO8")
    1308                      .dwattr $C$DW$69, DW_AT_TI_symbol_name("_GPIO8")
    1309                      .dwattr $C$DW$69, DW_AT_bit_offset(0x0e), DW_AT_bit_size(0x02)
    1310                      .dwattr $C$DW$69, DW_AT_data_member_location[DW_OP_plus_uconst 0x1]
    1311                      .dwattr $C$DW$69, DW_AT_accessibility(DW_ACCESS_public)
    1312              $C$DW$70        .dwtag  DW_TAG_member
    1313                      .dwattr $C$DW$70, DW_AT_type(*$C$DW$T$19)
    1314                      .dwattr $C$DW$70, DW_AT_name("GPIO9")
    1315                      .dwattr $C$DW$70, DW_AT_TI_symbol_name("_GPIO9")
    1316                      .dwattr $C$DW$70, DW_AT_bit_offset(0x0c), DW_AT_bit_size(0x02)
    1317                      .dwattr $C$DW$70, DW_AT_data_member_location[DW_OP_plus_uconst 0x1]
    1318                      .dwattr $C$DW$70, DW_AT_accessibility(DW_ACCESS_public)
    1319              $C$DW$71        .dwtag  DW_TAG_member
    1320                      .dwattr $C$DW$71, DW_AT_type(*$C$DW$T$19)
    1321                      .dwattr $C$DW$71, DW_AT_name("GPIO10")
    1322                      .dwattr $C$DW$71, DW_AT_TI_symbol_name("_GPIO10")
    1323                      .dwattr $C$DW$71, DW_AT_bit_offset(0x0a), DW_AT_bit_size(0x02)
    1324                      .dwattr $C$DW$71, DW_AT_data_member_location[DW_OP_plus_uconst 0x1]
    1325                      .dwattr $C$DW$71, DW_AT_accessibility(DW_ACCESS_public)
    1326              $C$DW$72        .dwtag  DW_TAG_member
    1327                      .dwattr $C$DW$72, DW_AT_type(*$C$DW$T$19)
    1328                      .dwattr $C$DW$72, DW_AT_name("GPIO11")
    1329                      .dwattr $C$DW$72, DW_AT_TI_symbol_name("_GPIO11")
    1330                      .dwattr $C$DW$72, DW_AT_bit_offset(0x08), DW_AT_bit_size(0x02)
    1331                      .dwattr $C$DW$72, DW_AT_data_member_location[DW_OP_plus_uconst 0x1]
    1332                      .dwattr $C$DW$72, DW_AT_accessibility(DW_ACCESS_public)
    1333              $C$DW$73        .dwtag  DW_TAG_member
    1334                      .dwattr $C$DW$73, DW_AT_type(*$C$DW$T$19)
    1335                      .dwattr $C$DW$73, DW_AT_name("GPIO12")
    1336                      .dwattr $C$DW$73, DW_AT_TI_symbol_name("_GPIO12")
    1337                      .dwattr $C$DW$73, DW_AT_bit_offset(0x06), DW_AT_bit_size(0x02)
    1338                      .dwattr $C$DW$73, DW_AT_data_member_location[DW_OP_plus_uconst 0x1]
    1339                      .dwattr $C$DW$73, DW_AT_accessibility(DW_ACCESS_public)
    1340              $C$DW$74        .dwtag  DW_TAG_member
    1341                      .dwattr $C$DW$74, DW_AT_type(*$C$DW$T$19)
    1342                      .dwattr $C$DW$74, DW_AT_name("GPIO13")
    1343                      .dwattr $C$DW$74, DW_AT_TI_symbol_name("_GPIO13")
TMS320C2000 Assembler PC v6.2.7 Thu Jul 02 08:31:10 2015

Tools Copyright (c) 1996-2014 Texas Instruments Incorporated
C:\Users\Tester\AppData\Local\Temp\0600410                           PAGE   27

    1344                      .dwattr $C$DW$74, DW_AT_bit_offset(0x04), DW_AT_bit_size(0x02)
    1345                      .dwattr $C$DW$74, DW_AT_data_member_location[DW_OP_plus_uconst 0x1]
    1346                      .dwattr $C$DW$74, DW_AT_accessibility(DW_ACCESS_public)
    1347              $C$DW$75        .dwtag  DW_TAG_member
    1348                      .dwattr $C$DW$75, DW_AT_type(*$C$DW$T$19)
    1349                      .dwattr $C$DW$75, DW_AT_name("GPIO14")
    1350                      .dwattr $C$DW$75, DW_AT_TI_symbol_name("_GPIO14")
    1351                      .dwattr $C$DW$75, DW_AT_bit_offset(0x02), DW_AT_bit_size(0x02)
    1352                      .dwattr $C$DW$75, DW_AT_data_member_location[DW_OP_plus_uconst 0x1]
    1353                      .dwattr $C$DW$75, DW_AT_accessibility(DW_ACCESS_public)
    1354              $C$DW$76        .dwtag  DW_TAG_member
    1355                      .dwattr $C$DW$76, DW_AT_type(*$C$DW$T$19)
    1356                      .dwattr $C$DW$76, DW_AT_name("GPIO15")
    1357                      .dwattr $C$DW$76, DW_AT_TI_symbol_name("_GPIO15")
    1358                      .dwattr $C$DW$76, DW_AT_bit_offset(0x00), DW_AT_bit_size(0x02)
    1359                      .dwattr $C$DW$76, DW_AT_data_member_location[DW_OP_plus_uconst 0x1]
    1360                      .dwattr $C$DW$76, DW_AT_accessibility(DW_ACCESS_public)
    1361                      .dwendtag $C$DW$T$20
    1362              
    1363              
    1364              $C$DW$T$22      .dwtag  DW_TAG_union_type
    1365                      .dwattr $C$DW$T$22, DW_AT_name("GPA1_REG")
    1366                      .dwattr $C$DW$T$22, DW_AT_byte_size(0x02)
    1367              $C$DW$77        .dwtag  DW_TAG_member
    1368                      .dwattr $C$DW$77, DW_AT_type(*$C$DW$T$21)
    1369                      .dwattr $C$DW$77, DW_AT_name("all")
    1370                      .dwattr $C$DW$77, DW_AT_TI_symbol_name("_all")
    1371                      .dwattr $C$DW$77, DW_AT_data_member_location[DW_OP_plus_uconst 0x0]
    1372                      .dwattr $C$DW$77, DW_AT_accessibility(DW_ACCESS_public)
    1373              $C$DW$78        .dwtag  DW_TAG_member
    1374                      .dwattr $C$DW$78, DW_AT_type(*$C$DW$T$20)
    1375                      .dwattr $C$DW$78, DW_AT_name("bit")
    1376                      .dwattr $C$DW$78, DW_AT_TI_symbol_name("_bit")
    1377                      .dwattr $C$DW$78, DW_AT_data_member_location[DW_OP_plus_uconst 0x0]
    1378                      .dwattr $C$DW$78, DW_AT_accessibility(DW_ACCESS_public)
    1379                      .dwendtag $C$DW$T$22
    1380              
    1381              
    1382              $C$DW$T$23      .dwtag  DW_TAG_structure_type
    1383                      .dwattr $C$DW$T$23, DW_AT_name("GPA2_BITS")
    1384                      .dwattr $C$DW$T$23, DW_AT_byte_size(0x02)
    1385              $C$DW$79        .dwtag  DW_TAG_member
    1386                      .dwattr $C$DW$79, DW_AT_type(*$C$DW$T$19)
    1387                      .dwattr $C$DW$79, DW_AT_name("GPIO16")
    1388                      .dwattr $C$DW$79, DW_AT_TI_symbol_name("_GPIO16")
    1389                      .dwattr $C$DW$79, DW_AT_bit_offset(0x0e), DW_AT_bit_size(0x02)
    1390                      .dwattr $C$DW$79, DW_AT_data_member_location[DW_OP_plus_uconst 0x0]
    1391                      .dwattr $C$DW$79, DW_AT_accessibility(DW_ACCESS_public)
    1392              $C$DW$80        .dwtag  DW_TAG_member
    1393                      .dwattr $C$DW$80, DW_AT_type(*$C$DW$T$19)
    1394                      .dwattr $C$DW$80, DW_AT_name("GPIO17")
    1395                      .dwattr $C$DW$80, DW_AT_TI_symbol_name("_GPIO17")
    1396                      .dwattr $C$DW$80, DW_AT_bit_offset(0x0c), DW_AT_bit_size(0x02)
    1397                      .dwattr $C$DW$80, DW_AT_data_member_location[DW_OP_plus_uconst 0x0]
    1398                      .dwattr $C$DW$80, DW_AT_accessibility(DW_ACCESS_public)
TMS320C2000 Assembler PC v6.2.7 Thu Jul 02 08:31:10 2015

Tools Copyright (c) 1996-2014 Texas Instruments Incorporated
C:\Users\Tester\AppData\Local\Temp\0600410                           PAGE   28

    1399              $C$DW$81        .dwtag  DW_TAG_member
    1400                      .dwattr $C$DW$81, DW_AT_type(*$C$DW$T$19)
    1401                      .dwattr $C$DW$81, DW_AT_name("GPIO18")
    1402                      .dwattr $C$DW$81, DW_AT_TI_symbol_name("_GPIO18")
    1403                      .dwattr $C$DW$81, DW_AT_bit_offset(0x0a), DW_AT_bit_size(0x02)
    1404                      .dwattr $C$DW$81, DW_AT_data_member_location[DW_OP_plus_uconst 0x0]
    1405                      .dwattr $C$DW$81, DW_AT_accessibility(DW_ACCESS_public)
    1406              $C$DW$82        .dwtag  DW_TAG_member
    1407                      .dwattr $C$DW$82, DW_AT_type(*$C$DW$T$19)
    1408                      .dwattr $C$DW$82, DW_AT_name("GPIO19")
    1409                      .dwattr $C$DW$82, DW_AT_TI_symbol_name("_GPIO19")
    1410                      .dwattr $C$DW$82, DW_AT_bit_offset(0x08), DW_AT_bit_size(0x02)
    1411                      .dwattr $C$DW$82, DW_AT_data_member_location[DW_OP_plus_uconst 0x0]
    1412                      .dwattr $C$DW$82, DW_AT_accessibility(DW_ACCESS_public)
    1413              $C$DW$83        .dwtag  DW_TAG_member
    1414                      .dwattr $C$DW$83, DW_AT_type(*$C$DW$T$19)
    1415                      .dwattr $C$DW$83, DW_AT_name("GPIO20")
    1416                      .dwattr $C$DW$83, DW_AT_TI_symbol_name("_GPIO20")
    1417                      .dwattr $C$DW$83, DW_AT_bit_offset(0x06), DW_AT_bit_size(0x02)
    1418                      .dwattr $C$DW$83, DW_AT_data_member_location[DW_OP_plus_uconst 0x0]
    1419                      .dwattr $C$DW$83, DW_AT_accessibility(DW_ACCESS_public)
    1420              $C$DW$84        .dwtag  DW_TAG_member
    1421                      .dwattr $C$DW$84, DW_AT_type(*$C$DW$T$19)
    1422                      .dwattr $C$DW$84, DW_AT_name("GPIO21")
    1423                      .dwattr $C$DW$84, DW_AT_TI_symbol_name("_GPIO21")
    1424                      .dwattr $C$DW$84, DW_AT_bit_offset(0x04), DW_AT_bit_size(0x02)
    1425                      .dwattr $C$DW$84, DW_AT_data_member_location[DW_OP_plus_uconst 0x0]
    1426                      .dwattr $C$DW$84, DW_AT_accessibility(DW_ACCESS_public)
    1427              $C$DW$85        .dwtag  DW_TAG_member
    1428                      .dwattr $C$DW$85, DW_AT_type(*$C$DW$T$19)
    1429                      .dwattr $C$DW$85, DW_AT_name("GPIO22")
    1430                      .dwattr $C$DW$85, DW_AT_TI_symbol_name("_GPIO22")
    1431                      .dwattr $C$DW$85, DW_AT_bit_offset(0x02), DW_AT_bit_size(0x02)
    1432                      .dwattr $C$DW$85, DW_AT_data_member_location[DW_OP_plus_uconst 0x0]
    1433                      .dwattr $C$DW$85, DW_AT_accessibility(DW_ACCESS_public)
    1434              $C$DW$86        .dwtag  DW_TAG_member
    1435                      .dwattr $C$DW$86, DW_AT_type(*$C$DW$T$19)
    1436                      .dwattr $C$DW$86, DW_AT_name("GPIO23")
    1437                      .dwattr $C$DW$86, DW_AT_TI_symbol_name("_GPIO23")
    1438                      .dwattr $C$DW$86, DW_AT_bit_offset(0x00), DW_AT_bit_size(0x02)
    1439                      .dwattr $C$DW$86, DW_AT_data_member_location[DW_OP_plus_uconst 0x0]
    1440                      .dwattr $C$DW$86, DW_AT_accessibility(DW_ACCESS_public)
    1441              $C$DW$87        .dwtag  DW_TAG_member
    1442                      .dwattr $C$DW$87, DW_AT_type(*$C$DW$T$19)
    1443                      .dwattr $C$DW$87, DW_AT_name("GPIO24")
    1444                      .dwattr $C$DW$87, DW_AT_TI_symbol_name("_GPIO24")
    1445                      .dwattr $C$DW$87, DW_AT_bit_offset(0x0e), DW_AT_bit_size(0x02)
    1446                      .dwattr $C$DW$87, DW_AT_data_member_location[DW_OP_plus_uconst 0x1]
    1447                      .dwattr $C$DW$87, DW_AT_accessibility(DW_ACCESS_public)
    1448              $C$DW$88        .dwtag  DW_TAG_member
    1449                      .dwattr $C$DW$88, DW_AT_type(*$C$DW$T$19)
    1450                      .dwattr $C$DW$88, DW_AT_name("GPIO25")
    1451                      .dwattr $C$DW$88, DW_AT_TI_symbol_name("_GPIO25")
    1452                      .dwattr $C$DW$88, DW_AT_bit_offset(0x0c), DW_AT_bit_size(0x02)
    1453                      .dwattr $C$DW$88, DW_AT_data_member_location[DW_OP_plus_uconst 0x1]
TMS320C2000 Assembler PC v6.2.7 Thu Jul 02 08:31:10 2015

Tools Copyright (c) 1996-2014 Texas Instruments Incorporated
C:\Users\Tester\AppData\Local\Temp\0600410                           PAGE   29

    1454                      .dwattr $C$DW$88, DW_AT_accessibility(DW_ACCESS_public)
    1455              $C$DW$89        .dwtag  DW_TAG_member
    1456                      .dwattr $C$DW$89, DW_AT_type(*$C$DW$T$19)
    1457                      .dwattr $C$DW$89, DW_AT_name("GPIO26")
    1458                      .dwattr $C$DW$89, DW_AT_TI_symbol_name("_GPIO26")
    1459                      .dwattr $C$DW$89, DW_AT_bit_offset(0x0a), DW_AT_bit_size(0x02)
    1460                      .dwattr $C$DW$89, DW_AT_data_member_location[DW_OP_plus_uconst 0x1]
    1461                      .dwattr $C$DW$89, DW_AT_accessibility(DW_ACCESS_public)
    1462              $C$DW$90        .dwtag  DW_TAG_member
    1463                      .dwattr $C$DW$90, DW_AT_type(*$C$DW$T$19)
    1464                      .dwattr $C$DW$90, DW_AT_name("GPIO27")
    1465                      .dwattr $C$DW$90, DW_AT_TI_symbol_name("_GPIO27")
    1466                      .dwattr $C$DW$90, DW_AT_bit_offset(0x08), DW_AT_bit_size(0x02)
    1467                      .dwattr $C$DW$90, DW_AT_data_member_location[DW_OP_plus_uconst 0x1]
    1468                      .dwattr $C$DW$90, DW_AT_accessibility(DW_ACCESS_public)
    1469              $C$DW$91        .dwtag  DW_TAG_member
    1470                      .dwattr $C$DW$91, DW_AT_type(*$C$DW$T$19)
    1471                      .dwattr $C$DW$91, DW_AT_name("GPIO28")
    1472                      .dwattr $C$DW$91, DW_AT_TI_symbol_name("_GPIO28")
    1473                      .dwattr $C$DW$91, DW_AT_bit_offset(0x06), DW_AT_bit_size(0x02)
    1474                      .dwattr $C$DW$91, DW_AT_data_member_location[DW_OP_plus_uconst 0x1]
    1475                      .dwattr $C$DW$91, DW_AT_accessibility(DW_ACCESS_public)
    1476              $C$DW$92        .dwtag  DW_TAG_member
    1477                      .dwattr $C$DW$92, DW_AT_type(*$C$DW$T$19)
    1478                      .dwattr $C$DW$92, DW_AT_name("GPIO29")
    1479                      .dwattr $C$DW$92, DW_AT_TI_symbol_name("_GPIO29")
    1480                      .dwattr $C$DW$92, DW_AT_bit_offset(0x04), DW_AT_bit_size(0x02)
    1481                      .dwattr $C$DW$92, DW_AT_data_member_location[DW_OP_plus_uconst 0x1]
    1482                      .dwattr $C$DW$92, DW_AT_accessibility(DW_ACCESS_public)
    1483              $C$DW$93        .dwtag  DW_TAG_member
    1484                      .dwattr $C$DW$93, DW_AT_type(*$C$DW$T$19)
    1485                      .dwattr $C$DW$93, DW_AT_name("GPIO30")
    1486                      .dwattr $C$DW$93, DW_AT_TI_symbol_name("_GPIO30")
    1487                      .dwattr $C$DW$93, DW_AT_bit_offset(0x02), DW_AT_bit_size(0x02)
    1488                      .dwattr $C$DW$93, DW_AT_data_member_location[DW_OP_plus_uconst 0x1]
    1489                      .dwattr $C$DW$93, DW_AT_accessibility(DW_ACCESS_public)
    1490              $C$DW$94        .dwtag  DW_TAG_member
    1491                      .dwattr $C$DW$94, DW_AT_type(*$C$DW$T$19)
    1492                      .dwattr $C$DW$94, DW_AT_name("GPIO31")
    1493                      .dwattr $C$DW$94, DW_AT_TI_symbol_name("_GPIO31")
    1494                      .dwattr $C$DW$94, DW_AT_bit_offset(0x00), DW_AT_bit_size(0x02)
    1495                      .dwattr $C$DW$94, DW_AT_data_member_location[DW_OP_plus_uconst 0x1]
    1496                      .dwattr $C$DW$94, DW_AT_accessibility(DW_ACCESS_public)
    1497                      .dwendtag $C$DW$T$23
    1498              
    1499              
    1500              $C$DW$T$24      .dwtag  DW_TAG_union_type
    1501                      .dwattr $C$DW$T$24, DW_AT_name("GPA2_REG")
    1502                      .dwattr $C$DW$T$24, DW_AT_byte_size(0x02)
    1503              $C$DW$95        .dwtag  DW_TAG_member
    1504                      .dwattr $C$DW$95, DW_AT_type(*$C$DW$T$21)
    1505                      .dwattr $C$DW$95, DW_AT_name("all")
    1506                      .dwattr $C$DW$95, DW_AT_TI_symbol_name("_all")
    1507                      .dwattr $C$DW$95, DW_AT_data_member_location[DW_OP_plus_uconst 0x0]
    1508                      .dwattr $C$DW$95, DW_AT_accessibility(DW_ACCESS_public)
TMS320C2000 Assembler PC v6.2.7 Thu Jul 02 08:31:10 2015

Tools Copyright (c) 1996-2014 Texas Instruments Incorporated
C:\Users\Tester\AppData\Local\Temp\0600410                           PAGE   30

    1509              $C$DW$96        .dwtag  DW_TAG_member
    1510                      .dwattr $C$DW$96, DW_AT_type(*$C$DW$T$23)
    1511                      .dwattr $C$DW$96, DW_AT_name("bit")
    1512                      .dwattr $C$DW$96, DW_AT_TI_symbol_name("_bit")
    1513                      .dwattr $C$DW$96, DW_AT_data_member_location[DW_OP_plus_uconst 0x0]
    1514                      .dwattr $C$DW$96, DW_AT_accessibility(DW_ACCESS_public)
    1515                      .dwendtag $C$DW$T$24
    1516              
    1517              
    1518              $C$DW$T$25      .dwtag  DW_TAG_structure_type
    1519                      .dwattr $C$DW$T$25, DW_AT_name("GPACTRL_BITS")
    1520                      .dwattr $C$DW$T$25, DW_AT_byte_size(0x02)
    1521              $C$DW$97        .dwtag  DW_TAG_member
    1522                      .dwattr $C$DW$97, DW_AT_type(*$C$DW$T$19)
    1523                      .dwattr $C$DW$97, DW_AT_name("QUALPRD0")
    1524                      .dwattr $C$DW$97, DW_AT_TI_symbol_name("_QUALPRD0")
    1525                      .dwattr $C$DW$97, DW_AT_bit_offset(0x08), DW_AT_bit_size(0x08)
    1526                      .dwattr $C$DW$97, DW_AT_data_member_location[DW_OP_plus_uconst 0x0]
    1527                      .dwattr $C$DW$97, DW_AT_accessibility(DW_ACCESS_public)
    1528              $C$DW$98        .dwtag  DW_TAG_member
    1529                      .dwattr $C$DW$98, DW_AT_type(*$C$DW$T$19)
    1530                      .dwattr $C$DW$98, DW_AT_name("QUALPRD1")
    1531                      .dwattr $C$DW$98, DW_AT_TI_symbol_name("_QUALPRD1")
    1532                      .dwattr $C$DW$98, DW_AT_bit_offset(0x00), DW_AT_bit_size(0x08)
    1533                      .dwattr $C$DW$98, DW_AT_data_member_location[DW_OP_plus_uconst 0x0]
    1534                      .dwattr $C$DW$98, DW_AT_accessibility(DW_ACCESS_public)
    1535              $C$DW$99        .dwtag  DW_TAG_member
    1536                      .dwattr $C$DW$99, DW_AT_type(*$C$DW$T$19)
    1537                      .dwattr $C$DW$99, DW_AT_name("QUALPRD2")
    1538                      .dwattr $C$DW$99, DW_AT_TI_symbol_name("_QUALPRD2")
    1539                      .dwattr $C$DW$99, DW_AT_bit_offset(0x08), DW_AT_bit_size(0x08)
    1540                      .dwattr $C$DW$99, DW_AT_data_member_location[DW_OP_plus_uconst 0x1]
    1541                      .dwattr $C$DW$99, DW_AT_accessibility(DW_ACCESS_public)
    1542              $C$DW$100       .dwtag  DW_TAG_member
    1543                      .dwattr $C$DW$100, DW_AT_type(*$C$DW$T$19)
    1544                      .dwattr $C$DW$100, DW_AT_name("QUALPRD3")
    1545                      .dwattr $C$DW$100, DW_AT_TI_symbol_name("_QUALPRD3")
    1546                      .dwattr $C$DW$100, DW_AT_bit_offset(0x00), DW_AT_bit_size(0x08)
    1547                      .dwattr $C$DW$100, DW_AT_data_member_location[DW_OP_plus_uconst 0x1]
    1548                      .dwattr $C$DW$100, DW_AT_accessibility(DW_ACCESS_public)
    1549                      .dwendtag $C$DW$T$25
    1550              
    1551              
    1552              $C$DW$T$26      .dwtag  DW_TAG_union_type
    1553                      .dwattr $C$DW$T$26, DW_AT_name("GPACTRL_REG")
    1554                      .dwattr $C$DW$T$26, DW_AT_byte_size(0x02)
    1555              $C$DW$101       .dwtag  DW_TAG_member
    1556                      .dwattr $C$DW$101, DW_AT_type(*$C$DW$T$21)
    1557                      .dwattr $C$DW$101, DW_AT_name("all")
    1558                      .dwattr $C$DW$101, DW_AT_TI_symbol_name("_all")
    1559                      .dwattr $C$DW$101, DW_AT_data_member_location[DW_OP_plus_uconst 0x0]
    1560                      .dwattr $C$DW$101, DW_AT_accessibility(DW_ACCESS_public)
    1561              $C$DW$102       .dwtag  DW_TAG_member
    1562                      .dwattr $C$DW$102, DW_AT_type(*$C$DW$T$25)
    1563                      .dwattr $C$DW$102, DW_AT_name("bit")
TMS320C2000 Assembler PC v6.2.7 Thu Jul 02 08:31:10 2015

Tools Copyright (c) 1996-2014 Texas Instruments Incorporated
C:\Users\Tester\AppData\Local\Temp\0600410                           PAGE   31

    1564                      .dwattr $C$DW$102, DW_AT_TI_symbol_name("_bit")
    1565                      .dwattr $C$DW$102, DW_AT_data_member_location[DW_OP_plus_uconst 0x0]
    1566                      .dwattr $C$DW$102, DW_AT_accessibility(DW_ACCESS_public)
    1567                      .dwendtag $C$DW$T$26
    1568              
    1569              
    1570              $C$DW$T$27      .dwtag  DW_TAG_structure_type
    1571                      .dwattr $C$DW$T$27, DW_AT_name("GPADAT_BITS")
    1572                      .dwattr $C$DW$T$27, DW_AT_byte_size(0x02)
    1573              $C$DW$103       .dwtag  DW_TAG_member
    1574                      .dwattr $C$DW$103, DW_AT_type(*$C$DW$T$19)
    1575                      .dwattr $C$DW$103, DW_AT_name("GPIO0")
    1576                      .dwattr $C$DW$103, DW_AT_TI_symbol_name("_GPIO0")
    1577                      .dwattr $C$DW$103, DW_AT_bit_offset(0x0f), DW_AT_bit_size(0x01)
    1578                      .dwattr $C$DW$103, DW_AT_data_member_location[DW_OP_plus_uconst 0x0]
    1579                      .dwattr $C$DW$103, DW_AT_accessibility(DW_ACCESS_public)
    1580              $C$DW$104       .dwtag  DW_TAG_member
    1581                      .dwattr $C$DW$104, DW_AT_type(*$C$DW$T$19)
    1582                      .dwattr $C$DW$104, DW_AT_name("GPIO1")
    1583                      .dwattr $C$DW$104, DW_AT_TI_symbol_name("_GPIO1")
    1584                      .dwattr $C$DW$104, DW_AT_bit_offset(0x0e), DW_AT_bit_size(0x01)
    1585                      .dwattr $C$DW$104, DW_AT_data_member_location[DW_OP_plus_uconst 0x0]
    1586                      .dwattr $C$DW$104, DW_AT_accessibility(DW_ACCESS_public)
    1587              $C$DW$105       .dwtag  DW_TAG_member
    1588                      .dwattr $C$DW$105, DW_AT_type(*$C$DW$T$19)
    1589                      .dwattr $C$DW$105, DW_AT_name("GPIO2")
    1590                      .dwattr $C$DW$105, DW_AT_TI_symbol_name("_GPIO2")
    1591                      .dwattr $C$DW$105, DW_AT_bit_offset(0x0d), DW_AT_bit_size(0x01)
    1592                      .dwattr $C$DW$105, DW_AT_data_member_location[DW_OP_plus_uconst 0x0]
    1593                      .dwattr $C$DW$105, DW_AT_accessibility(DW_ACCESS_public)
    1594              $C$DW$106       .dwtag  DW_TAG_member
    1595                      .dwattr $C$DW$106, DW_AT_type(*$C$DW$T$19)
    1596                      .dwattr $C$DW$106, DW_AT_name("GPIO3")
    1597                      .dwattr $C$DW$106, DW_AT_TI_symbol_name("_GPIO3")
    1598                      .dwattr $C$DW$106, DW_AT_bit_offset(0x0c), DW_AT_bit_size(0x01)
    1599                      .dwattr $C$DW$106, DW_AT_data_member_location[DW_OP_plus_uconst 0x0]
    1600                      .dwattr $C$DW$106, DW_AT_accessibility(DW_ACCESS_public)
    1601              $C$DW$107       .dwtag  DW_TAG_member
    1602                      .dwattr $C$DW$107, DW_AT_type(*$C$DW$T$19)
    1603                      .dwattr $C$DW$107, DW_AT_name("GPIO4")
    1604                      .dwattr $C$DW$107, DW_AT_TI_symbol_name("_GPIO4")
    1605                      .dwattr $C$DW$107, DW_AT_bit_offset(0x0b), DW_AT_bit_size(0x01)
    1606                      .dwattr $C$DW$107, DW_AT_data_member_location[DW_OP_plus_uconst 0x0]
    1607                      .dwattr $C$DW$107, DW_AT_accessibility(DW_ACCESS_public)
    1608              $C$DW$108       .dwtag  DW_TAG_member
    1609                      .dwattr $C$DW$108, DW_AT_type(*$C$DW$T$19)
    1610                      .dwattr $C$DW$108, DW_AT_name("GPIO5")
    1611                      .dwattr $C$DW$108, DW_AT_TI_symbol_name("_GPIO5")
    1612                      .dwattr $C$DW$108, DW_AT_bit_offset(0x0a), DW_AT_bit_size(0x01)
    1613                      .dwattr $C$DW$108, DW_AT_data_member_location[DW_OP_plus_uconst 0x0]
    1614                      .dwattr $C$DW$108, DW_AT_accessibility(DW_ACCESS_public)
    1615              $C$DW$109       .dwtag  DW_TAG_member
    1616                      .dwattr $C$DW$109, DW_AT_type(*$C$DW$T$19)
    1617                      .dwattr $C$DW$109, DW_AT_name("GPIO6")
    1618                      .dwattr $C$DW$109, DW_AT_TI_symbol_name("_GPIO6")
TMS320C2000 Assembler PC v6.2.7 Thu Jul 02 08:31:10 2015

Tools Copyright (c) 1996-2014 Texas Instruments Incorporated
C:\Users\Tester\AppData\Local\Temp\0600410                           PAGE   32

    1619                      .dwattr $C$DW$109, DW_AT_bit_offset(0x09), DW_AT_bit_size(0x01)
    1620                      .dwattr $C$DW$109, DW_AT_data_member_location[DW_OP_plus_uconst 0x0]
    1621                      .dwattr $C$DW$109, DW_AT_accessibility(DW_ACCESS_public)
    1622              $C$DW$110       .dwtag  DW_TAG_member
    1623                      .dwattr $C$DW$110, DW_AT_type(*$C$DW$T$19)
    1624                      .dwattr $C$DW$110, DW_AT_name("GPIO7")
    1625                      .dwattr $C$DW$110, DW_AT_TI_symbol_name("_GPIO7")
    1626                      .dwattr $C$DW$110, DW_AT_bit_offset(0x08), DW_AT_bit_size(0x01)
    1627                      .dwattr $C$DW$110, DW_AT_data_member_location[DW_OP_plus_uconst 0x0]
    1628                      .dwattr $C$DW$110, DW_AT_accessibility(DW_ACCESS_public)
    1629              $C$DW$111       .dwtag  DW_TAG_member
    1630                      .dwattr $C$DW$111, DW_AT_type(*$C$DW$T$19)
    1631                      .dwattr $C$DW$111, DW_AT_name("GPIO8")
    1632                      .dwattr $C$DW$111, DW_AT_TI_symbol_name("_GPIO8")
    1633                      .dwattr $C$DW$111, DW_AT_bit_offset(0x07), DW_AT_bit_size(0x01)
    1634                      .dwattr $C$DW$111, DW_AT_data_member_location[DW_OP_plus_uconst 0x0]
    1635                      .dwattr $C$DW$111, DW_AT_accessibility(DW_ACCESS_public)
    1636              $C$DW$112       .dwtag  DW_TAG_member
    1637                      .dwattr $C$DW$112, DW_AT_type(*$C$DW$T$19)
    1638                      .dwattr $C$DW$112, DW_AT_name("GPIO9")
    1639                      .dwattr $C$DW$112, DW_AT_TI_symbol_name("_GPIO9")
    1640                      .dwattr $C$DW$112, DW_AT_bit_offset(0x06), DW_AT_bit_size(0x01)
    1641                      .dwattr $C$DW$112, DW_AT_data_member_location[DW_OP_plus_uconst 0x0]
    1642                      .dwattr $C$DW$112, DW_AT_accessibility(DW_ACCESS_public)
    1643              $C$DW$113       .dwtag  DW_TAG_member
    1644                      .dwattr $C$DW$113, DW_AT_type(*$C$DW$T$19)
    1645                      .dwattr $C$DW$113, DW_AT_name("GPIO10")
    1646                      .dwattr $C$DW$113, DW_AT_TI_symbol_name("_GPIO10")
    1647                      .dwattr $C$DW$113, DW_AT_bit_offset(0x05), DW_AT_bit_size(0x01)
    1648                      .dwattr $C$DW$113, DW_AT_data_member_location[DW_OP_plus_uconst 0x0]
    1649                      .dwattr $C$DW$113, DW_AT_accessibility(DW_ACCESS_public)
    1650              $C$DW$114       .dwtag  DW_TAG_member
    1651                      .dwattr $C$DW$114, DW_AT_type(*$C$DW$T$19)
    1652                      .dwattr $C$DW$114, DW_AT_name("GPIO11")
    1653                      .dwattr $C$DW$114, DW_AT_TI_symbol_name("_GPIO11")
    1654                      .dwattr $C$DW$114, DW_AT_bit_offset(0x04), DW_AT_bit_size(0x01)
    1655                      .dwattr $C$DW$114, DW_AT_data_member_location[DW_OP_plus_uconst 0x0]
    1656                      .dwattr $C$DW$114, DW_AT_accessibility(DW_ACCESS_public)
    1657              $C$DW$115       .dwtag  DW_TAG_member
    1658                      .dwattr $C$DW$115, DW_AT_type(*$C$DW$T$19)
    1659                      .dwattr $C$DW$115, DW_AT_name("GPIO12")
    1660                      .dwattr $C$DW$115, DW_AT_TI_symbol_name("_GPIO12")
    1661                      .dwattr $C$DW$115, DW_AT_bit_offset(0x03), DW_AT_bit_size(0x01)
    1662                      .dwattr $C$DW$115, DW_AT_data_member_location[DW_OP_plus_uconst 0x0]
    1663                      .dwattr $C$DW$115, DW_AT_accessibility(DW_ACCESS_public)
    1664              $C$DW$116       .dwtag  DW_TAG_member
    1665                      .dwattr $C$DW$116, DW_AT_type(*$C$DW$T$19)
    1666                      .dwattr $C$DW$116, DW_AT_name("GPIO13")
    1667                      .dwattr $C$DW$116, DW_AT_TI_symbol_name("_GPIO13")
    1668                      .dwattr $C$DW$116, DW_AT_bit_offset(0x02), DW_AT_bit_size(0x01)
    1669                      .dwattr $C$DW$116, DW_AT_data_member_location[DW_OP_plus_uconst 0x0]
    1670                      .dwattr $C$DW$116, DW_AT_accessibility(DW_ACCESS_public)
    1671              $C$DW$117       .dwtag  DW_TAG_member
    1672                      .dwattr $C$DW$117, DW_AT_type(*$C$DW$T$19)
    1673                      .dwattr $C$DW$117, DW_AT_name("GPIO14")
TMS320C2000 Assembler PC v6.2.7 Thu Jul 02 08:31:10 2015

Tools Copyright (c) 1996-2014 Texas Instruments Incorporated
C:\Users\Tester\AppData\Local\Temp\0600410                           PAGE   33

    1674                      .dwattr $C$DW$117, DW_AT_TI_symbol_name("_GPIO14")
    1675                      .dwattr $C$DW$117, DW_AT_bit_offset(0x01), DW_AT_bit_size(0x01)
    1676                      .dwattr $C$DW$117, DW_AT_data_member_location[DW_OP_plus_uconst 0x0]
    1677                      .dwattr $C$DW$117, DW_AT_accessibility(DW_ACCESS_public)
    1678              $C$DW$118       .dwtag  DW_TAG_member
    1679                      .dwattr $C$DW$118, DW_AT_type(*$C$DW$T$19)
    1680                      .dwattr $C$DW$118, DW_AT_name("GPIO15")
    1681                      .dwattr $C$DW$118, DW_AT_TI_symbol_name("_GPIO15")
    1682                      .dwattr $C$DW$118, DW_AT_bit_offset(0x00), DW_AT_bit_size(0x01)
    1683                      .dwattr $C$DW$118, DW_AT_data_member_location[DW_OP_plus_uconst 0x0]
    1684                      .dwattr $C$DW$118, DW_AT_accessibility(DW_ACCESS_public)
    1685              $C$DW$119       .dwtag  DW_TAG_member
    1686                      .dwattr $C$DW$119, DW_AT_type(*$C$DW$T$19)
    1687                      .dwattr $C$DW$119, DW_AT_name("GPIO16")
    1688                      .dwattr $C$DW$119, DW_AT_TI_symbol_name("_GPIO16")
    1689                      .dwattr $C$DW$119, DW_AT_bit_offset(0x0f), DW_AT_bit_size(0x01)
    1690                      .dwattr $C$DW$119, DW_AT_data_member_location[DW_OP_plus_uconst 0x1]
    1691                      .dwattr $C$DW$119, DW_AT_accessibility(DW_ACCESS_public)
    1692              $C$DW$120       .dwtag  DW_TAG_member
    1693                      .dwattr $C$DW$120, DW_AT_type(*$C$DW$T$19)
    1694                      .dwattr $C$DW$120, DW_AT_name("GPIO17")
    1695                      .dwattr $C$DW$120, DW_AT_TI_symbol_name("_GPIO17")
    1696                      .dwattr $C$DW$120, DW_AT_bit_offset(0x0e), DW_AT_bit_size(0x01)
    1697                      .dwattr $C$DW$120, DW_AT_data_member_location[DW_OP_plus_uconst 0x1]
    1698                      .dwattr $C$DW$120, DW_AT_accessibility(DW_ACCESS_public)
    1699              $C$DW$121       .dwtag  DW_TAG_member
    1700                      .dwattr $C$DW$121, DW_AT_type(*$C$DW$T$19)
    1701                      .dwattr $C$DW$121, DW_AT_name("GPIO18")
    1702                      .dwattr $C$DW$121, DW_AT_TI_symbol_name("_GPIO18")
    1703                      .dwattr $C$DW$121, DW_AT_bit_offset(0x0d), DW_AT_bit_size(0x01)
    1704                      .dwattr $C$DW$121, DW_AT_data_member_location[DW_OP_plus_uconst 0x1]
    1705                      .dwattr $C$DW$121, DW_AT_accessibility(DW_ACCESS_public)
    1706              $C$DW$122       .dwtag  DW_TAG_member
    1707                      .dwattr $C$DW$122, DW_AT_type(*$C$DW$T$19)
    1708                      .dwattr $C$DW$122, DW_AT_name("GPIO19")
    1709                      .dwattr $C$DW$122, DW_AT_TI_symbol_name("_GPIO19")
    1710                      .dwattr $C$DW$122, DW_AT_bit_offset(0x0c), DW_AT_bit_size(0x01)
    1711                      .dwattr $C$DW$122, DW_AT_data_member_location[DW_OP_plus_uconst 0x1]
    1712                      .dwattr $C$DW$122, DW_AT_accessibility(DW_ACCESS_public)
    1713              $C$DW$123       .dwtag  DW_TAG_member
    1714                      .dwattr $C$DW$123, DW_AT_type(*$C$DW$T$19)
    1715                      .dwattr $C$DW$123, DW_AT_name("GPIO20")
    1716                      .dwattr $C$DW$123, DW_AT_TI_symbol_name("_GPIO20")
    1717                      .dwattr $C$DW$123, DW_AT_bit_offset(0x0b), DW_AT_bit_size(0x01)
    1718                      .dwattr $C$DW$123, DW_AT_data_member_location[DW_OP_plus_uconst 0x1]
    1719                      .dwattr $C$DW$123, DW_AT_accessibility(DW_ACCESS_public)
    1720              $C$DW$124       .dwtag  DW_TAG_member
    1721                      .dwattr $C$DW$124, DW_AT_type(*$C$DW$T$19)
    1722                      .dwattr $C$DW$124, DW_AT_name("GPIO21")
    1723                      .dwattr $C$DW$124, DW_AT_TI_symbol_name("_GPIO21")
    1724                      .dwattr $C$DW$124, DW_AT_bit_offset(0x0a), DW_AT_bit_size(0x01)
    1725                      .dwattr $C$DW$124, DW_AT_data_member_location[DW_OP_plus_uconst 0x1]
    1726                      .dwattr $C$DW$124, DW_AT_accessibility(DW_ACCESS_public)
    1727              $C$DW$125       .dwtag  DW_TAG_member
    1728                      .dwattr $C$DW$125, DW_AT_type(*$C$DW$T$19)
TMS320C2000 Assembler PC v6.2.7 Thu Jul 02 08:31:10 2015

Tools Copyright (c) 1996-2014 Texas Instruments Incorporated
C:\Users\Tester\AppData\Local\Temp\0600410                           PAGE   34

    1729                      .dwattr $C$DW$125, DW_AT_name("GPIO22")
    1730                      .dwattr $C$DW$125, DW_AT_TI_symbol_name("_GPIO22")
    1731                      .dwattr $C$DW$125, DW_AT_bit_offset(0x09), DW_AT_bit_size(0x01)
    1732                      .dwattr $C$DW$125, DW_AT_data_member_location[DW_OP_plus_uconst 0x1]
    1733                      .dwattr $C$DW$125, DW_AT_accessibility(DW_ACCESS_public)
    1734              $C$DW$126       .dwtag  DW_TAG_member
    1735                      .dwattr $C$DW$126, DW_AT_type(*$C$DW$T$19)
    1736                      .dwattr $C$DW$126, DW_AT_name("GPIO23")
    1737                      .dwattr $C$DW$126, DW_AT_TI_symbol_name("_GPIO23")
    1738                      .dwattr $C$DW$126, DW_AT_bit_offset(0x08), DW_AT_bit_size(0x01)
    1739                      .dwattr $C$DW$126, DW_AT_data_member_location[DW_OP_plus_uconst 0x1]
    1740                      .dwattr $C$DW$126, DW_AT_accessibility(DW_ACCESS_public)
    1741              $C$DW$127       .dwtag  DW_TAG_member
    1742                      .dwattr $C$DW$127, DW_AT_type(*$C$DW$T$19)
    1743                      .dwattr $C$DW$127, DW_AT_name("GPIO24")
    1744                      .dwattr $C$DW$127, DW_AT_TI_symbol_name("_GPIO24")
    1745                      .dwattr $C$DW$127, DW_AT_bit_offset(0x07), DW_AT_bit_size(0x01)
    1746                      .dwattr $C$DW$127, DW_AT_data_member_location[DW_OP_plus_uconst 0x1]
    1747                      .dwattr $C$DW$127, DW_AT_accessibility(DW_ACCESS_public)
    1748              $C$DW$128       .dwtag  DW_TAG_member
    1749                      .dwattr $C$DW$128, DW_AT_type(*$C$DW$T$19)
    1750                      .dwattr $C$DW$128, DW_AT_name("GPIO25")
    1751                      .dwattr $C$DW$128, DW_AT_TI_symbol_name("_GPIO25")
    1752                      .dwattr $C$DW$128, DW_AT_bit_offset(0x06), DW_AT_bit_size(0x01)
    1753                      .dwattr $C$DW$128, DW_AT_data_member_location[DW_OP_plus_uconst 0x1]
    1754                      .dwattr $C$DW$128, DW_AT_accessibility(DW_ACCESS_public)
    1755              $C$DW$129       .dwtag  DW_TAG_member
    1756                      .dwattr $C$DW$129, DW_AT_type(*$C$DW$T$19)
    1757                      .dwattr $C$DW$129, DW_AT_name("GPIO26")
    1758                      .dwattr $C$DW$129, DW_AT_TI_symbol_name("_GPIO26")
    1759                      .dwattr $C$DW$129, DW_AT_bit_offset(0x05), DW_AT_bit_size(0x01)
    1760                      .dwattr $C$DW$129, DW_AT_data_member_location[DW_OP_plus_uconst 0x1]
    1761                      .dwattr $C$DW$129, DW_AT_accessibility(DW_ACCESS_public)
    1762              $C$DW$130       .dwtag  DW_TAG_member
    1763                      .dwattr $C$DW$130, DW_AT_type(*$C$DW$T$19)
    1764                      .dwattr $C$DW$130, DW_AT_name("GPIO27")
    1765                      .dwattr $C$DW$130, DW_AT_TI_symbol_name("_GPIO27")
    1766                      .dwattr $C$DW$130, DW_AT_bit_offset(0x04), DW_AT_bit_size(0x01)
    1767                      .dwattr $C$DW$130, DW_AT_data_member_location[DW_OP_plus_uconst 0x1]
    1768                      .dwattr $C$DW$130, DW_AT_accessibility(DW_ACCESS_public)
    1769              $C$DW$131       .dwtag  DW_TAG_member
    1770                      .dwattr $C$DW$131, DW_AT_type(*$C$DW$T$19)
    1771                      .dwattr $C$DW$131, DW_AT_name("GPIO28")
    1772                      .dwattr $C$DW$131, DW_AT_TI_symbol_name("_GPIO28")
    1773                      .dwattr $C$DW$131, DW_AT_bit_offset(0x03), DW_AT_bit_size(0x01)
    1774                      .dwattr $C$DW$131, DW_AT_data_member_location[DW_OP_plus_uconst 0x1]
    1775                      .dwattr $C$DW$131, DW_AT_accessibility(DW_ACCESS_public)
    1776              $C$DW$132       .dwtag  DW_TAG_member
    1777                      .dwattr $C$DW$132, DW_AT_type(*$C$DW$T$19)
    1778                      .dwattr $C$DW$132, DW_AT_name("GPIO29")
    1779                      .dwattr $C$DW$132, DW_AT_TI_symbol_name("_GPIO29")
    1780                      .dwattr $C$DW$132, DW_AT_bit_offset(0x02), DW_AT_bit_size(0x01)
    1781                      .dwattr $C$DW$132, DW_AT_data_member_location[DW_OP_plus_uconst 0x1]
    1782                      .dwattr $C$DW$132, DW_AT_accessibility(DW_ACCESS_public)
    1783              $C$DW$133       .dwtag  DW_TAG_member
TMS320C2000 Assembler PC v6.2.7 Thu Jul 02 08:31:10 2015

Tools Copyright (c) 1996-2014 Texas Instruments Incorporated
C:\Users\Tester\AppData\Local\Temp\0600410                           PAGE   35

    1784                      .dwattr $C$DW$133, DW_AT_type(*$C$DW$T$19)
    1785                      .dwattr $C$DW$133, DW_AT_name("GPIO30")
    1786                      .dwattr $C$DW$133, DW_AT_TI_symbol_name("_GPIO30")
    1787                      .dwattr $C$DW$133, DW_AT_bit_offset(0x01), DW_AT_bit_size(0x01)
    1788                      .dwattr $C$DW$133, DW_AT_data_member_location[DW_OP_plus_uconst 0x1]
    1789                      .dwattr $C$DW$133, DW_AT_accessibility(DW_ACCESS_public)
    1790              $C$DW$134       .dwtag  DW_TAG_member
    1791                      .dwattr $C$DW$134, DW_AT_type(*$C$DW$T$19)
    1792                      .dwattr $C$DW$134, DW_AT_name("GPIO31")
    1793                      .dwattr $C$DW$134, DW_AT_TI_symbol_name("_GPIO31")
    1794                      .dwattr $C$DW$134, DW_AT_bit_offset(0x00), DW_AT_bit_size(0x01)
    1795                      .dwattr $C$DW$134, DW_AT_data_member_location[DW_OP_plus_uconst 0x1]
    1796                      .dwattr $C$DW$134, DW_AT_accessibility(DW_ACCESS_public)
    1797                      .dwendtag $C$DW$T$27
    1798              
    1799              
    1800              $C$DW$T$28      .dwtag  DW_TAG_union_type
    1801                      .dwattr $C$DW$T$28, DW_AT_name("GPADAT_REG")
    1802                      .dwattr $C$DW$T$28, DW_AT_byte_size(0x02)
    1803              $C$DW$135       .dwtag  DW_TAG_member
    1804                      .dwattr $C$DW$135, DW_AT_type(*$C$DW$T$21)
    1805                      .dwattr $C$DW$135, DW_AT_name("all")
    1806                      .dwattr $C$DW$135, DW_AT_TI_symbol_name("_all")
    1807                      .dwattr $C$DW$135, DW_AT_data_member_location[DW_OP_plus_uconst 0x0]
    1808                      .dwattr $C$DW$135, DW_AT_accessibility(DW_ACCESS_public)
    1809              $C$DW$136       .dwtag  DW_TAG_member
    1810                      .dwattr $C$DW$136, DW_AT_type(*$C$DW$T$27)
    1811                      .dwattr $C$DW$136, DW_AT_name("bit")
    1812                      .dwattr $C$DW$136, DW_AT_TI_symbol_name("_bit")
    1813                      .dwattr $C$DW$136, DW_AT_data_member_location[DW_OP_plus_uconst 0x0]
    1814                      .dwattr $C$DW$136, DW_AT_accessibility(DW_ACCESS_public)
    1815                      .dwendtag $C$DW$T$28
    1816              
    1817              
    1818              $C$DW$T$29      .dwtag  DW_TAG_structure_type
    1819                      .dwattr $C$DW$T$29, DW_AT_name("GPB1_BITS")
    1820                      .dwattr $C$DW$T$29, DW_AT_byte_size(0x02)
    1821              $C$DW$137       .dwtag  DW_TAG_member
    1822                      .dwattr $C$DW$137, DW_AT_type(*$C$DW$T$19)
    1823                      .dwattr $C$DW$137, DW_AT_name("GPIO32")
    1824                      .dwattr $C$DW$137, DW_AT_TI_symbol_name("_GPIO32")
    1825                      .dwattr $C$DW$137, DW_AT_bit_offset(0x0e), DW_AT_bit_size(0x02)
    1826                      .dwattr $C$DW$137, DW_AT_data_member_location[DW_OP_plus_uconst 0x0]
    1827                      .dwattr $C$DW$137, DW_AT_accessibility(DW_ACCESS_public)
    1828              $C$DW$138       .dwtag  DW_TAG_member
    1829                      .dwattr $C$DW$138, DW_AT_type(*$C$DW$T$19)
    1830                      .dwattr $C$DW$138, DW_AT_name("GPIO33")
    1831                      .dwattr $C$DW$138, DW_AT_TI_symbol_name("_GPIO33")
    1832                      .dwattr $C$DW$138, DW_AT_bit_offset(0x0c), DW_AT_bit_size(0x02)
    1833                      .dwattr $C$DW$138, DW_AT_data_member_location[DW_OP_plus_uconst 0x0]
    1834                      .dwattr $C$DW$138, DW_AT_accessibility(DW_ACCESS_public)
    1835              $C$DW$139       .dwtag  DW_TAG_member
    1836                      .dwattr $C$DW$139, DW_AT_type(*$C$DW$T$19)
    1837                      .dwattr $C$DW$139, DW_AT_name("GPIO34")
    1838                      .dwattr $C$DW$139, DW_AT_TI_symbol_name("_GPIO34")
TMS320C2000 Assembler PC v6.2.7 Thu Jul 02 08:31:10 2015

Tools Copyright (c) 1996-2014 Texas Instruments Incorporated
C:\Users\Tester\AppData\Local\Temp\0600410                           PAGE   36

    1839                      .dwattr $C$DW$139, DW_AT_bit_offset(0x0a), DW_AT_bit_size(0x02)
    1840                      .dwattr $C$DW$139, DW_AT_data_member_location[DW_OP_plus_uconst 0x0]
    1841                      .dwattr $C$DW$139, DW_AT_accessibility(DW_ACCESS_public)
    1842              $C$DW$140       .dwtag  DW_TAG_member
    1843                      .dwattr $C$DW$140, DW_AT_type(*$C$DW$T$19)
    1844                      .dwattr $C$DW$140, DW_AT_name("GPIO35")
    1845                      .dwattr $C$DW$140, DW_AT_TI_symbol_name("_GPIO35")
    1846                      .dwattr $C$DW$140, DW_AT_bit_offset(0x08), DW_AT_bit_size(0x02)
    1847                      .dwattr $C$DW$140, DW_AT_data_member_location[DW_OP_plus_uconst 0x0]
    1848                      .dwattr $C$DW$140, DW_AT_accessibility(DW_ACCESS_public)
    1849              $C$DW$141       .dwtag  DW_TAG_member
    1850                      .dwattr $C$DW$141, DW_AT_type(*$C$DW$T$19)
    1851                      .dwattr $C$DW$141, DW_AT_name("GPIO36")
    1852                      .dwattr $C$DW$141, DW_AT_TI_symbol_name("_GPIO36")
    1853                      .dwattr $C$DW$141, DW_AT_bit_offset(0x06), DW_AT_bit_size(0x02)
    1854                      .dwattr $C$DW$141, DW_AT_data_member_location[DW_OP_plus_uconst 0x0]
    1855                      .dwattr $C$DW$141, DW_AT_accessibility(DW_ACCESS_public)
    1856              $C$DW$142       .dwtag  DW_TAG_member
    1857                      .dwattr $C$DW$142, DW_AT_type(*$C$DW$T$19)
    1858                      .dwattr $C$DW$142, DW_AT_name("GPIO37")
    1859                      .dwattr $C$DW$142, DW_AT_TI_symbol_name("_GPIO37")
    1860                      .dwattr $C$DW$142, DW_AT_bit_offset(0x04), DW_AT_bit_size(0x02)
    1861                      .dwattr $C$DW$142, DW_AT_data_member_location[DW_OP_plus_uconst 0x0]
    1862                      .dwattr $C$DW$142, DW_AT_accessibility(DW_ACCESS_public)
    1863              $C$DW$143       .dwtag  DW_TAG_member
    1864                      .dwattr $C$DW$143, DW_AT_type(*$C$DW$T$19)
    1865                      .dwattr $C$DW$143, DW_AT_name("GPIO38")
    1866                      .dwattr $C$DW$143, DW_AT_TI_symbol_name("_GPIO38")
    1867                      .dwattr $C$DW$143, DW_AT_bit_offset(0x02), DW_AT_bit_size(0x02)
    1868                      .dwattr $C$DW$143, DW_AT_data_member_location[DW_OP_plus_uconst 0x0]
    1869                      .dwattr $C$DW$143, DW_AT_accessibility(DW_ACCESS_public)
    1870              $C$DW$144       .dwtag  DW_TAG_member
    1871                      .dwattr $C$DW$144, DW_AT_type(*$C$DW$T$19)
    1872                      .dwattr $C$DW$144, DW_AT_name("GPIO39")
    1873                      .dwattr $C$DW$144, DW_AT_TI_symbol_name("_GPIO39")
    1874                      .dwattr $C$DW$144, DW_AT_bit_offset(0x00), DW_AT_bit_size(0x02)
    1875                      .dwattr $C$DW$144, DW_AT_data_member_location[DW_OP_plus_uconst 0x0]
    1876                      .dwattr $C$DW$144, DW_AT_accessibility(DW_ACCESS_public)
    1877              $C$DW$145       .dwtag  DW_TAG_member
    1878                      .dwattr $C$DW$145, DW_AT_type(*$C$DW$T$19)
    1879                      .dwattr $C$DW$145, DW_AT_name("GPIO40")
    1880                      .dwattr $C$DW$145, DW_AT_TI_symbol_name("_GPIO40")
    1881                      .dwattr $C$DW$145, DW_AT_bit_offset(0x0e), DW_AT_bit_size(0x02)
    1882                      .dwattr $C$DW$145, DW_AT_data_member_location[DW_OP_plus_uconst 0x1]
    1883                      .dwattr $C$DW$145, DW_AT_accessibility(DW_ACCESS_public)
    1884              $C$DW$146       .dwtag  DW_TAG_member
    1885                      .dwattr $C$DW$146, DW_AT_type(*$C$DW$T$19)
    1886                      .dwattr $C$DW$146, DW_AT_name("GPIO41")
    1887                      .dwattr $C$DW$146, DW_AT_TI_symbol_name("_GPIO41")
    1888                      .dwattr $C$DW$146, DW_AT_bit_offset(0x0c), DW_AT_bit_size(0x02)
    1889                      .dwattr $C$DW$146, DW_AT_data_member_location[DW_OP_plus_uconst 0x1]
    1890                      .dwattr $C$DW$146, DW_AT_accessibility(DW_ACCESS_public)
    1891              $C$DW$147       .dwtag  DW_TAG_member
    1892                      .dwattr $C$DW$147, DW_AT_type(*$C$DW$T$19)
    1893                      .dwattr $C$DW$147, DW_AT_name("GPIO42")
TMS320C2000 Assembler PC v6.2.7 Thu Jul 02 08:31:10 2015

Tools Copyright (c) 1996-2014 Texas Instruments Incorporated
C:\Users\Tester\AppData\Local\Temp\0600410                           PAGE   37

    1894                      .dwattr $C$DW$147, DW_AT_TI_symbol_name("_GPIO42")
    1895                      .dwattr $C$DW$147, DW_AT_bit_offset(0x0a), DW_AT_bit_size(0x02)
    1896                      .dwattr $C$DW$147, DW_AT_data_member_location[DW_OP_plus_uconst 0x1]
    1897                      .dwattr $C$DW$147, DW_AT_accessibility(DW_ACCESS_public)
    1898              $C$DW$148       .dwtag  DW_TAG_member
    1899                      .dwattr $C$DW$148, DW_AT_type(*$C$DW$T$19)
    1900                      .dwattr $C$DW$148, DW_AT_name("GPIO43")
    1901                      .dwattr $C$DW$148, DW_AT_TI_symbol_name("_GPIO43")
    1902                      .dwattr $C$DW$148, DW_AT_bit_offset(0x08), DW_AT_bit_size(0x02)
    1903                      .dwattr $C$DW$148, DW_AT_data_member_location[DW_OP_plus_uconst 0x1]
    1904                      .dwattr $C$DW$148, DW_AT_accessibility(DW_ACCESS_public)
    1905              $C$DW$149       .dwtag  DW_TAG_member
    1906                      .dwattr $C$DW$149, DW_AT_type(*$C$DW$T$19)
    1907                      .dwattr $C$DW$149, DW_AT_name("GPIO44")
    1908                      .dwattr $C$DW$149, DW_AT_TI_symbol_name("_GPIO44")
    1909                      .dwattr $C$DW$149, DW_AT_bit_offset(0x06), DW_AT_bit_size(0x02)
    1910                      .dwattr $C$DW$149, DW_AT_data_member_location[DW_OP_plus_uconst 0x1]
    1911                      .dwattr $C$DW$149, DW_AT_accessibility(DW_ACCESS_public)
    1912              $C$DW$150       .dwtag  DW_TAG_member
    1913                      .dwattr $C$DW$150, DW_AT_type(*$C$DW$T$19)
    1914                      .dwattr $C$DW$150, DW_AT_name("GPIO45")
    1915                      .dwattr $C$DW$150, DW_AT_TI_symbol_name("_GPIO45")
    1916                      .dwattr $C$DW$150, DW_AT_bit_offset(0x04), DW_AT_bit_size(0x02)
    1917                      .dwattr $C$DW$150, DW_AT_data_member_location[DW_OP_plus_uconst 0x1]
    1918                      .dwattr $C$DW$150, DW_AT_accessibility(DW_ACCESS_public)
    1919              $C$DW$151       .dwtag  DW_TAG_member
    1920                      .dwattr $C$DW$151, DW_AT_type(*$C$DW$T$19)
    1921                      .dwattr $C$DW$151, DW_AT_name("GPIO46")
    1922                      .dwattr $C$DW$151, DW_AT_TI_symbol_name("_GPIO46")
    1923                      .dwattr $C$DW$151, DW_AT_bit_offset(0x02), DW_AT_bit_size(0x02)
    1924                      .dwattr $C$DW$151, DW_AT_data_member_location[DW_OP_plus_uconst 0x1]
    1925                      .dwattr $C$DW$151, DW_AT_accessibility(DW_ACCESS_public)
    1926              $C$DW$152       .dwtag  DW_TAG_member
    1927                      .dwattr $C$DW$152, DW_AT_type(*$C$DW$T$19)
    1928                      .dwattr $C$DW$152, DW_AT_name("GPIO47")
    1929                      .dwattr $C$DW$152, DW_AT_TI_symbol_name("_GPIO47")
    1930                      .dwattr $C$DW$152, DW_AT_bit_offset(0x00), DW_AT_bit_size(0x02)
    1931                      .dwattr $C$DW$152, DW_AT_data_member_location[DW_OP_plus_uconst 0x1]
    1932                      .dwattr $C$DW$152, DW_AT_accessibility(DW_ACCESS_public)
    1933                      .dwendtag $C$DW$T$29
    1934              
    1935              
    1936              $C$DW$T$30      .dwtag  DW_TAG_union_type
    1937                      .dwattr $C$DW$T$30, DW_AT_name("GPB1_REG")
    1938                      .dwattr $C$DW$T$30, DW_AT_byte_size(0x02)
    1939              $C$DW$153       .dwtag  DW_TAG_member
    1940                      .dwattr $C$DW$153, DW_AT_type(*$C$DW$T$21)
    1941                      .dwattr $C$DW$153, DW_AT_name("all")
    1942                      .dwattr $C$DW$153, DW_AT_TI_symbol_name("_all")
    1943                      .dwattr $C$DW$153, DW_AT_data_member_location[DW_OP_plus_uconst 0x0]
    1944                      .dwattr $C$DW$153, DW_AT_accessibility(DW_ACCESS_public)
    1945              $C$DW$154       .dwtag  DW_TAG_member
    1946                      .dwattr $C$DW$154, DW_AT_type(*$C$DW$T$29)
    1947                      .dwattr $C$DW$154, DW_AT_name("bit")
    1948                      .dwattr $C$DW$154, DW_AT_TI_symbol_name("_bit")
TMS320C2000 Assembler PC v6.2.7 Thu Jul 02 08:31:10 2015

Tools Copyright (c) 1996-2014 Texas Instruments Incorporated
C:\Users\Tester\AppData\Local\Temp\0600410                           PAGE   38

    1949                      .dwattr $C$DW$154, DW_AT_data_member_location[DW_OP_plus_uconst 0x0]
    1950                      .dwattr $C$DW$154, DW_AT_accessibility(DW_ACCESS_public)
    1951                      .dwendtag $C$DW$T$30
    1952              
    1953              
    1954              $C$DW$T$31      .dwtag  DW_TAG_structure_type
    1955                      .dwattr $C$DW$T$31, DW_AT_name("GPB2_BITS")
    1956                      .dwattr $C$DW$T$31, DW_AT_byte_size(0x02)
    1957              $C$DW$155       .dwtag  DW_TAG_member
    1958                      .dwattr $C$DW$155, DW_AT_type(*$C$DW$T$19)
    1959                      .dwattr $C$DW$155, DW_AT_name("GPIO48")
    1960                      .dwattr $C$DW$155, DW_AT_TI_symbol_name("_GPIO48")
    1961                      .dwattr $C$DW$155, DW_AT_bit_offset(0x0e), DW_AT_bit_size(0x02)
    1962                      .dwattr $C$DW$155, DW_AT_data_member_location[DW_OP_plus_uconst 0x0]
    1963                      .dwattr $C$DW$155, DW_AT_accessibility(DW_ACCESS_public)
    1964              $C$DW$156       .dwtag  DW_TAG_member
    1965                      .dwattr $C$DW$156, DW_AT_type(*$C$DW$T$19)
    1966                      .dwattr $C$DW$156, DW_AT_name("GPIO49")
    1967                      .dwattr $C$DW$156, DW_AT_TI_symbol_name("_GPIO49")
    1968                      .dwattr $C$DW$156, DW_AT_bit_offset(0x0c), DW_AT_bit_size(0x02)
    1969                      .dwattr $C$DW$156, DW_AT_data_member_location[DW_OP_plus_uconst 0x0]
    1970                      .dwattr $C$DW$156, DW_AT_accessibility(DW_ACCESS_public)
    1971              $C$DW$157       .dwtag  DW_TAG_member
    1972                      .dwattr $C$DW$157, DW_AT_type(*$C$DW$T$19)
    1973                      .dwattr $C$DW$157, DW_AT_name("GPIO50")
    1974                      .dwattr $C$DW$157, DW_AT_TI_symbol_name("_GPIO50")
    1975                      .dwattr $C$DW$157, DW_AT_bit_offset(0x0a), DW_AT_bit_size(0x02)
    1976                      .dwattr $C$DW$157, DW_AT_data_member_location[DW_OP_plus_uconst 0x0]
    1977                      .dwattr $C$DW$157, DW_AT_accessibility(DW_ACCESS_public)
    1978              $C$DW$158       .dwtag  DW_TAG_member
    1979                      .dwattr $C$DW$158, DW_AT_type(*$C$DW$T$19)
    1980                      .dwattr $C$DW$158, DW_AT_name("GPIO51")
    1981                      .dwattr $C$DW$158, DW_AT_TI_symbol_name("_GPIO51")
    1982                      .dwattr $C$DW$158, DW_AT_bit_offset(0x08), DW_AT_bit_size(0x02)
    1983                      .dwattr $C$DW$158, DW_AT_data_member_location[DW_OP_plus_uconst 0x0]
    1984                      .dwattr $C$DW$158, DW_AT_accessibility(DW_ACCESS_public)
    1985              $C$DW$159       .dwtag  DW_TAG_member
    1986                      .dwattr $C$DW$159, DW_AT_type(*$C$DW$T$19)
    1987                      .dwattr $C$DW$159, DW_AT_name("GPIO52")
    1988                      .dwattr $C$DW$159, DW_AT_TI_symbol_name("_GPIO52")
    1989                      .dwattr $C$DW$159, DW_AT_bit_offset(0x06), DW_AT_bit_size(0x02)
    1990                      .dwattr $C$DW$159, DW_AT_data_member_location[DW_OP_plus_uconst 0x0]
    1991                      .dwattr $C$DW$159, DW_AT_accessibility(DW_ACCESS_public)
    1992              $C$DW$160       .dwtag  DW_TAG_member
    1993                      .dwattr $C$DW$160, DW_AT_type(*$C$DW$T$19)
    1994                      .dwattr $C$DW$160, DW_AT_name("GPIO53")
    1995                      .dwattr $C$DW$160, DW_AT_TI_symbol_name("_GPIO53")
    1996                      .dwattr $C$DW$160, DW_AT_bit_offset(0x04), DW_AT_bit_size(0x02)
    1997                      .dwattr $C$DW$160, DW_AT_data_member_location[DW_OP_plus_uconst 0x0]
    1998                      .dwattr $C$DW$160, DW_AT_accessibility(DW_ACCESS_public)
    1999              $C$DW$161       .dwtag  DW_TAG_member
    2000                      .dwattr $C$DW$161, DW_AT_type(*$C$DW$T$19)
    2001                      .dwattr $C$DW$161, DW_AT_name("GPIO54")
    2002                      .dwattr $C$DW$161, DW_AT_TI_symbol_name("_GPIO54")
    2003                      .dwattr $C$DW$161, DW_AT_bit_offset(0x02), DW_AT_bit_size(0x02)
TMS320C2000 Assembler PC v6.2.7 Thu Jul 02 08:31:10 2015

Tools Copyright (c) 1996-2014 Texas Instruments Incorporated
C:\Users\Tester\AppData\Local\Temp\0600410                           PAGE   39

    2004                      .dwattr $C$DW$161, DW_AT_data_member_location[DW_OP_plus_uconst 0x0]
    2005                      .dwattr $C$DW$161, DW_AT_accessibility(DW_ACCESS_public)
    2006              $C$DW$162       .dwtag  DW_TAG_member
    2007                      .dwattr $C$DW$162, DW_AT_type(*$C$DW$T$19)
    2008                      .dwattr $C$DW$162, DW_AT_name("GPIO55")
    2009                      .dwattr $C$DW$162, DW_AT_TI_symbol_name("_GPIO55")
    2010                      .dwattr $C$DW$162, DW_AT_bit_offset(0x00), DW_AT_bit_size(0x02)
    2011                      .dwattr $C$DW$162, DW_AT_data_member_location[DW_OP_plus_uconst 0x0]
    2012                      .dwattr $C$DW$162, DW_AT_accessibility(DW_ACCESS_public)
    2013              $C$DW$163       .dwtag  DW_TAG_member
    2014                      .dwattr $C$DW$163, DW_AT_type(*$C$DW$T$19)
    2015                      .dwattr $C$DW$163, DW_AT_name("GPIO56")
    2016                      .dwattr $C$DW$163, DW_AT_TI_symbol_name("_GPIO56")
    2017                      .dwattr $C$DW$163, DW_AT_bit_offset(0x0e), DW_AT_bit_size(0x02)
    2018                      .dwattr $C$DW$163, DW_AT_data_member_location[DW_OP_plus_uconst 0x1]
    2019                      .dwattr $C$DW$163, DW_AT_accessibility(DW_ACCESS_public)
    2020              $C$DW$164       .dwtag  DW_TAG_member
    2021                      .dwattr $C$DW$164, DW_AT_type(*$C$DW$T$19)
    2022                      .dwattr $C$DW$164, DW_AT_name("GPIO57")
    2023                      .dwattr $C$DW$164, DW_AT_TI_symbol_name("_GPIO57")
    2024                      .dwattr $C$DW$164, DW_AT_bit_offset(0x0c), DW_AT_bit_size(0x02)
    2025                      .dwattr $C$DW$164, DW_AT_data_member_location[DW_OP_plus_uconst 0x1]
    2026                      .dwattr $C$DW$164, DW_AT_accessibility(DW_ACCESS_public)
    2027              $C$DW$165       .dwtag  DW_TAG_member
    2028                      .dwattr $C$DW$165, DW_AT_type(*$C$DW$T$19)
    2029                      .dwattr $C$DW$165, DW_AT_name("GPIO58")
    2030                      .dwattr $C$DW$165, DW_AT_TI_symbol_name("_GPIO58")
    2031                      .dwattr $C$DW$165, DW_AT_bit_offset(0x0a), DW_AT_bit_size(0x02)
    2032                      .dwattr $C$DW$165, DW_AT_data_member_location[DW_OP_plus_uconst 0x1]
    2033                      .dwattr $C$DW$165, DW_AT_accessibility(DW_ACCESS_public)
    2034              $C$DW$166       .dwtag  DW_TAG_member
    2035                      .dwattr $C$DW$166, DW_AT_type(*$C$DW$T$19)
    2036                      .dwattr $C$DW$166, DW_AT_name("GPIO59")
    2037                      .dwattr $C$DW$166, DW_AT_TI_symbol_name("_GPIO59")
    2038                      .dwattr $C$DW$166, DW_AT_bit_offset(0x08), DW_AT_bit_size(0x02)
    2039                      .dwattr $C$DW$166, DW_AT_data_member_location[DW_OP_plus_uconst 0x1]
    2040                      .dwattr $C$DW$166, DW_AT_accessibility(DW_ACCESS_public)
    2041              $C$DW$167       .dwtag  DW_TAG_member
    2042                      .dwattr $C$DW$167, DW_AT_type(*$C$DW$T$19)
    2043                      .dwattr $C$DW$167, DW_AT_name("GPIO60")
    2044                      .dwattr $C$DW$167, DW_AT_TI_symbol_name("_GPIO60")
    2045                      .dwattr $C$DW$167, DW_AT_bit_offset(0x06), DW_AT_bit_size(0x02)
    2046                      .dwattr $C$DW$167, DW_AT_data_member_location[DW_OP_plus_uconst 0x1]
    2047                      .dwattr $C$DW$167, DW_AT_accessibility(DW_ACCESS_public)
    2048              $C$DW$168       .dwtag  DW_TAG_member
    2049                      .dwattr $C$DW$168, DW_AT_type(*$C$DW$T$19)
    2050                      .dwattr $C$DW$168, DW_AT_name("GPIO61")
    2051                      .dwattr $C$DW$168, DW_AT_TI_symbol_name("_GPIO61")
    2052                      .dwattr $C$DW$168, DW_AT_bit_offset(0x04), DW_AT_bit_size(0x02)
    2053                      .dwattr $C$DW$168, DW_AT_data_member_location[DW_OP_plus_uconst 0x1]
    2054                      .dwattr $C$DW$168, DW_AT_accessibility(DW_ACCESS_public)
    2055              $C$DW$169       .dwtag  DW_TAG_member
    2056                      .dwattr $C$DW$169, DW_AT_type(*$C$DW$T$19)
    2057                      .dwattr $C$DW$169, DW_AT_name("GPIO62")
    2058                      .dwattr $C$DW$169, DW_AT_TI_symbol_name("_GPIO62")
TMS320C2000 Assembler PC v6.2.7 Thu Jul 02 08:31:10 2015

Tools Copyright (c) 1996-2014 Texas Instruments Incorporated
C:\Users\Tester\AppData\Local\Temp\0600410                           PAGE   40

    2059                      .dwattr $C$DW$169, DW_AT_bit_offset(0x02), DW_AT_bit_size(0x02)
    2060                      .dwattr $C$DW$169, DW_AT_data_member_location[DW_OP_plus_uconst 0x1]
    2061                      .dwattr $C$DW$169, DW_AT_accessibility(DW_ACCESS_public)
    2062              $C$DW$170       .dwtag  DW_TAG_member
    2063                      .dwattr $C$DW$170, DW_AT_type(*$C$DW$T$19)
    2064                      .dwattr $C$DW$170, DW_AT_name("GPIO63")
    2065                      .dwattr $C$DW$170, DW_AT_TI_symbol_name("_GPIO63")
    2066                      .dwattr $C$DW$170, DW_AT_bit_offset(0x00), DW_AT_bit_size(0x02)
    2067                      .dwattr $C$DW$170, DW_AT_data_member_location[DW_OP_plus_uconst 0x1]
    2068                      .dwattr $C$DW$170, DW_AT_accessibility(DW_ACCESS_public)
    2069                      .dwendtag $C$DW$T$31
    2070              
    2071              
    2072              $C$DW$T$32      .dwtag  DW_TAG_union_type
    2073                      .dwattr $C$DW$T$32, DW_AT_name("GPB2_REG")
    2074                      .dwattr $C$DW$T$32, DW_AT_byte_size(0x02)
    2075              $C$DW$171       .dwtag  DW_TAG_member
    2076                      .dwattr $C$DW$171, DW_AT_type(*$C$DW$T$21)
    2077                      .dwattr $C$DW$171, DW_AT_name("all")
    2078                      .dwattr $C$DW$171, DW_AT_TI_symbol_name("_all")
    2079                      .dwattr $C$DW$171, DW_AT_data_member_location[DW_OP_plus_uconst 0x0]
    2080                      .dwattr $C$DW$171, DW_AT_accessibility(DW_ACCESS_public)
    2081              $C$DW$172       .dwtag  DW_TAG_member
    2082                      .dwattr $C$DW$172, DW_AT_type(*$C$DW$T$31)
    2083                      .dwattr $C$DW$172, DW_AT_name("bit")
    2084                      .dwattr $C$DW$172, DW_AT_TI_symbol_name("_bit")
    2085                      .dwattr $C$DW$172, DW_AT_data_member_location[DW_OP_plus_uconst 0x0]
    2086                      .dwattr $C$DW$172, DW_AT_accessibility(DW_ACCESS_public)
    2087                      .dwendtag $C$DW$T$32
    2088              
    2089              
    2090              $C$DW$T$33      .dwtag  DW_TAG_structure_type
    2091                      .dwattr $C$DW$T$33, DW_AT_name("GPBCTRL_BITS")
    2092                      .dwattr $C$DW$T$33, DW_AT_byte_size(0x02)
    2093              $C$DW$173       .dwtag  DW_TAG_member
    2094                      .dwattr $C$DW$173, DW_AT_type(*$C$DW$T$19)
    2095                      .dwattr $C$DW$173, DW_AT_name("QUALPRD0")
    2096                      .dwattr $C$DW$173, DW_AT_TI_symbol_name("_QUALPRD0")
    2097                      .dwattr $C$DW$173, DW_AT_bit_offset(0x08), DW_AT_bit_size(0x08)
    2098                      .dwattr $C$DW$173, DW_AT_data_member_location[DW_OP_plus_uconst 0x0]
    2099                      .dwattr $C$DW$173, DW_AT_accessibility(DW_ACCESS_public)
    2100              $C$DW$174       .dwtag  DW_TAG_member
    2101                      .dwattr $C$DW$174, DW_AT_type(*$C$DW$T$19)
    2102                      .dwattr $C$DW$174, DW_AT_name("QUALPRD1")
    2103                      .dwattr $C$DW$174, DW_AT_TI_symbol_name("_QUALPRD1")
    2104                      .dwattr $C$DW$174, DW_AT_bit_offset(0x00), DW_AT_bit_size(0x08)
    2105                      .dwattr $C$DW$174, DW_AT_data_member_location[DW_OP_plus_uconst 0x0]
    2106                      .dwattr $C$DW$174, DW_AT_accessibility(DW_ACCESS_public)
    2107              $C$DW$175       .dwtag  DW_TAG_member
    2108                      .dwattr $C$DW$175, DW_AT_type(*$C$DW$T$19)
    2109                      .dwattr $C$DW$175, DW_AT_name("QUALPRD2")
    2110                      .dwattr $C$DW$175, DW_AT_TI_symbol_name("_QUALPRD2")
    2111                      .dwattr $C$DW$175, DW_AT_bit_offset(0x08), DW_AT_bit_size(0x08)
    2112                      .dwattr $C$DW$175, DW_AT_data_member_location[DW_OP_plus_uconst 0x1]
    2113                      .dwattr $C$DW$175, DW_AT_accessibility(DW_ACCESS_public)
TMS320C2000 Assembler PC v6.2.7 Thu Jul 02 08:31:10 2015

Tools Copyright (c) 1996-2014 Texas Instruments Incorporated
C:\Users\Tester\AppData\Local\Temp\0600410                           PAGE   41

    2114              $C$DW$176       .dwtag  DW_TAG_member
    2115                      .dwattr $C$DW$176, DW_AT_type(*$C$DW$T$19)
    2116                      .dwattr $C$DW$176, DW_AT_name("QUALPRD3")
    2117                      .dwattr $C$DW$176, DW_AT_TI_symbol_name("_QUALPRD3")
    2118                      .dwattr $C$DW$176, DW_AT_bit_offset(0x00), DW_AT_bit_size(0x08)
    2119                      .dwattr $C$DW$176, DW_AT_data_member_location[DW_OP_plus_uconst 0x1]
    2120                      .dwattr $C$DW$176, DW_AT_accessibility(DW_ACCESS_public)
    2121                      .dwendtag $C$DW$T$33
    2122              
    2123              
    2124              $C$DW$T$34      .dwtag  DW_TAG_union_type
    2125                      .dwattr $C$DW$T$34, DW_AT_name("GPBCTRL_REG")
    2126                      .dwattr $C$DW$T$34, DW_AT_byte_size(0x02)
    2127              $C$DW$177       .dwtag  DW_TAG_member
    2128                      .dwattr $C$DW$177, DW_AT_type(*$C$DW$T$21)
    2129                      .dwattr $C$DW$177, DW_AT_name("all")
    2130                      .dwattr $C$DW$177, DW_AT_TI_symbol_name("_all")
    2131                      .dwattr $C$DW$177, DW_AT_data_member_location[DW_OP_plus_uconst 0x0]
    2132                      .dwattr $C$DW$177, DW_AT_accessibility(DW_ACCESS_public)
    2133              $C$DW$178       .dwtag  DW_TAG_member
    2134                      .dwattr $C$DW$178, DW_AT_type(*$C$DW$T$33)
    2135                      .dwattr $C$DW$178, DW_AT_name("bit")
    2136                      .dwattr $C$DW$178, DW_AT_TI_symbol_name("_bit")
    2137                      .dwattr $C$DW$178, DW_AT_data_member_location[DW_OP_plus_uconst 0x0]
    2138                      .dwattr $C$DW$178, DW_AT_accessibility(DW_ACCESS_public)
    2139                      .dwendtag $C$DW$T$34
    2140              
    2141              
    2142              $C$DW$T$35      .dwtag  DW_TAG_structure_type
    2143                      .dwattr $C$DW$T$35, DW_AT_name("GPBDAT_BITS")
    2144                      .dwattr $C$DW$T$35, DW_AT_byte_size(0x02)
    2145              $C$DW$179       .dwtag  DW_TAG_member
    2146                      .dwattr $C$DW$179, DW_AT_type(*$C$DW$T$19)
    2147                      .dwattr $C$DW$179, DW_AT_name("GPIO32")
    2148                      .dwattr $C$DW$179, DW_AT_TI_symbol_name("_GPIO32")
    2149                      .dwattr $C$DW$179, DW_AT_bit_offset(0x0f), DW_AT_bit_size(0x01)
    2150                      .dwattr $C$DW$179, DW_AT_data_member_location[DW_OP_plus_uconst 0x0]
    2151                      .dwattr $C$DW$179, DW_AT_accessibility(DW_ACCESS_public)
    2152              $C$DW$180       .dwtag  DW_TAG_member
    2153                      .dwattr $C$DW$180, DW_AT_type(*$C$DW$T$19)
    2154                      .dwattr $C$DW$180, DW_AT_name("GPIO33")
    2155                      .dwattr $C$DW$180, DW_AT_TI_symbol_name("_GPIO33")
    2156                      .dwattr $C$DW$180, DW_AT_bit_offset(0x0e), DW_AT_bit_size(0x01)
    2157                      .dwattr $C$DW$180, DW_AT_data_member_location[DW_OP_plus_uconst 0x0]
    2158                      .dwattr $C$DW$180, DW_AT_accessibility(DW_ACCESS_public)
    2159              $C$DW$181       .dwtag  DW_TAG_member
    2160                      .dwattr $C$DW$181, DW_AT_type(*$C$DW$T$19)
    2161                      .dwattr $C$DW$181, DW_AT_name("GPIO34")
    2162                      .dwattr $C$DW$181, DW_AT_TI_symbol_name("_GPIO34")
    2163                      .dwattr $C$DW$181, DW_AT_bit_offset(0x0d), DW_AT_bit_size(0x01)
    2164                      .dwattr $C$DW$181, DW_AT_data_member_location[DW_OP_plus_uconst 0x0]
    2165                      .dwattr $C$DW$181, DW_AT_accessibility(DW_ACCESS_public)
    2166              $C$DW$182       .dwtag  DW_TAG_member
    2167                      .dwattr $C$DW$182, DW_AT_type(*$C$DW$T$19)
    2168                      .dwattr $C$DW$182, DW_AT_name("GPIO35")
TMS320C2000 Assembler PC v6.2.7 Thu Jul 02 08:31:10 2015

Tools Copyright (c) 1996-2014 Texas Instruments Incorporated
C:\Users\Tester\AppData\Local\Temp\0600410                           PAGE   42

    2169                      .dwattr $C$DW$182, DW_AT_TI_symbol_name("_GPIO35")
    2170                      .dwattr $C$DW$182, DW_AT_bit_offset(0x0c), DW_AT_bit_size(0x01)
    2171                      .dwattr $C$DW$182, DW_AT_data_member_location[DW_OP_plus_uconst 0x0]
    2172                      .dwattr $C$DW$182, DW_AT_accessibility(DW_ACCESS_public)
    2173              $C$DW$183       .dwtag  DW_TAG_member
    2174                      .dwattr $C$DW$183, DW_AT_type(*$C$DW$T$19)
    2175                      .dwattr $C$DW$183, DW_AT_name("GPIO36")
    2176                      .dwattr $C$DW$183, DW_AT_TI_symbol_name("_GPIO36")
    2177                      .dwattr $C$DW$183, DW_AT_bit_offset(0x0b), DW_AT_bit_size(0x01)
    2178                      .dwattr $C$DW$183, DW_AT_data_member_location[DW_OP_plus_uconst 0x0]
    2179                      .dwattr $C$DW$183, DW_AT_accessibility(DW_ACCESS_public)
    2180              $C$DW$184       .dwtag  DW_TAG_member
    2181                      .dwattr $C$DW$184, DW_AT_type(*$C$DW$T$19)
    2182                      .dwattr $C$DW$184, DW_AT_name("GPIO37")
    2183                      .dwattr $C$DW$184, DW_AT_TI_symbol_name("_GPIO37")
    2184                      .dwattr $C$DW$184, DW_AT_bit_offset(0x0a), DW_AT_bit_size(0x01)
    2185                      .dwattr $C$DW$184, DW_AT_data_member_location[DW_OP_plus_uconst 0x0]
    2186                      .dwattr $C$DW$184, DW_AT_accessibility(DW_ACCESS_public)
    2187              $C$DW$185       .dwtag  DW_TAG_member
    2188                      .dwattr $C$DW$185, DW_AT_type(*$C$DW$T$19)
    2189                      .dwattr $C$DW$185, DW_AT_name("GPIO38")
    2190                      .dwattr $C$DW$185, DW_AT_TI_symbol_name("_GPIO38")
    2191                      .dwattr $C$DW$185, DW_AT_bit_offset(0x09), DW_AT_bit_size(0x01)
    2192                      .dwattr $C$DW$185, DW_AT_data_member_location[DW_OP_plus_uconst 0x0]
    2193                      .dwattr $C$DW$185, DW_AT_accessibility(DW_ACCESS_public)
    2194              $C$DW$186       .dwtag  DW_TAG_member
    2195                      .dwattr $C$DW$186, DW_AT_type(*$C$DW$T$19)
    2196                      .dwattr $C$DW$186, DW_AT_name("GPIO39")
    2197                      .dwattr $C$DW$186, DW_AT_TI_symbol_name("_GPIO39")
    2198                      .dwattr $C$DW$186, DW_AT_bit_offset(0x08), DW_AT_bit_size(0x01)
    2199                      .dwattr $C$DW$186, DW_AT_data_member_location[DW_OP_plus_uconst 0x0]
    2200                      .dwattr $C$DW$186, DW_AT_accessibility(DW_ACCESS_public)
    2201              $C$DW$187       .dwtag  DW_TAG_member
    2202                      .dwattr $C$DW$187, DW_AT_type(*$C$DW$T$19)
    2203                      .dwattr $C$DW$187, DW_AT_name("GPIO40")
    2204                      .dwattr $C$DW$187, DW_AT_TI_symbol_name("_GPIO40")
    2205                      .dwattr $C$DW$187, DW_AT_bit_offset(0x07), DW_AT_bit_size(0x01)
    2206                      .dwattr $C$DW$187, DW_AT_data_member_location[DW_OP_plus_uconst 0x0]
    2207                      .dwattr $C$DW$187, DW_AT_accessibility(DW_ACCESS_public)
    2208              $C$DW$188       .dwtag  DW_TAG_member
    2209                      .dwattr $C$DW$188, DW_AT_type(*$C$DW$T$19)
    2210                      .dwattr $C$DW$188, DW_AT_name("GPIO41")
    2211                      .dwattr $C$DW$188, DW_AT_TI_symbol_name("_GPIO41")
    2212                      .dwattr $C$DW$188, DW_AT_bit_offset(0x06), DW_AT_bit_size(0x01)
    2213                      .dwattr $C$DW$188, DW_AT_data_member_location[DW_OP_plus_uconst 0x0]
    2214                      .dwattr $C$DW$188, DW_AT_accessibility(DW_ACCESS_public)
    2215              $C$DW$189       .dwtag  DW_TAG_member
    2216                      .dwattr $C$DW$189, DW_AT_type(*$C$DW$T$19)
    2217                      .dwattr $C$DW$189, DW_AT_name("GPIO42")
    2218                      .dwattr $C$DW$189, DW_AT_TI_symbol_name("_GPIO42")
    2219                      .dwattr $C$DW$189, DW_AT_bit_offset(0x05), DW_AT_bit_size(0x01)
    2220                      .dwattr $C$DW$189, DW_AT_data_member_location[DW_OP_plus_uconst 0x0]
    2221                      .dwattr $C$DW$189, DW_AT_accessibility(DW_ACCESS_public)
    2222              $C$DW$190       .dwtag  DW_TAG_member
    2223                      .dwattr $C$DW$190, DW_AT_type(*$C$DW$T$19)
TMS320C2000 Assembler PC v6.2.7 Thu Jul 02 08:31:10 2015

Tools Copyright (c) 1996-2014 Texas Instruments Incorporated
C:\Users\Tester\AppData\Local\Temp\0600410                           PAGE   43

    2224                      .dwattr $C$DW$190, DW_AT_name("GPIO43")
    2225                      .dwattr $C$DW$190, DW_AT_TI_symbol_name("_GPIO43")
    2226                      .dwattr $C$DW$190, DW_AT_bit_offset(0x04), DW_AT_bit_size(0x01)
    2227                      .dwattr $C$DW$190, DW_AT_data_member_location[DW_OP_plus_uconst 0x0]
    2228                      .dwattr $C$DW$190, DW_AT_accessibility(DW_ACCESS_public)
    2229              $C$DW$191       .dwtag  DW_TAG_member
    2230                      .dwattr $C$DW$191, DW_AT_type(*$C$DW$T$19)
    2231                      .dwattr $C$DW$191, DW_AT_name("GPIO44")
    2232                      .dwattr $C$DW$191, DW_AT_TI_symbol_name("_GPIO44")
    2233                      .dwattr $C$DW$191, DW_AT_bit_offset(0x03), DW_AT_bit_size(0x01)
    2234                      .dwattr $C$DW$191, DW_AT_data_member_location[DW_OP_plus_uconst 0x0]
    2235                      .dwattr $C$DW$191, DW_AT_accessibility(DW_ACCESS_public)
    2236              $C$DW$192       .dwtag  DW_TAG_member
    2237                      .dwattr $C$DW$192, DW_AT_type(*$C$DW$T$19)
    2238                      .dwattr $C$DW$192, DW_AT_name("GPIO45")
    2239                      .dwattr $C$DW$192, DW_AT_TI_symbol_name("_GPIO45")
    2240                      .dwattr $C$DW$192, DW_AT_bit_offset(0x02), DW_AT_bit_size(0x01)
    2241                      .dwattr $C$DW$192, DW_AT_data_member_location[DW_OP_plus_uconst 0x0]
    2242                      .dwattr $C$DW$192, DW_AT_accessibility(DW_ACCESS_public)
    2243              $C$DW$193       .dwtag  DW_TAG_member
    2244                      .dwattr $C$DW$193, DW_AT_type(*$C$DW$T$19)
    2245                      .dwattr $C$DW$193, DW_AT_name("GPIO46")
    2246                      .dwattr $C$DW$193, DW_AT_TI_symbol_name("_GPIO46")
    2247                      .dwattr $C$DW$193, DW_AT_bit_offset(0x01), DW_AT_bit_size(0x01)
    2248                      .dwattr $C$DW$193, DW_AT_data_member_location[DW_OP_plus_uconst 0x0]
    2249                      .dwattr $C$DW$193, DW_AT_accessibility(DW_ACCESS_public)
    2250              $C$DW$194       .dwtag  DW_TAG_member
    2251                      .dwattr $C$DW$194, DW_AT_type(*$C$DW$T$19)
    2252                      .dwattr $C$DW$194, DW_AT_name("GPIO47")
    2253                      .dwattr $C$DW$194, DW_AT_TI_symbol_name("_GPIO47")
    2254                      .dwattr $C$DW$194, DW_AT_bit_offset(0x00), DW_AT_bit_size(0x01)
    2255                      .dwattr $C$DW$194, DW_AT_data_member_location[DW_OP_plus_uconst 0x0]
    2256                      .dwattr $C$DW$194, DW_AT_accessibility(DW_ACCESS_public)
    2257              $C$DW$195       .dwtag  DW_TAG_member
    2258                      .dwattr $C$DW$195, DW_AT_type(*$C$DW$T$19)
    2259                      .dwattr $C$DW$195, DW_AT_name("GPIO48")
    2260                      .dwattr $C$DW$195, DW_AT_TI_symbol_name("_GPIO48")
    2261                      .dwattr $C$DW$195, DW_AT_bit_offset(0x0f), DW_AT_bit_size(0x01)
    2262                      .dwattr $C$DW$195, DW_AT_data_member_location[DW_OP_plus_uconst 0x1]
    2263                      .dwattr $C$DW$195, DW_AT_accessibility(DW_ACCESS_public)
    2264              $C$DW$196       .dwtag  DW_TAG_member
    2265                      .dwattr $C$DW$196, DW_AT_type(*$C$DW$T$19)
    2266                      .dwattr $C$DW$196, DW_AT_name("GPIO49")
    2267                      .dwattr $C$DW$196, DW_AT_TI_symbol_name("_GPIO49")
    2268                      .dwattr $C$DW$196, DW_AT_bit_offset(0x0e), DW_AT_bit_size(0x01)
    2269                      .dwattr $C$DW$196, DW_AT_data_member_location[DW_OP_plus_uconst 0x1]
    2270                      .dwattr $C$DW$196, DW_AT_accessibility(DW_ACCESS_public)
    2271              $C$DW$197       .dwtag  DW_TAG_member
    2272                      .dwattr $C$DW$197, DW_AT_type(*$C$DW$T$19)
    2273                      .dwattr $C$DW$197, DW_AT_name("GPIO50")
    2274                      .dwattr $C$DW$197, DW_AT_TI_symbol_name("_GPIO50")
    2275                      .dwattr $C$DW$197, DW_AT_bit_offset(0x0d), DW_AT_bit_size(0x01)
    2276                      .dwattr $C$DW$197, DW_AT_data_member_location[DW_OP_plus_uconst 0x1]
    2277                      .dwattr $C$DW$197, DW_AT_accessibility(DW_ACCESS_public)
    2278              $C$DW$198       .dwtag  DW_TAG_member
TMS320C2000 Assembler PC v6.2.7 Thu Jul 02 08:31:10 2015

Tools Copyright (c) 1996-2014 Texas Instruments Incorporated
C:\Users\Tester\AppData\Local\Temp\0600410                           PAGE   44

    2279                      .dwattr $C$DW$198, DW_AT_type(*$C$DW$T$19)
    2280                      .dwattr $C$DW$198, DW_AT_name("GPIO51")
    2281                      .dwattr $C$DW$198, DW_AT_TI_symbol_name("_GPIO51")
    2282                      .dwattr $C$DW$198, DW_AT_bit_offset(0x0c), DW_AT_bit_size(0x01)
    2283                      .dwattr $C$DW$198, DW_AT_data_member_location[DW_OP_plus_uconst 0x1]
    2284                      .dwattr $C$DW$198, DW_AT_accessibility(DW_ACCESS_public)
    2285              $C$DW$199       .dwtag  DW_TAG_member
    2286                      .dwattr $C$DW$199, DW_AT_type(*$C$DW$T$19)
    2287                      .dwattr $C$DW$199, DW_AT_name("GPIO52")
    2288                      .dwattr $C$DW$199, DW_AT_TI_symbol_name("_GPIO52")
    2289                      .dwattr $C$DW$199, DW_AT_bit_offset(0x0b), DW_AT_bit_size(0x01)
    2290                      .dwattr $C$DW$199, DW_AT_data_member_location[DW_OP_plus_uconst 0x1]
    2291                      .dwattr $C$DW$199, DW_AT_accessibility(DW_ACCESS_public)
    2292              $C$DW$200       .dwtag  DW_TAG_member
    2293                      .dwattr $C$DW$200, DW_AT_type(*$C$DW$T$19)
    2294                      .dwattr $C$DW$200, DW_AT_name("GPIO53")
    2295                      .dwattr $C$DW$200, DW_AT_TI_symbol_name("_GPIO53")
    2296                      .dwattr $C$DW$200, DW_AT_bit_offset(0x0a), DW_AT_bit_size(0x01)
    2297                      .dwattr $C$DW$200, DW_AT_data_member_location[DW_OP_plus_uconst 0x1]
    2298                      .dwattr $C$DW$200, DW_AT_accessibility(DW_ACCESS_public)
    2299              $C$DW$201       .dwtag  DW_TAG_member
    2300                      .dwattr $C$DW$201, DW_AT_type(*$C$DW$T$19)
    2301                      .dwattr $C$DW$201, DW_AT_name("GPIO54")
    2302                      .dwattr $C$DW$201, DW_AT_TI_symbol_name("_GPIO54")
    2303                      .dwattr $C$DW$201, DW_AT_bit_offset(0x09), DW_AT_bit_size(0x01)
    2304                      .dwattr $C$DW$201, DW_AT_data_member_location[DW_OP_plus_uconst 0x1]
    2305                      .dwattr $C$DW$201, DW_AT_accessibility(DW_ACCESS_public)
    2306              $C$DW$202       .dwtag  DW_TAG_member
    2307                      .dwattr $C$DW$202, DW_AT_type(*$C$DW$T$19)
    2308                      .dwattr $C$DW$202, DW_AT_name("GPIO55")
    2309                      .dwattr $C$DW$202, DW_AT_TI_symbol_name("_GPIO55")
    2310                      .dwattr $C$DW$202, DW_AT_bit_offset(0x08), DW_AT_bit_size(0x01)
    2311                      .dwattr $C$DW$202, DW_AT_data_member_location[DW_OP_plus_uconst 0x1]
    2312                      .dwattr $C$DW$202, DW_AT_accessibility(DW_ACCESS_public)
    2313              $C$DW$203       .dwtag  DW_TAG_member
    2314                      .dwattr $C$DW$203, DW_AT_type(*$C$DW$T$19)
    2315                      .dwattr $C$DW$203, DW_AT_name("GPIO56")
    2316                      .dwattr $C$DW$203, DW_AT_TI_symbol_name("_GPIO56")
    2317                      .dwattr $C$DW$203, DW_AT_bit_offset(0x07), DW_AT_bit_size(0x01)
    2318                      .dwattr $C$DW$203, DW_AT_data_member_location[DW_OP_plus_uconst 0x1]
    2319                      .dwattr $C$DW$203, DW_AT_accessibility(DW_ACCESS_public)
    2320              $C$DW$204       .dwtag  DW_TAG_member
    2321                      .dwattr $C$DW$204, DW_AT_type(*$C$DW$T$19)
    2322                      .dwattr $C$DW$204, DW_AT_name("GPIO57")
    2323                      .dwattr $C$DW$204, DW_AT_TI_symbol_name("_GPIO57")
    2324                      .dwattr $C$DW$204, DW_AT_bit_offset(0x06), DW_AT_bit_size(0x01)
    2325                      .dwattr $C$DW$204, DW_AT_data_member_location[DW_OP_plus_uconst 0x1]
    2326                      .dwattr $C$DW$204, DW_AT_accessibility(DW_ACCESS_public)
    2327              $C$DW$205       .dwtag  DW_TAG_member
    2328                      .dwattr $C$DW$205, DW_AT_type(*$C$DW$T$19)
    2329                      .dwattr $C$DW$205, DW_AT_name("GPIO58")
    2330                      .dwattr $C$DW$205, DW_AT_TI_symbol_name("_GPIO58")
    2331                      .dwattr $C$DW$205, DW_AT_bit_offset(0x05), DW_AT_bit_size(0x01)
    2332                      .dwattr $C$DW$205, DW_AT_data_member_location[DW_OP_plus_uconst 0x1]
    2333                      .dwattr $C$DW$205, DW_AT_accessibility(DW_ACCESS_public)
TMS320C2000 Assembler PC v6.2.7 Thu Jul 02 08:31:10 2015

Tools Copyright (c) 1996-2014 Texas Instruments Incorporated
C:\Users\Tester\AppData\Local\Temp\0600410                           PAGE   45

    2334              $C$DW$206       .dwtag  DW_TAG_member
    2335                      .dwattr $C$DW$206, DW_AT_type(*$C$DW$T$19)
    2336                      .dwattr $C$DW$206, DW_AT_name("GPIO59")
    2337                      .dwattr $C$DW$206, DW_AT_TI_symbol_name("_GPIO59")
    2338                      .dwattr $C$DW$206, DW_AT_bit_offset(0x04), DW_AT_bit_size(0x01)
    2339                      .dwattr $C$DW$206, DW_AT_data_member_location[DW_OP_plus_uconst 0x1]
    2340                      .dwattr $C$DW$206, DW_AT_accessibility(DW_ACCESS_public)
    2341              $C$DW$207       .dwtag  DW_TAG_member
    2342                      .dwattr $C$DW$207, DW_AT_type(*$C$DW$T$19)
    2343                      .dwattr $C$DW$207, DW_AT_name("GPIO60")
    2344                      .dwattr $C$DW$207, DW_AT_TI_symbol_name("_GPIO60")
    2345                      .dwattr $C$DW$207, DW_AT_bit_offset(0x03), DW_AT_bit_size(0x01)
    2346                      .dwattr $C$DW$207, DW_AT_data_member_location[DW_OP_plus_uconst 0x1]
    2347                      .dwattr $C$DW$207, DW_AT_accessibility(DW_ACCESS_public)
    2348              $C$DW$208       .dwtag  DW_TAG_member
    2349                      .dwattr $C$DW$208, DW_AT_type(*$C$DW$T$19)
    2350                      .dwattr $C$DW$208, DW_AT_name("GPIO61")
    2351                      .dwattr $C$DW$208, DW_AT_TI_symbol_name("_GPIO61")
    2352                      .dwattr $C$DW$208, DW_AT_bit_offset(0x02), DW_AT_bit_size(0x01)
    2353                      .dwattr $C$DW$208, DW_AT_data_member_location[DW_OP_plus_uconst 0x1]
    2354                      .dwattr $C$DW$208, DW_AT_accessibility(DW_ACCESS_public)
    2355              $C$DW$209       .dwtag  DW_TAG_member
    2356                      .dwattr $C$DW$209, DW_AT_type(*$C$DW$T$19)
    2357                      .dwattr $C$DW$209, DW_AT_name("GPIO62")
    2358                      .dwattr $C$DW$209, DW_AT_TI_symbol_name("_GPIO62")
    2359                      .dwattr $C$DW$209, DW_AT_bit_offset(0x01), DW_AT_bit_size(0x01)
    2360                      .dwattr $C$DW$209, DW_AT_data_member_location[DW_OP_plus_uconst 0x1]
    2361                      .dwattr $C$DW$209, DW_AT_accessibility(DW_ACCESS_public)
    2362              $C$DW$210       .dwtag  DW_TAG_member
    2363                      .dwattr $C$DW$210, DW_AT_type(*$C$DW$T$19)
    2364                      .dwattr $C$DW$210, DW_AT_name("GPIO63")
    2365                      .dwattr $C$DW$210, DW_AT_TI_symbol_name("_GPIO63")
    2366                      .dwattr $C$DW$210, DW_AT_bit_offset(0x00), DW_AT_bit_size(0x01)
    2367                      .dwattr $C$DW$210, DW_AT_data_member_location[DW_OP_plus_uconst 0x1]
    2368                      .dwattr $C$DW$210, DW_AT_accessibility(DW_ACCESS_public)
    2369                      .dwendtag $C$DW$T$35
    2370              
    2371              
    2372              $C$DW$T$36      .dwtag  DW_TAG_union_type
    2373                      .dwattr $C$DW$T$36, DW_AT_name("GPBDAT_REG")
    2374                      .dwattr $C$DW$T$36, DW_AT_byte_size(0x02)
    2375              $C$DW$211       .dwtag  DW_TAG_member
    2376                      .dwattr $C$DW$211, DW_AT_type(*$C$DW$T$21)
    2377                      .dwattr $C$DW$211, DW_AT_name("all")
    2378                      .dwattr $C$DW$211, DW_AT_TI_symbol_name("_all")
    2379                      .dwattr $C$DW$211, DW_AT_data_member_location[DW_OP_plus_uconst 0x0]
    2380                      .dwattr $C$DW$211, DW_AT_accessibility(DW_ACCESS_public)
    2381              $C$DW$212       .dwtag  DW_TAG_member
    2382                      .dwattr $C$DW$212, DW_AT_type(*$C$DW$T$35)
    2383                      .dwattr $C$DW$212, DW_AT_name("bit")
    2384                      .dwattr $C$DW$212, DW_AT_TI_symbol_name("_bit")
    2385                      .dwattr $C$DW$212, DW_AT_data_member_location[DW_OP_plus_uconst 0x0]
    2386                      .dwattr $C$DW$212, DW_AT_accessibility(DW_ACCESS_public)
    2387                      .dwendtag $C$DW$T$36
    2388              
TMS320C2000 Assembler PC v6.2.7 Thu Jul 02 08:31:10 2015

Tools Copyright (c) 1996-2014 Texas Instruments Incorporated
C:\Users\Tester\AppData\Local\Temp\0600410                           PAGE   46

    2389              
    2390              $C$DW$T$37      .dwtag  DW_TAG_structure_type
    2391                      .dwattr $C$DW$T$37, DW_AT_name("GPC1_BITS")
    2392                      .dwattr $C$DW$T$37, DW_AT_byte_size(0x02)
    2393              $C$DW$213       .dwtag  DW_TAG_member
    2394                      .dwattr $C$DW$213, DW_AT_type(*$C$DW$T$19)
    2395                      .dwattr $C$DW$213, DW_AT_name("GPIO64")
    2396                      .dwattr $C$DW$213, DW_AT_TI_symbol_name("_GPIO64")
    2397                      .dwattr $C$DW$213, DW_AT_bit_offset(0x0e), DW_AT_bit_size(0x02)
    2398                      .dwattr $C$DW$213, DW_AT_data_member_location[DW_OP_plus_uconst 0x0]
    2399                      .dwattr $C$DW$213, DW_AT_accessibility(DW_ACCESS_public)
    2400              $C$DW$214       .dwtag  DW_TAG_member
    2401                      .dwattr $C$DW$214, DW_AT_type(*$C$DW$T$19)
    2402                      .dwattr $C$DW$214, DW_AT_name("GPIO65")
    2403                      .dwattr $C$DW$214, DW_AT_TI_symbol_name("_GPIO65")
    2404                      .dwattr $C$DW$214, DW_AT_bit_offset(0x0c), DW_AT_bit_size(0x02)
    2405                      .dwattr $C$DW$214, DW_AT_data_member_location[DW_OP_plus_uconst 0x0]
    2406                      .dwattr $C$DW$214, DW_AT_accessibility(DW_ACCESS_public)
    2407              $C$DW$215       .dwtag  DW_TAG_member
    2408                      .dwattr $C$DW$215, DW_AT_type(*$C$DW$T$19)
    2409                      .dwattr $C$DW$215, DW_AT_name("GPIO66")
    2410                      .dwattr $C$DW$215, DW_AT_TI_symbol_name("_GPIO66")
    2411                      .dwattr $C$DW$215, DW_AT_bit_offset(0x0a), DW_AT_bit_size(0x02)
    2412                      .dwattr $C$DW$215, DW_AT_data_member_location[DW_OP_plus_uconst 0x0]
    2413                      .dwattr $C$DW$215, DW_AT_accessibility(DW_ACCESS_public)
    2414              $C$DW$216       .dwtag  DW_TAG_member
    2415                      .dwattr $C$DW$216, DW_AT_type(*$C$DW$T$19)
    2416                      .dwattr $C$DW$216, DW_AT_name("GPIO67")
    2417                      .dwattr $C$DW$216, DW_AT_TI_symbol_name("_GPIO67")
    2418                      .dwattr $C$DW$216, DW_AT_bit_offset(0x08), DW_AT_bit_size(0x02)
    2419                      .dwattr $C$DW$216, DW_AT_data_member_location[DW_OP_plus_uconst 0x0]
    2420                      .dwattr $C$DW$216, DW_AT_accessibility(DW_ACCESS_public)
    2421              $C$DW$217       .dwtag  DW_TAG_member
    2422                      .dwattr $C$DW$217, DW_AT_type(*$C$DW$T$19)
    2423                      .dwattr $C$DW$217, DW_AT_name("GPIO68")
    2424                      .dwattr $C$DW$217, DW_AT_TI_symbol_name("_GPIO68")
    2425                      .dwattr $C$DW$217, DW_AT_bit_offset(0x06), DW_AT_bit_size(0x02)
    2426                      .dwattr $C$DW$217, DW_AT_data_member_location[DW_OP_plus_uconst 0x0]
    2427                      .dwattr $C$DW$217, DW_AT_accessibility(DW_ACCESS_public)
    2428              $C$DW$218       .dwtag  DW_TAG_member
    2429                      .dwattr $C$DW$218, DW_AT_type(*$C$DW$T$19)
    2430                      .dwattr $C$DW$218, DW_AT_name("GPIO69")
    2431                      .dwattr $C$DW$218, DW_AT_TI_symbol_name("_GPIO69")
    2432                      .dwattr $C$DW$218, DW_AT_bit_offset(0x04), DW_AT_bit_size(0x02)
    2433                      .dwattr $C$DW$218, DW_AT_data_member_location[DW_OP_plus_uconst 0x0]
    2434                      .dwattr $C$DW$218, DW_AT_accessibility(DW_ACCESS_public)
    2435              $C$DW$219       .dwtag  DW_TAG_member
    2436                      .dwattr $C$DW$219, DW_AT_type(*$C$DW$T$19)
    2437                      .dwattr $C$DW$219, DW_AT_name("GPIO70")
    2438                      .dwattr $C$DW$219, DW_AT_TI_symbol_name("_GPIO70")
    2439                      .dwattr $C$DW$219, DW_AT_bit_offset(0x02), DW_AT_bit_size(0x02)
    2440                      .dwattr $C$DW$219, DW_AT_data_member_location[DW_OP_plus_uconst 0x0]
    2441                      .dwattr $C$DW$219, DW_AT_accessibility(DW_ACCESS_public)
    2442              $C$DW$220       .dwtag  DW_TAG_member
    2443                      .dwattr $C$DW$220, DW_AT_type(*$C$DW$T$19)
TMS320C2000 Assembler PC v6.2.7 Thu Jul 02 08:31:10 2015

Tools Copyright (c) 1996-2014 Texas Instruments Incorporated
C:\Users\Tester\AppData\Local\Temp\0600410                           PAGE   47

    2444                      .dwattr $C$DW$220, DW_AT_name("GPIO71")
    2445                      .dwattr $C$DW$220, DW_AT_TI_symbol_name("_GPIO71")
    2446                      .dwattr $C$DW$220, DW_AT_bit_offset(0x00), DW_AT_bit_size(0x02)
    2447                      .dwattr $C$DW$220, DW_AT_data_member_location[DW_OP_plus_uconst 0x0]
    2448                      .dwattr $C$DW$220, DW_AT_accessibility(DW_ACCESS_public)
    2449              $C$DW$221       .dwtag  DW_TAG_member
    2450                      .dwattr $C$DW$221, DW_AT_type(*$C$DW$T$19)
    2451                      .dwattr $C$DW$221, DW_AT_name("GPIO72")
    2452                      .dwattr $C$DW$221, DW_AT_TI_symbol_name("_GPIO72")
    2453                      .dwattr $C$DW$221, DW_AT_bit_offset(0x0e), DW_AT_bit_size(0x02)
    2454                      .dwattr $C$DW$221, DW_AT_data_member_location[DW_OP_plus_uconst 0x1]
    2455                      .dwattr $C$DW$221, DW_AT_accessibility(DW_ACCESS_public)
    2456              $C$DW$222       .dwtag  DW_TAG_member
    2457                      .dwattr $C$DW$222, DW_AT_type(*$C$DW$T$19)
    2458                      .dwattr $C$DW$222, DW_AT_name("GPIO73")
    2459                      .dwattr $C$DW$222, DW_AT_TI_symbol_name("_GPIO73")
    2460                      .dwattr $C$DW$222, DW_AT_bit_offset(0x0c), DW_AT_bit_size(0x02)
    2461                      .dwattr $C$DW$222, DW_AT_data_member_location[DW_OP_plus_uconst 0x1]
    2462                      .dwattr $C$DW$222, DW_AT_accessibility(DW_ACCESS_public)
    2463              $C$DW$223       .dwtag  DW_TAG_member
    2464                      .dwattr $C$DW$223, DW_AT_type(*$C$DW$T$19)
    2465                      .dwattr $C$DW$223, DW_AT_name("GPIO74")
    2466                      .dwattr $C$DW$223, DW_AT_TI_symbol_name("_GPIO74")
    2467                      .dwattr $C$DW$223, DW_AT_bit_offset(0x0a), DW_AT_bit_size(0x02)
    2468                      .dwattr $C$DW$223, DW_AT_data_member_location[DW_OP_plus_uconst 0x1]
    2469                      .dwattr $C$DW$223, DW_AT_accessibility(DW_ACCESS_public)
    2470              $C$DW$224       .dwtag  DW_TAG_member
    2471                      .dwattr $C$DW$224, DW_AT_type(*$C$DW$T$19)
    2472                      .dwattr $C$DW$224, DW_AT_name("GPIO75")
    2473                      .dwattr $C$DW$224, DW_AT_TI_symbol_name("_GPIO75")
    2474                      .dwattr $C$DW$224, DW_AT_bit_offset(0x08), DW_AT_bit_size(0x02)
    2475                      .dwattr $C$DW$224, DW_AT_data_member_location[DW_OP_plus_uconst 0x1]
    2476                      .dwattr $C$DW$224, DW_AT_accessibility(DW_ACCESS_public)
    2477              $C$DW$225       .dwtag  DW_TAG_member
    2478                      .dwattr $C$DW$225, DW_AT_type(*$C$DW$T$19)
    2479                      .dwattr $C$DW$225, DW_AT_name("GPIO76")
    2480                      .dwattr $C$DW$225, DW_AT_TI_symbol_name("_GPIO76")
    2481                      .dwattr $C$DW$225, DW_AT_bit_offset(0x06), DW_AT_bit_size(0x02)
    2482                      .dwattr $C$DW$225, DW_AT_data_member_location[DW_OP_plus_uconst 0x1]
    2483                      .dwattr $C$DW$225, DW_AT_accessibility(DW_ACCESS_public)
    2484              $C$DW$226       .dwtag  DW_TAG_member
    2485                      .dwattr $C$DW$226, DW_AT_type(*$C$DW$T$19)
    2486                      .dwattr $C$DW$226, DW_AT_name("GPIO77")
    2487                      .dwattr $C$DW$226, DW_AT_TI_symbol_name("_GPIO77")
    2488                      .dwattr $C$DW$226, DW_AT_bit_offset(0x04), DW_AT_bit_size(0x02)
    2489                      .dwattr $C$DW$226, DW_AT_data_member_location[DW_OP_plus_uconst 0x1]
    2490                      .dwattr $C$DW$226, DW_AT_accessibility(DW_ACCESS_public)
    2491              $C$DW$227       .dwtag  DW_TAG_member
    2492                      .dwattr $C$DW$227, DW_AT_type(*$C$DW$T$19)
    2493                      .dwattr $C$DW$227, DW_AT_name("GPIO78")
    2494                      .dwattr $C$DW$227, DW_AT_TI_symbol_name("_GPIO78")
    2495                      .dwattr $C$DW$227, DW_AT_bit_offset(0x02), DW_AT_bit_size(0x02)
    2496                      .dwattr $C$DW$227, DW_AT_data_member_location[DW_OP_plus_uconst 0x1]
    2497                      .dwattr $C$DW$227, DW_AT_accessibility(DW_ACCESS_public)
    2498              $C$DW$228       .dwtag  DW_TAG_member
TMS320C2000 Assembler PC v6.2.7 Thu Jul 02 08:31:10 2015

Tools Copyright (c) 1996-2014 Texas Instruments Incorporated
C:\Users\Tester\AppData\Local\Temp\0600410                           PAGE   48

    2499                      .dwattr $C$DW$228, DW_AT_type(*$C$DW$T$19)
    2500                      .dwattr $C$DW$228, DW_AT_name("GPIO79")
    2501                      .dwattr $C$DW$228, DW_AT_TI_symbol_name("_GPIO79")
    2502                      .dwattr $C$DW$228, DW_AT_bit_offset(0x00), DW_AT_bit_size(0x02)
    2503                      .dwattr $C$DW$228, DW_AT_data_member_location[DW_OP_plus_uconst 0x1]
    2504                      .dwattr $C$DW$228, DW_AT_accessibility(DW_ACCESS_public)
    2505                      .dwendtag $C$DW$T$37
    2506              
    2507              
    2508              $C$DW$T$38      .dwtag  DW_TAG_union_type
    2509                      .dwattr $C$DW$T$38, DW_AT_name("GPC1_REG")
    2510                      .dwattr $C$DW$T$38, DW_AT_byte_size(0x02)
    2511              $C$DW$229       .dwtag  DW_TAG_member
    2512                      .dwattr $C$DW$229, DW_AT_type(*$C$DW$T$21)
    2513                      .dwattr $C$DW$229, DW_AT_name("all")
    2514                      .dwattr $C$DW$229, DW_AT_TI_symbol_name("_all")
    2515                      .dwattr $C$DW$229, DW_AT_data_member_location[DW_OP_plus_uconst 0x0]
    2516                      .dwattr $C$DW$229, DW_AT_accessibility(DW_ACCESS_public)
    2517              $C$DW$230       .dwtag  DW_TAG_member
    2518                      .dwattr $C$DW$230, DW_AT_type(*$C$DW$T$37)
    2519                      .dwattr $C$DW$230, DW_AT_name("bit")
    2520                      .dwattr $C$DW$230, DW_AT_TI_symbol_name("_bit")
    2521                      .dwattr $C$DW$230, DW_AT_data_member_location[DW_OP_plus_uconst 0x0]
    2522                      .dwattr $C$DW$230, DW_AT_accessibility(DW_ACCESS_public)
    2523                      .dwendtag $C$DW$T$38
    2524              
    2525              
    2526              $C$DW$T$39      .dwtag  DW_TAG_structure_type
    2527                      .dwattr $C$DW$T$39, DW_AT_name("GPC2_BITS")
    2528                      .dwattr $C$DW$T$39, DW_AT_byte_size(0x02)
    2529              $C$DW$231       .dwtag  DW_TAG_member
    2530                      .dwattr $C$DW$231, DW_AT_type(*$C$DW$T$19)
    2531                      .dwattr $C$DW$231, DW_AT_name("GPIO80")
    2532                      .dwattr $C$DW$231, DW_AT_TI_symbol_name("_GPIO80")
    2533                      .dwattr $C$DW$231, DW_AT_bit_offset(0x0e), DW_AT_bit_size(0x02)
    2534                      .dwattr $C$DW$231, DW_AT_data_member_location[DW_OP_plus_uconst 0x0]
    2535                      .dwattr $C$DW$231, DW_AT_accessibility(DW_ACCESS_public)
    2536              $C$DW$232       .dwtag  DW_TAG_member
    2537                      .dwattr $C$DW$232, DW_AT_type(*$C$DW$T$19)
    2538                      .dwattr $C$DW$232, DW_AT_name("GPIO81")
    2539                      .dwattr $C$DW$232, DW_AT_TI_symbol_name("_GPIO81")
    2540                      .dwattr $C$DW$232, DW_AT_bit_offset(0x0c), DW_AT_bit_size(0x02)
    2541                      .dwattr $C$DW$232, DW_AT_data_member_location[DW_OP_plus_uconst 0x0]
    2542                      .dwattr $C$DW$232, DW_AT_accessibility(DW_ACCESS_public)
    2543              $C$DW$233       .dwtag  DW_TAG_member
    2544                      .dwattr $C$DW$233, DW_AT_type(*$C$DW$T$19)
    2545                      .dwattr $C$DW$233, DW_AT_name("GPIO82")
    2546                      .dwattr $C$DW$233, DW_AT_TI_symbol_name("_GPIO82")
    2547                      .dwattr $C$DW$233, DW_AT_bit_offset(0x0a), DW_AT_bit_size(0x02)
    2548                      .dwattr $C$DW$233, DW_AT_data_member_location[DW_OP_plus_uconst 0x0]
    2549                      .dwattr $C$DW$233, DW_AT_accessibility(DW_ACCESS_public)
    2550              $C$DW$234       .dwtag  DW_TAG_member
    2551                      .dwattr $C$DW$234, DW_AT_type(*$C$DW$T$19)
    2552                      .dwattr $C$DW$234, DW_AT_name("GPIO83")
    2553                      .dwattr $C$DW$234, DW_AT_TI_symbol_name("_GPIO83")
TMS320C2000 Assembler PC v6.2.7 Thu Jul 02 08:31:10 2015

Tools Copyright (c) 1996-2014 Texas Instruments Incorporated
C:\Users\Tester\AppData\Local\Temp\0600410                           PAGE   49

    2554                      .dwattr $C$DW$234, DW_AT_bit_offset(0x08), DW_AT_bit_size(0x02)
    2555                      .dwattr $C$DW$234, DW_AT_data_member_location[DW_OP_plus_uconst 0x0]
    2556                      .dwattr $C$DW$234, DW_AT_accessibility(DW_ACCESS_public)
    2557              $C$DW$235       .dwtag  DW_TAG_member
    2558                      .dwattr $C$DW$235, DW_AT_type(*$C$DW$T$19)
    2559                      .dwattr $C$DW$235, DW_AT_name("GPIO84")
    2560                      .dwattr $C$DW$235, DW_AT_TI_symbol_name("_GPIO84")
    2561                      .dwattr $C$DW$235, DW_AT_bit_offset(0x06), DW_AT_bit_size(0x02)
    2562                      .dwattr $C$DW$235, DW_AT_data_member_location[DW_OP_plus_uconst 0x0]
    2563                      .dwattr $C$DW$235, DW_AT_accessibility(DW_ACCESS_public)
    2564              $C$DW$236       .dwtag  DW_TAG_member
    2565                      .dwattr $C$DW$236, DW_AT_type(*$C$DW$T$19)
    2566                      .dwattr $C$DW$236, DW_AT_name("GPIO85")
    2567                      .dwattr $C$DW$236, DW_AT_TI_symbol_name("_GPIO85")
    2568                      .dwattr $C$DW$236, DW_AT_bit_offset(0x04), DW_AT_bit_size(0x02)
    2569                      .dwattr $C$DW$236, DW_AT_data_member_location[DW_OP_plus_uconst 0x0]
    2570                      .dwattr $C$DW$236, DW_AT_accessibility(DW_ACCESS_public)
    2571              $C$DW$237       .dwtag  DW_TAG_member
    2572                      .dwattr $C$DW$237, DW_AT_type(*$C$DW$T$19)
    2573                      .dwattr $C$DW$237, DW_AT_name("GPIO86")
    2574                      .dwattr $C$DW$237, DW_AT_TI_symbol_name("_GPIO86")
    2575                      .dwattr $C$DW$237, DW_AT_bit_offset(0x02), DW_AT_bit_size(0x02)
    2576                      .dwattr $C$DW$237, DW_AT_data_member_location[DW_OP_plus_uconst 0x0]
    2577                      .dwattr $C$DW$237, DW_AT_accessibility(DW_ACCESS_public)
    2578              $C$DW$238       .dwtag  DW_TAG_member
    2579                      .dwattr $C$DW$238, DW_AT_type(*$C$DW$T$19)
    2580                      .dwattr $C$DW$238, DW_AT_name("GPIO87")
    2581                      .dwattr $C$DW$238, DW_AT_TI_symbol_name("_GPIO87")
    2582                      .dwattr $C$DW$238, DW_AT_bit_offset(0x00), DW_AT_bit_size(0x02)
    2583                      .dwattr $C$DW$238, DW_AT_data_member_location[DW_OP_plus_uconst 0x0]
    2584                      .dwattr $C$DW$238, DW_AT_accessibility(DW_ACCESS_public)
    2585              $C$DW$239       .dwtag  DW_TAG_member
    2586                      .dwattr $C$DW$239, DW_AT_type(*$C$DW$T$19)
    2587                      .dwattr $C$DW$239, DW_AT_name("rsvd")
    2588                      .dwattr $C$DW$239, DW_AT_TI_symbol_name("_rsvd")
    2589                      .dwattr $C$DW$239, DW_AT_bit_offset(0x00), DW_AT_bit_size(0x10)
    2590                      .dwattr $C$DW$239, DW_AT_data_member_location[DW_OP_plus_uconst 0x1]
    2591                      .dwattr $C$DW$239, DW_AT_accessibility(DW_ACCESS_public)
    2592                      .dwendtag $C$DW$T$39
    2593              
    2594              
    2595              $C$DW$T$40      .dwtag  DW_TAG_union_type
    2596                      .dwattr $C$DW$T$40, DW_AT_name("GPC2_REG")
    2597                      .dwattr $C$DW$T$40, DW_AT_byte_size(0x02)
    2598              $C$DW$240       .dwtag  DW_TAG_member
    2599                      .dwattr $C$DW$240, DW_AT_type(*$C$DW$T$21)
    2600                      .dwattr $C$DW$240, DW_AT_name("all")
    2601                      .dwattr $C$DW$240, DW_AT_TI_symbol_name("_all")
    2602                      .dwattr $C$DW$240, DW_AT_data_member_location[DW_OP_plus_uconst 0x0]
    2603                      .dwattr $C$DW$240, DW_AT_accessibility(DW_ACCESS_public)
    2604              $C$DW$241       .dwtag  DW_TAG_member
    2605                      .dwattr $C$DW$241, DW_AT_type(*$C$DW$T$39)
    2606                      .dwattr $C$DW$241, DW_AT_name("bit")
    2607                      .dwattr $C$DW$241, DW_AT_TI_symbol_name("_bit")
    2608                      .dwattr $C$DW$241, DW_AT_data_member_location[DW_OP_plus_uconst 0x0]
TMS320C2000 Assembler PC v6.2.7 Thu Jul 02 08:31:10 2015

Tools Copyright (c) 1996-2014 Texas Instruments Incorporated
C:\Users\Tester\AppData\Local\Temp\0600410                           PAGE   50

    2609                      .dwattr $C$DW$241, DW_AT_accessibility(DW_ACCESS_public)
    2610                      .dwendtag $C$DW$T$40
    2611              
    2612              
    2613              $C$DW$T$41      .dwtag  DW_TAG_structure_type
    2614                      .dwattr $C$DW$T$41, DW_AT_name("GPCDAT_BITS")
    2615                      .dwattr $C$DW$T$41, DW_AT_byte_size(0x02)
    2616              $C$DW$242       .dwtag  DW_TAG_member
    2617                      .dwattr $C$DW$242, DW_AT_type(*$C$DW$T$19)
    2618                      .dwattr $C$DW$242, DW_AT_name("GPIO64")
    2619                      .dwattr $C$DW$242, DW_AT_TI_symbol_name("_GPIO64")
    2620                      .dwattr $C$DW$242, DW_AT_bit_offset(0x0f), DW_AT_bit_size(0x01)
    2621                      .dwattr $C$DW$242, DW_AT_data_member_location[DW_OP_plus_uconst 0x0]
    2622                      .dwattr $C$DW$242, DW_AT_accessibility(DW_ACCESS_public)
    2623              $C$DW$243       .dwtag  DW_TAG_member
    2624                      .dwattr $C$DW$243, DW_AT_type(*$C$DW$T$19)
    2625                      .dwattr $C$DW$243, DW_AT_name("GPIO65")
    2626                      .dwattr $C$DW$243, DW_AT_TI_symbol_name("_GPIO65")
    2627                      .dwattr $C$DW$243, DW_AT_bit_offset(0x0e), DW_AT_bit_size(0x01)
    2628                      .dwattr $C$DW$243, DW_AT_data_member_location[DW_OP_plus_uconst 0x0]
    2629                      .dwattr $C$DW$243, DW_AT_accessibility(DW_ACCESS_public)
    2630              $C$DW$244       .dwtag  DW_TAG_member
    2631                      .dwattr $C$DW$244, DW_AT_type(*$C$DW$T$19)
    2632                      .dwattr $C$DW$244, DW_AT_name("GPIO66")
    2633                      .dwattr $C$DW$244, DW_AT_TI_symbol_name("_GPIO66")
    2634                      .dwattr $C$DW$244, DW_AT_bit_offset(0x0d), DW_AT_bit_size(0x01)
    2635                      .dwattr $C$DW$244, DW_AT_data_member_location[DW_OP_plus_uconst 0x0]
    2636                      .dwattr $C$DW$244, DW_AT_accessibility(DW_ACCESS_public)
    2637              $C$DW$245       .dwtag  DW_TAG_member
    2638                      .dwattr $C$DW$245, DW_AT_type(*$C$DW$T$19)
    2639                      .dwattr $C$DW$245, DW_AT_name("GPIO67")
    2640                      .dwattr $C$DW$245, DW_AT_TI_symbol_name("_GPIO67")
    2641                      .dwattr $C$DW$245, DW_AT_bit_offset(0x0c), DW_AT_bit_size(0x01)
    2642                      .dwattr $C$DW$245, DW_AT_data_member_location[DW_OP_plus_uconst 0x0]
    2643                      .dwattr $C$DW$245, DW_AT_accessibility(DW_ACCESS_public)
    2644              $C$DW$246       .dwtag  DW_TAG_member
    2645                      .dwattr $C$DW$246, DW_AT_type(*$C$DW$T$19)
    2646                      .dwattr $C$DW$246, DW_AT_name("GPIO68")
    2647                      .dwattr $C$DW$246, DW_AT_TI_symbol_name("_GPIO68")
    2648                      .dwattr $C$DW$246, DW_AT_bit_offset(0x0b), DW_AT_bit_size(0x01)
    2649                      .dwattr $C$DW$246, DW_AT_data_member_location[DW_OP_plus_uconst 0x0]
    2650                      .dwattr $C$DW$246, DW_AT_accessibility(DW_ACCESS_public)
    2651              $C$DW$247       .dwtag  DW_TAG_member
    2652                      .dwattr $C$DW$247, DW_AT_type(*$C$DW$T$19)
    2653                      .dwattr $C$DW$247, DW_AT_name("GPIO69")
    2654                      .dwattr $C$DW$247, DW_AT_TI_symbol_name("_GPIO69")
    2655                      .dwattr $C$DW$247, DW_AT_bit_offset(0x0a), DW_AT_bit_size(0x01)
    2656                      .dwattr $C$DW$247, DW_AT_data_member_location[DW_OP_plus_uconst 0x0]
    2657                      .dwattr $C$DW$247, DW_AT_accessibility(DW_ACCESS_public)
    2658              $C$DW$248       .dwtag  DW_TAG_member
    2659                      .dwattr $C$DW$248, DW_AT_type(*$C$DW$T$19)
    2660                      .dwattr $C$DW$248, DW_AT_name("GPIO70")
    2661                      .dwattr $C$DW$248, DW_AT_TI_symbol_name("_GPIO70")
    2662                      .dwattr $C$DW$248, DW_AT_bit_offset(0x09), DW_AT_bit_size(0x01)
    2663                      .dwattr $C$DW$248, DW_AT_data_member_location[DW_OP_plus_uconst 0x0]
TMS320C2000 Assembler PC v6.2.7 Thu Jul 02 08:31:10 2015

Tools Copyright (c) 1996-2014 Texas Instruments Incorporated
C:\Users\Tester\AppData\Local\Temp\0600410                           PAGE   51

    2664                      .dwattr $C$DW$248, DW_AT_accessibility(DW_ACCESS_public)
    2665              $C$DW$249       .dwtag  DW_TAG_member
    2666                      .dwattr $C$DW$249, DW_AT_type(*$C$DW$T$19)
    2667                      .dwattr $C$DW$249, DW_AT_name("GPIO71")
    2668                      .dwattr $C$DW$249, DW_AT_TI_symbol_name("_GPIO71")
    2669                      .dwattr $C$DW$249, DW_AT_bit_offset(0x08), DW_AT_bit_size(0x01)
    2670                      .dwattr $C$DW$249, DW_AT_data_member_location[DW_OP_plus_uconst 0x0]
    2671                      .dwattr $C$DW$249, DW_AT_accessibility(DW_ACCESS_public)
    2672              $C$DW$250       .dwtag  DW_TAG_member
    2673                      .dwattr $C$DW$250, DW_AT_type(*$C$DW$T$19)
    2674                      .dwattr $C$DW$250, DW_AT_name("GPIO72")
    2675                      .dwattr $C$DW$250, DW_AT_TI_symbol_name("_GPIO72")
    2676                      .dwattr $C$DW$250, DW_AT_bit_offset(0x07), DW_AT_bit_size(0x01)
    2677                      .dwattr $C$DW$250, DW_AT_data_member_location[DW_OP_plus_uconst 0x0]
    2678                      .dwattr $C$DW$250, DW_AT_accessibility(DW_ACCESS_public)
    2679              $C$DW$251       .dwtag  DW_TAG_member
    2680                      .dwattr $C$DW$251, DW_AT_type(*$C$DW$T$19)
    2681                      .dwattr $C$DW$251, DW_AT_name("GPIO73")
    2682                      .dwattr $C$DW$251, DW_AT_TI_symbol_name("_GPIO73")
    2683                      .dwattr $C$DW$251, DW_AT_bit_offset(0x06), DW_AT_bit_size(0x01)
    2684                      .dwattr $C$DW$251, DW_AT_data_member_location[DW_OP_plus_uconst 0x0]
    2685                      .dwattr $C$DW$251, DW_AT_accessibility(DW_ACCESS_public)
    2686              $C$DW$252       .dwtag  DW_TAG_member
    2687                      .dwattr $C$DW$252, DW_AT_type(*$C$DW$T$19)
    2688                      .dwattr $C$DW$252, DW_AT_name("GPIO74")
    2689                      .dwattr $C$DW$252, DW_AT_TI_symbol_name("_GPIO74")
    2690                      .dwattr $C$DW$252, DW_AT_bit_offset(0x05), DW_AT_bit_size(0x01)
    2691                      .dwattr $C$DW$252, DW_AT_data_member_location[DW_OP_plus_uconst 0x0]
    2692                      .dwattr $C$DW$252, DW_AT_accessibility(DW_ACCESS_public)
    2693              $C$DW$253       .dwtag  DW_TAG_member
    2694                      .dwattr $C$DW$253, DW_AT_type(*$C$DW$T$19)
    2695                      .dwattr $C$DW$253, DW_AT_name("GPIO75")
    2696                      .dwattr $C$DW$253, DW_AT_TI_symbol_name("_GPIO75")
    2697                      .dwattr $C$DW$253, DW_AT_bit_offset(0x04), DW_AT_bit_size(0x01)
    2698                      .dwattr $C$DW$253, DW_AT_data_member_location[DW_OP_plus_uconst 0x0]
    2699                      .dwattr $C$DW$253, DW_AT_accessibility(DW_ACCESS_public)
    2700              $C$DW$254       .dwtag  DW_TAG_member
    2701                      .dwattr $C$DW$254, DW_AT_type(*$C$DW$T$19)
    2702                      .dwattr $C$DW$254, DW_AT_name("GPIO76")
    2703                      .dwattr $C$DW$254, DW_AT_TI_symbol_name("_GPIO76")
    2704                      .dwattr $C$DW$254, DW_AT_bit_offset(0x03), DW_AT_bit_size(0x01)
    2705                      .dwattr $C$DW$254, DW_AT_data_member_location[DW_OP_plus_uconst 0x0]
    2706                      .dwattr $C$DW$254, DW_AT_accessibility(DW_ACCESS_public)
    2707              $C$DW$255       .dwtag  DW_TAG_member
    2708                      .dwattr $C$DW$255, DW_AT_type(*$C$DW$T$19)
    2709                      .dwattr $C$DW$255, DW_AT_name("GPIO77")
    2710                      .dwattr $C$DW$255, DW_AT_TI_symbol_name("_GPIO77")
    2711                      .dwattr $C$DW$255, DW_AT_bit_offset(0x02), DW_AT_bit_size(0x01)
    2712                      .dwattr $C$DW$255, DW_AT_data_member_location[DW_OP_plus_uconst 0x0]
    2713                      .dwattr $C$DW$255, DW_AT_accessibility(DW_ACCESS_public)
    2714              $C$DW$256       .dwtag  DW_TAG_member
    2715                      .dwattr $C$DW$256, DW_AT_type(*$C$DW$T$19)
    2716                      .dwattr $C$DW$256, DW_AT_name("GPIO78")
    2717                      .dwattr $C$DW$256, DW_AT_TI_symbol_name("_GPIO78")
    2718                      .dwattr $C$DW$256, DW_AT_bit_offset(0x01), DW_AT_bit_size(0x01)
TMS320C2000 Assembler PC v6.2.7 Thu Jul 02 08:31:10 2015

Tools Copyright (c) 1996-2014 Texas Instruments Incorporated
C:\Users\Tester\AppData\Local\Temp\0600410                           PAGE   52

    2719                      .dwattr $C$DW$256, DW_AT_data_member_location[DW_OP_plus_uconst 0x0]
    2720                      .dwattr $C$DW$256, DW_AT_accessibility(DW_ACCESS_public)
    2721              $C$DW$257       .dwtag  DW_TAG_member
    2722                      .dwattr $C$DW$257, DW_AT_type(*$C$DW$T$19)
    2723                      .dwattr $C$DW$257, DW_AT_name("GPIO79")
    2724                      .dwattr $C$DW$257, DW_AT_TI_symbol_name("_GPIO79")
    2725                      .dwattr $C$DW$257, DW_AT_bit_offset(0x00), DW_AT_bit_size(0x01)
    2726                      .dwattr $C$DW$257, DW_AT_data_member_location[DW_OP_plus_uconst 0x0]
    2727                      .dwattr $C$DW$257, DW_AT_accessibility(DW_ACCESS_public)
    2728              $C$DW$258       .dwtag  DW_TAG_member
    2729                      .dwattr $C$DW$258, DW_AT_type(*$C$DW$T$19)
    2730                      .dwattr $C$DW$258, DW_AT_name("GPIO80")
    2731                      .dwattr $C$DW$258, DW_AT_TI_symbol_name("_GPIO80")
    2732                      .dwattr $C$DW$258, DW_AT_bit_offset(0x0f), DW_AT_bit_size(0x01)
    2733                      .dwattr $C$DW$258, DW_AT_data_member_location[DW_OP_plus_uconst 0x1]
    2734                      .dwattr $C$DW$258, DW_AT_accessibility(DW_ACCESS_public)
    2735              $C$DW$259       .dwtag  DW_TAG_member
    2736                      .dwattr $C$DW$259, DW_AT_type(*$C$DW$T$19)
    2737                      .dwattr $C$DW$259, DW_AT_name("GPIO81")
    2738                      .dwattr $C$DW$259, DW_AT_TI_symbol_name("_GPIO81")
    2739                      .dwattr $C$DW$259, DW_AT_bit_offset(0x0e), DW_AT_bit_size(0x01)
    2740                      .dwattr $C$DW$259, DW_AT_data_member_location[DW_OP_plus_uconst 0x1]
    2741                      .dwattr $C$DW$259, DW_AT_accessibility(DW_ACCESS_public)
    2742              $C$DW$260       .dwtag  DW_TAG_member
    2743                      .dwattr $C$DW$260, DW_AT_type(*$C$DW$T$19)
    2744                      .dwattr $C$DW$260, DW_AT_name("GPIO82")
    2745                      .dwattr $C$DW$260, DW_AT_TI_symbol_name("_GPIO82")
    2746                      .dwattr $C$DW$260, DW_AT_bit_offset(0x0d), DW_AT_bit_size(0x01)
    2747                      .dwattr $C$DW$260, DW_AT_data_member_location[DW_OP_plus_uconst 0x1]
    2748                      .dwattr $C$DW$260, DW_AT_accessibility(DW_ACCESS_public)
    2749              $C$DW$261       .dwtag  DW_TAG_member
    2750                      .dwattr $C$DW$261, DW_AT_type(*$C$DW$T$19)
    2751                      .dwattr $C$DW$261, DW_AT_name("GPIO83")
    2752                      .dwattr $C$DW$261, DW_AT_TI_symbol_name("_GPIO83")
    2753                      .dwattr $C$DW$261, DW_AT_bit_offset(0x0c), DW_AT_bit_size(0x01)
    2754                      .dwattr $C$DW$261, DW_AT_data_member_location[DW_OP_plus_uconst 0x1]
    2755                      .dwattr $C$DW$261, DW_AT_accessibility(DW_ACCESS_public)
    2756              $C$DW$262       .dwtag  DW_TAG_member
    2757                      .dwattr $C$DW$262, DW_AT_type(*$C$DW$T$19)
    2758                      .dwattr $C$DW$262, DW_AT_name("GPIO84")
    2759                      .dwattr $C$DW$262, DW_AT_TI_symbol_name("_GPIO84")
    2760                      .dwattr $C$DW$262, DW_AT_bit_offset(0x0b), DW_AT_bit_size(0x01)
    2761                      .dwattr $C$DW$262, DW_AT_data_member_location[DW_OP_plus_uconst 0x1]
    2762                      .dwattr $C$DW$262, DW_AT_accessibility(DW_ACCESS_public)
    2763              $C$DW$263       .dwtag  DW_TAG_member
    2764                      .dwattr $C$DW$263, DW_AT_type(*$C$DW$T$19)
    2765                      .dwattr $C$DW$263, DW_AT_name("GPIO85")
    2766                      .dwattr $C$DW$263, DW_AT_TI_symbol_name("_GPIO85")
    2767                      .dwattr $C$DW$263, DW_AT_bit_offset(0x0a), DW_AT_bit_size(0x01)
    2768                      .dwattr $C$DW$263, DW_AT_data_member_location[DW_OP_plus_uconst 0x1]
    2769                      .dwattr $C$DW$263, DW_AT_accessibility(DW_ACCESS_public)
    2770              $C$DW$264       .dwtag  DW_TAG_member
    2771                      .dwattr $C$DW$264, DW_AT_type(*$C$DW$T$19)
    2772                      .dwattr $C$DW$264, DW_AT_name("GPIO86")
    2773                      .dwattr $C$DW$264, DW_AT_TI_symbol_name("_GPIO86")
TMS320C2000 Assembler PC v6.2.7 Thu Jul 02 08:31:10 2015

Tools Copyright (c) 1996-2014 Texas Instruments Incorporated
C:\Users\Tester\AppData\Local\Temp\0600410                           PAGE   53

    2774                      .dwattr $C$DW$264, DW_AT_bit_offset(0x09), DW_AT_bit_size(0x01)
    2775                      .dwattr $C$DW$264, DW_AT_data_member_location[DW_OP_plus_uconst 0x1]
    2776                      .dwattr $C$DW$264, DW_AT_accessibility(DW_ACCESS_public)
    2777              $C$DW$265       .dwtag  DW_TAG_member
    2778                      .dwattr $C$DW$265, DW_AT_type(*$C$DW$T$19)
    2779                      .dwattr $C$DW$265, DW_AT_name("GPIO87")
    2780                      .dwattr $C$DW$265, DW_AT_TI_symbol_name("_GPIO87")
    2781                      .dwattr $C$DW$265, DW_AT_bit_offset(0x08), DW_AT_bit_size(0x01)
    2782                      .dwattr $C$DW$265, DW_AT_data_member_location[DW_OP_plus_uconst 0x1]
    2783                      .dwattr $C$DW$265, DW_AT_accessibility(DW_ACCESS_public)
    2784              $C$DW$266       .dwtag  DW_TAG_member
    2785                      .dwattr $C$DW$266, DW_AT_type(*$C$DW$T$19)
    2786                      .dwattr $C$DW$266, DW_AT_name("rsvd1")
    2787                      .dwattr $C$DW$266, DW_AT_TI_symbol_name("_rsvd1")
    2788                      .dwattr $C$DW$266, DW_AT_bit_offset(0x00), DW_AT_bit_size(0x08)
    2789                      .dwattr $C$DW$266, DW_AT_data_member_location[DW_OP_plus_uconst 0x1]
    2790                      .dwattr $C$DW$266, DW_AT_accessibility(DW_ACCESS_public)
    2791                      .dwendtag $C$DW$T$41
    2792              
    2793              
    2794              $C$DW$T$42      .dwtag  DW_TAG_union_type
    2795                      .dwattr $C$DW$T$42, DW_AT_name("GPCDAT_REG")
    2796                      .dwattr $C$DW$T$42, DW_AT_byte_size(0x02)
    2797              $C$DW$267       .dwtag  DW_TAG_member
    2798                      .dwattr $C$DW$267, DW_AT_type(*$C$DW$T$21)
    2799                      .dwattr $C$DW$267, DW_AT_name("all")
    2800                      .dwattr $C$DW$267, DW_AT_TI_symbol_name("_all")
    2801                      .dwattr $C$DW$267, DW_AT_data_member_location[DW_OP_plus_uconst 0x0]
    2802                      .dwattr $C$DW$267, DW_AT_accessibility(DW_ACCESS_public)
    2803              $C$DW$268       .dwtag  DW_TAG_member
    2804                      .dwattr $C$DW$268, DW_AT_type(*$C$DW$T$41)
    2805                      .dwattr $C$DW$268, DW_AT_name("bit")
    2806                      .dwattr $C$DW$268, DW_AT_TI_symbol_name("_bit")
    2807                      .dwattr $C$DW$268, DW_AT_data_member_location[DW_OP_plus_uconst 0x0]
    2808                      .dwattr $C$DW$268, DW_AT_accessibility(DW_ACCESS_public)
    2809                      .dwendtag $C$DW$T$42
    2810              
    2811              
    2812              $C$DW$T$44      .dwtag  DW_TAG_structure_type
    2813                      .dwattr $C$DW$T$44, DW_AT_name("GPIO_CTRL_REGS")
    2814                      .dwattr $C$DW$T$44, DW_AT_byte_size(0x2e)
    2815              $C$DW$269       .dwtag  DW_TAG_member
    2816                      .dwattr $C$DW$269, DW_AT_type(*$C$DW$T$26)
    2817                      .dwattr $C$DW$269, DW_AT_name("GPACTRL")
    2818                      .dwattr $C$DW$269, DW_AT_TI_symbol_name("_GPACTRL")
    2819                      .dwattr $C$DW$269, DW_AT_data_member_location[DW_OP_plus_uconst 0x0]
    2820                      .dwattr $C$DW$269, DW_AT_accessibility(DW_ACCESS_public)
    2821              $C$DW$270       .dwtag  DW_TAG_member
    2822                      .dwattr $C$DW$270, DW_AT_type(*$C$DW$T$22)
    2823                      .dwattr $C$DW$270, DW_AT_name("GPAQSEL1")
    2824                      .dwattr $C$DW$270, DW_AT_TI_symbol_name("_GPAQSEL1")
    2825                      .dwattr $C$DW$270, DW_AT_data_member_location[DW_OP_plus_uconst 0x2]
    2826                      .dwattr $C$DW$270, DW_AT_accessibility(DW_ACCESS_public)
    2827              $C$DW$271       .dwtag  DW_TAG_member
    2828                      .dwattr $C$DW$271, DW_AT_type(*$C$DW$T$24)
TMS320C2000 Assembler PC v6.2.7 Thu Jul 02 08:31:10 2015

Tools Copyright (c) 1996-2014 Texas Instruments Incorporated
C:\Users\Tester\AppData\Local\Temp\0600410                           PAGE   54

    2829                      .dwattr $C$DW$271, DW_AT_name("GPAQSEL2")
    2830                      .dwattr $C$DW$271, DW_AT_TI_symbol_name("_GPAQSEL2")
    2831                      .dwattr $C$DW$271, DW_AT_data_member_location[DW_OP_plus_uconst 0x4]
    2832                      .dwattr $C$DW$271, DW_AT_accessibility(DW_ACCESS_public)
    2833              $C$DW$272       .dwtag  DW_TAG_member
    2834                      .dwattr $C$DW$272, DW_AT_type(*$C$DW$T$22)
    2835                      .dwattr $C$DW$272, DW_AT_name("GPAMUX1")
    2836                      .dwattr $C$DW$272, DW_AT_TI_symbol_name("_GPAMUX1")
    2837                      .dwattr $C$DW$272, DW_AT_data_member_location[DW_OP_plus_uconst 0x6]
    2838                      .dwattr $C$DW$272, DW_AT_accessibility(DW_ACCESS_public)
    2839              $C$DW$273       .dwtag  DW_TAG_member
    2840                      .dwattr $C$DW$273, DW_AT_type(*$C$DW$T$24)
    2841                      .dwattr $C$DW$273, DW_AT_name("GPAMUX2")
    2842                      .dwattr $C$DW$273, DW_AT_TI_symbol_name("_GPAMUX2")
    2843                      .dwattr $C$DW$273, DW_AT_data_member_location[DW_OP_plus_uconst 0x8]
    2844                      .dwattr $C$DW$273, DW_AT_accessibility(DW_ACCESS_public)
    2845              $C$DW$274       .dwtag  DW_TAG_member
    2846                      .dwattr $C$DW$274, DW_AT_type(*$C$DW$T$28)
    2847                      .dwattr $C$DW$274, DW_AT_name("GPADIR")
    2848                      .dwattr $C$DW$274, DW_AT_TI_symbol_name("_GPADIR")
    2849                      .dwattr $C$DW$274, DW_AT_data_member_location[DW_OP_plus_uconst 0xa]
    2850                      .dwattr $C$DW$274, DW_AT_accessibility(DW_ACCESS_public)
    2851              $C$DW$275       .dwtag  DW_TAG_member
    2852                      .dwattr $C$DW$275, DW_AT_type(*$C$DW$T$28)
    2853                      .dwattr $C$DW$275, DW_AT_name("GPAPUD")
    2854                      .dwattr $C$DW$275, DW_AT_TI_symbol_name("_GPAPUD")
    2855                      .dwattr $C$DW$275, DW_AT_data_member_location[DW_OP_plus_uconst 0xc]
    2856                      .dwattr $C$DW$275, DW_AT_accessibility(DW_ACCESS_public)
    2857              $C$DW$276       .dwtag  DW_TAG_member
    2858                      .dwattr $C$DW$276, DW_AT_type(*$C$DW$T$21)
    2859                      .dwattr $C$DW$276, DW_AT_name("rsvd1")
    2860                      .dwattr $C$DW$276, DW_AT_TI_symbol_name("_rsvd1")
    2861                      .dwattr $C$DW$276, DW_AT_data_member_location[DW_OP_plus_uconst 0xe]
    2862                      .dwattr $C$DW$276, DW_AT_accessibility(DW_ACCESS_public)
    2863              $C$DW$277       .dwtag  DW_TAG_member
    2864                      .dwattr $C$DW$277, DW_AT_type(*$C$DW$T$34)
    2865                      .dwattr $C$DW$277, DW_AT_name("GPBCTRL")
    2866                      .dwattr $C$DW$277, DW_AT_TI_symbol_name("_GPBCTRL")
    2867                      .dwattr $C$DW$277, DW_AT_data_member_location[DW_OP_plus_uconst 0x10]
    2868                      .dwattr $C$DW$277, DW_AT_accessibility(DW_ACCESS_public)
    2869              $C$DW$278       .dwtag  DW_TAG_member
    2870                      .dwattr $C$DW$278, DW_AT_type(*$C$DW$T$30)
    2871                      .dwattr $C$DW$278, DW_AT_name("GPBQSEL1")
    2872                      .dwattr $C$DW$278, DW_AT_TI_symbol_name("_GPBQSEL1")
    2873                      .dwattr $C$DW$278, DW_AT_data_member_location[DW_OP_plus_uconst 0x12]
    2874                      .dwattr $C$DW$278, DW_AT_accessibility(DW_ACCESS_public)
    2875              $C$DW$279       .dwtag  DW_TAG_member
    2876                      .dwattr $C$DW$279, DW_AT_type(*$C$DW$T$32)
    2877                      .dwattr $C$DW$279, DW_AT_name("GPBQSEL2")
    2878                      .dwattr $C$DW$279, DW_AT_TI_symbol_name("_GPBQSEL2")
    2879                      .dwattr $C$DW$279, DW_AT_data_member_location[DW_OP_plus_uconst 0x14]
    2880                      .dwattr $C$DW$279, DW_AT_accessibility(DW_ACCESS_public)
    2881              $C$DW$280       .dwtag  DW_TAG_member
    2882                      .dwattr $C$DW$280, DW_AT_type(*$C$DW$T$30)
    2883                      .dwattr $C$DW$280, DW_AT_name("GPBMUX1")
TMS320C2000 Assembler PC v6.2.7 Thu Jul 02 08:31:10 2015

Tools Copyright (c) 1996-2014 Texas Instruments Incorporated
C:\Users\Tester\AppData\Local\Temp\0600410                           PAGE   55

    2884                      .dwattr $C$DW$280, DW_AT_TI_symbol_name("_GPBMUX1")
    2885                      .dwattr $C$DW$280, DW_AT_data_member_location[DW_OP_plus_uconst 0x16]
    2886                      .dwattr $C$DW$280, DW_AT_accessibility(DW_ACCESS_public)
    2887              $C$DW$281       .dwtag  DW_TAG_member
    2888                      .dwattr $C$DW$281, DW_AT_type(*$C$DW$T$32)
    2889                      .dwattr $C$DW$281, DW_AT_name("GPBMUX2")
    2890                      .dwattr $C$DW$281, DW_AT_TI_symbol_name("_GPBMUX2")
    2891                      .dwattr $C$DW$281, DW_AT_data_member_location[DW_OP_plus_uconst 0x18]
    2892                      .dwattr $C$DW$281, DW_AT_accessibility(DW_ACCESS_public)
    2893              $C$DW$282       .dwtag  DW_TAG_member
    2894                      .dwattr $C$DW$282, DW_AT_type(*$C$DW$T$36)
    2895                      .dwattr $C$DW$282, DW_AT_name("GPBDIR")
    2896                      .dwattr $C$DW$282, DW_AT_TI_symbol_name("_GPBDIR")
    2897                      .dwattr $C$DW$282, DW_AT_data_member_location[DW_OP_plus_uconst 0x1a]
    2898                      .dwattr $C$DW$282, DW_AT_accessibility(DW_ACCESS_public)
    2899              $C$DW$283       .dwtag  DW_TAG_member
    2900                      .dwattr $C$DW$283, DW_AT_type(*$C$DW$T$36)
    2901                      .dwattr $C$DW$283, DW_AT_name("GPBPUD")
    2902                      .dwattr $C$DW$283, DW_AT_TI_symbol_name("_GPBPUD")
    2903                      .dwattr $C$DW$283, DW_AT_data_member_location[DW_OP_plus_uconst 0x1c]
    2904                      .dwattr $C$DW$283, DW_AT_accessibility(DW_ACCESS_public)
    2905              $C$DW$284       .dwtag  DW_TAG_member
    2906                      .dwattr $C$DW$284, DW_AT_type(*$C$DW$T$43)
    2907                      .dwattr $C$DW$284, DW_AT_name("rsvd2")
    2908                      .dwattr $C$DW$284, DW_AT_TI_symbol_name("_rsvd2")
    2909                      .dwattr $C$DW$284, DW_AT_data_member_location[DW_OP_plus_uconst 0x1e]
    2910                      .dwattr $C$DW$284, DW_AT_accessibility(DW_ACCESS_public)
    2911              $C$DW$285       .dwtag  DW_TAG_member
    2912                      .dwattr $C$DW$285, DW_AT_type(*$C$DW$T$38)
    2913                      .dwattr $C$DW$285, DW_AT_name("GPCMUX1")
    2914                      .dwattr $C$DW$285, DW_AT_TI_symbol_name("_GPCMUX1")
    2915                      .dwattr $C$DW$285, DW_AT_data_member_location[DW_OP_plus_uconst 0x26]
    2916                      .dwattr $C$DW$285, DW_AT_accessibility(DW_ACCESS_public)
    2917              $C$DW$286       .dwtag  DW_TAG_member
    2918                      .dwattr $C$DW$286, DW_AT_type(*$C$DW$T$40)
    2919                      .dwattr $C$DW$286, DW_AT_name("GPCMUX2")
    2920                      .dwattr $C$DW$286, DW_AT_TI_symbol_name("_GPCMUX2")
    2921                      .dwattr $C$DW$286, DW_AT_data_member_location[DW_OP_plus_uconst 0x28]
    2922                      .dwattr $C$DW$286, DW_AT_accessibility(DW_ACCESS_public)
    2923              $C$DW$287       .dwtag  DW_TAG_member
    2924                      .dwattr $C$DW$287, DW_AT_type(*$C$DW$T$42)
    2925                      .dwattr $C$DW$287, DW_AT_name("GPCDIR")
    2926                      .dwattr $C$DW$287, DW_AT_TI_symbol_name("_GPCDIR")
    2927                      .dwattr $C$DW$287, DW_AT_data_member_location[DW_OP_plus_uconst 0x2a]
    2928                      .dwattr $C$DW$287, DW_AT_accessibility(DW_ACCESS_public)
    2929              $C$DW$288       .dwtag  DW_TAG_member
    2930                      .dwattr $C$DW$288, DW_AT_type(*$C$DW$T$42)
    2931                      .dwattr $C$DW$288, DW_AT_name("GPCPUD")
    2932                      .dwattr $C$DW$288, DW_AT_TI_symbol_name("_GPCPUD")
    2933                      .dwattr $C$DW$288, DW_AT_data_member_location[DW_OP_plus_uconst 0x2c]
    2934                      .dwattr $C$DW$288, DW_AT_accessibility(DW_ACCESS_public)
    2935                      .dwendtag $C$DW$T$44
    2936              
    2937              $C$DW$289       .dwtag  DW_TAG_TI_far_type
    2938                      .dwattr $C$DW$289, DW_AT_type(*$C$DW$T$44)
TMS320C2000 Assembler PC v6.2.7 Thu Jul 02 08:31:10 2015

Tools Copyright (c) 1996-2014 Texas Instruments Incorporated
C:\Users\Tester\AppData\Local\Temp\0600410                           PAGE   56

    2939              $C$DW$T$81      .dwtag  DW_TAG_volatile_type
    2940                      .dwattr $C$DW$T$81, DW_AT_type(*$C$DW$289)
    2941              
    2942              $C$DW$T$45      .dwtag  DW_TAG_structure_type
    2943                      .dwattr $C$DW$T$45, DW_AT_name("PIEACK_BITS")
    2944                      .dwattr $C$DW$T$45, DW_AT_byte_size(0x01)
    2945              $C$DW$290       .dwtag  DW_TAG_member
    2946                      .dwattr $C$DW$290, DW_AT_type(*$C$DW$T$19)
    2947                      .dwattr $C$DW$290, DW_AT_name("ACK1")
    2948                      .dwattr $C$DW$290, DW_AT_TI_symbol_name("_ACK1")
    2949                      .dwattr $C$DW$290, DW_AT_bit_offset(0x0f), DW_AT_bit_size(0x01)
    2950                      .dwattr $C$DW$290, DW_AT_data_member_location[DW_OP_plus_uconst 0x0]
    2951                      .dwattr $C$DW$290, DW_AT_accessibility(DW_ACCESS_public)
    2952              $C$DW$291       .dwtag  DW_TAG_member
    2953                      .dwattr $C$DW$291, DW_AT_type(*$C$DW$T$19)
    2954                      .dwattr $C$DW$291, DW_AT_name("ACK2")
    2955                      .dwattr $C$DW$291, DW_AT_TI_symbol_name("_ACK2")
    2956                      .dwattr $C$DW$291, DW_AT_bit_offset(0x0e), DW_AT_bit_size(0x01)
    2957                      .dwattr $C$DW$291, DW_AT_data_member_location[DW_OP_plus_uconst 0x0]
    2958                      .dwattr $C$DW$291, DW_AT_accessibility(DW_ACCESS_public)
    2959              $C$DW$292       .dwtag  DW_TAG_member
    2960                      .dwattr $C$DW$292, DW_AT_type(*$C$DW$T$19)
    2961                      .dwattr $C$DW$292, DW_AT_name("ACK3")
    2962                      .dwattr $C$DW$292, DW_AT_TI_symbol_name("_ACK3")
    2963                      .dwattr $C$DW$292, DW_AT_bit_offset(0x0d), DW_AT_bit_size(0x01)
    2964                      .dwattr $C$DW$292, DW_AT_data_member_location[DW_OP_plus_uconst 0x0]
    2965                      .dwattr $C$DW$292, DW_AT_accessibility(DW_ACCESS_public)
    2966              $C$DW$293       .dwtag  DW_TAG_member
    2967                      .dwattr $C$DW$293, DW_AT_type(*$C$DW$T$19)
    2968                      .dwattr $C$DW$293, DW_AT_name("ACK4")
    2969                      .dwattr $C$DW$293, DW_AT_TI_symbol_name("_ACK4")
    2970                      .dwattr $C$DW$293, DW_AT_bit_offset(0x0c), DW_AT_bit_size(0x01)
    2971                      .dwattr $C$DW$293, DW_AT_data_member_location[DW_OP_plus_uconst 0x0]
    2972                      .dwattr $C$DW$293, DW_AT_accessibility(DW_ACCESS_public)
    2973              $C$DW$294       .dwtag  DW_TAG_member
    2974                      .dwattr $C$DW$294, DW_AT_type(*$C$DW$T$19)
    2975                      .dwattr $C$DW$294, DW_AT_name("ACK5")
    2976                      .dwattr $C$DW$294, DW_AT_TI_symbol_name("_ACK5")
    2977                      .dwattr $C$DW$294, DW_AT_bit_offset(0x0b), DW_AT_bit_size(0x01)
    2978                      .dwattr $C$DW$294, DW_AT_data_member_location[DW_OP_plus_uconst 0x0]
    2979                      .dwattr $C$DW$294, DW_AT_accessibility(DW_ACCESS_public)
    2980              $C$DW$295       .dwtag  DW_TAG_member
    2981                      .dwattr $C$DW$295, DW_AT_type(*$C$DW$T$19)
    2982                      .dwattr $C$DW$295, DW_AT_name("ACK6")
    2983                      .dwattr $C$DW$295, DW_AT_TI_symbol_name("_ACK6")
    2984                      .dwattr $C$DW$295, DW_AT_bit_offset(0x0a), DW_AT_bit_size(0x01)
    2985                      .dwattr $C$DW$295, DW_AT_data_member_location[DW_OP_plus_uconst 0x0]
    2986                      .dwattr $C$DW$295, DW_AT_accessibility(DW_ACCESS_public)
    2987              $C$DW$296       .dwtag  DW_TAG_member
    2988                      .dwattr $C$DW$296, DW_AT_type(*$C$DW$T$19)
    2989                      .dwattr $C$DW$296, DW_AT_name("ACK7")
    2990                      .dwattr $C$DW$296, DW_AT_TI_symbol_name("_ACK7")
    2991                      .dwattr $C$DW$296, DW_AT_bit_offset(0x09), DW_AT_bit_size(0x01)
    2992                      .dwattr $C$DW$296, DW_AT_data_member_location[DW_OP_plus_uconst 0x0]
    2993                      .dwattr $C$DW$296, DW_AT_accessibility(DW_ACCESS_public)
TMS320C2000 Assembler PC v6.2.7 Thu Jul 02 08:31:10 2015

Tools Copyright (c) 1996-2014 Texas Instruments Incorporated
C:\Users\Tester\AppData\Local\Temp\0600410                           PAGE   57

    2994              $C$DW$297       .dwtag  DW_TAG_member
    2995                      .dwattr $C$DW$297, DW_AT_type(*$C$DW$T$19)
    2996                      .dwattr $C$DW$297, DW_AT_name("ACK8")
    2997                      .dwattr $C$DW$297, DW_AT_TI_symbol_name("_ACK8")
    2998                      .dwattr $C$DW$297, DW_AT_bit_offset(0x08), DW_AT_bit_size(0x01)
    2999                      .dwattr $C$DW$297, DW_AT_data_member_location[DW_OP_plus_uconst 0x0]
    3000                      .dwattr $C$DW$297, DW_AT_accessibility(DW_ACCESS_public)
    3001              $C$DW$298       .dwtag  DW_TAG_member
    3002                      .dwattr $C$DW$298, DW_AT_type(*$C$DW$T$19)
    3003                      .dwattr $C$DW$298, DW_AT_name("ACK9")
    3004                      .dwattr $C$DW$298, DW_AT_TI_symbol_name("_ACK9")
    3005                      .dwattr $C$DW$298, DW_AT_bit_offset(0x07), DW_AT_bit_size(0x01)
    3006                      .dwattr $C$DW$298, DW_AT_data_member_location[DW_OP_plus_uconst 0x0]
    3007                      .dwattr $C$DW$298, DW_AT_accessibility(DW_ACCESS_public)
    3008              $C$DW$299       .dwtag  DW_TAG_member
    3009                      .dwattr $C$DW$299, DW_AT_type(*$C$DW$T$19)
    3010                      .dwattr $C$DW$299, DW_AT_name("ACK10")
    3011                      .dwattr $C$DW$299, DW_AT_TI_symbol_name("_ACK10")
    3012                      .dwattr $C$DW$299, DW_AT_bit_offset(0x06), DW_AT_bit_size(0x01)
    3013                      .dwattr $C$DW$299, DW_AT_data_member_location[DW_OP_plus_uconst 0x0]
    3014                      .dwattr $C$DW$299, DW_AT_accessibility(DW_ACCESS_public)
    3015              $C$DW$300       .dwtag  DW_TAG_member
    3016                      .dwattr $C$DW$300, DW_AT_type(*$C$DW$T$19)
    3017                      .dwattr $C$DW$300, DW_AT_name("ACK11")
    3018                      .dwattr $C$DW$300, DW_AT_TI_symbol_name("_ACK11")
    3019                      .dwattr $C$DW$300, DW_AT_bit_offset(0x05), DW_AT_bit_size(0x01)
    3020                      .dwattr $C$DW$300, DW_AT_data_member_location[DW_OP_plus_uconst 0x0]
    3021                      .dwattr $C$DW$300, DW_AT_accessibility(DW_ACCESS_public)
    3022              $C$DW$301       .dwtag  DW_TAG_member
    3023                      .dwattr $C$DW$301, DW_AT_type(*$C$DW$T$19)
    3024                      .dwattr $C$DW$301, DW_AT_name("ACK12")
    3025                      .dwattr $C$DW$301, DW_AT_TI_symbol_name("_ACK12")
    3026                      .dwattr $C$DW$301, DW_AT_bit_offset(0x04), DW_AT_bit_size(0x01)
    3027                      .dwattr $C$DW$301, DW_AT_data_member_location[DW_OP_plus_uconst 0x0]
    3028                      .dwattr $C$DW$301, DW_AT_accessibility(DW_ACCESS_public)
    3029              $C$DW$302       .dwtag  DW_TAG_member
    3030                      .dwattr $C$DW$302, DW_AT_type(*$C$DW$T$19)
    3031                      .dwattr $C$DW$302, DW_AT_name("rsvd")
    3032                      .dwattr $C$DW$302, DW_AT_TI_symbol_name("_rsvd")
    3033                      .dwattr $C$DW$302, DW_AT_bit_offset(0x00), DW_AT_bit_size(0x04)
    3034                      .dwattr $C$DW$302, DW_AT_data_member_location[DW_OP_plus_uconst 0x0]
    3035                      .dwattr $C$DW$302, DW_AT_accessibility(DW_ACCESS_public)
    3036                      .dwendtag $C$DW$T$45
    3037              
    3038              
    3039              $C$DW$T$46      .dwtag  DW_TAG_union_type
    3040                      .dwattr $C$DW$T$46, DW_AT_name("PIEACK_REG")
    3041                      .dwattr $C$DW$T$46, DW_AT_byte_size(0x01)
    3042              $C$DW$303       .dwtag  DW_TAG_member
    3043                      .dwattr $C$DW$303, DW_AT_type(*$C$DW$T$19)
    3044                      .dwattr $C$DW$303, DW_AT_name("all")
    3045                      .dwattr $C$DW$303, DW_AT_TI_symbol_name("_all")
    3046                      .dwattr $C$DW$303, DW_AT_data_member_location[DW_OP_plus_uconst 0x0]
    3047                      .dwattr $C$DW$303, DW_AT_accessibility(DW_ACCESS_public)
    3048              $C$DW$304       .dwtag  DW_TAG_member
TMS320C2000 Assembler PC v6.2.7 Thu Jul 02 08:31:10 2015

Tools Copyright (c) 1996-2014 Texas Instruments Incorporated
C:\Users\Tester\AppData\Local\Temp\0600410                           PAGE   58

    3049                      .dwattr $C$DW$304, DW_AT_type(*$C$DW$T$45)
    3050                      .dwattr $C$DW$304, DW_AT_name("bit")
    3051                      .dwattr $C$DW$304, DW_AT_TI_symbol_name("_bit")
    3052                      .dwattr $C$DW$304, DW_AT_data_member_location[DW_OP_plus_uconst 0x0]
    3053                      .dwattr $C$DW$304, DW_AT_accessibility(DW_ACCESS_public)
    3054                      .dwendtag $C$DW$T$46
    3055              
    3056              
    3057              $C$DW$T$47      .dwtag  DW_TAG_structure_type
    3058                      .dwattr $C$DW$T$47, DW_AT_name("PIECTRL_BITS")
    3059                      .dwattr $C$DW$T$47, DW_AT_byte_size(0x01)
    3060              $C$DW$305       .dwtag  DW_TAG_member
    3061                      .dwattr $C$DW$305, DW_AT_type(*$C$DW$T$19)
    3062                      .dwattr $C$DW$305, DW_AT_name("ENPIE")
    3063                      .dwattr $C$DW$305, DW_AT_TI_symbol_name("_ENPIE")
    3064                      .dwattr $C$DW$305, DW_AT_bit_offset(0x0f), DW_AT_bit_size(0x01)
    3065                      .dwattr $C$DW$305, DW_AT_data_member_location[DW_OP_plus_uconst 0x0]
    3066                      .dwattr $C$DW$305, DW_AT_accessibility(DW_ACCESS_public)
    3067              $C$DW$306       .dwtag  DW_TAG_member
    3068                      .dwattr $C$DW$306, DW_AT_type(*$C$DW$T$19)
    3069                      .dwattr $C$DW$306, DW_AT_name("PIEVECT")
    3070                      .dwattr $C$DW$306, DW_AT_TI_symbol_name("_PIEVECT")
    3071                      .dwattr $C$DW$306, DW_AT_bit_offset(0x00), DW_AT_bit_size(0x0f)
    3072                      .dwattr $C$DW$306, DW_AT_data_member_location[DW_OP_plus_uconst 0x0]
    3073                      .dwattr $C$DW$306, DW_AT_accessibility(DW_ACCESS_public)
    3074                      .dwendtag $C$DW$T$47
    3075              
    3076              
    3077              $C$DW$T$48      .dwtag  DW_TAG_union_type
    3078                      .dwattr $C$DW$T$48, DW_AT_name("PIECTRL_REG")
    3079                      .dwattr $C$DW$T$48, DW_AT_byte_size(0x01)
    3080              $C$DW$307       .dwtag  DW_TAG_member
    3081                      .dwattr $C$DW$307, DW_AT_type(*$C$DW$T$19)
    3082                      .dwattr $C$DW$307, DW_AT_name("all")
    3083                      .dwattr $C$DW$307, DW_AT_TI_symbol_name("_all")
    3084                      .dwattr $C$DW$307, DW_AT_data_member_location[DW_OP_plus_uconst 0x0]
    3085                      .dwattr $C$DW$307, DW_AT_accessibility(DW_ACCESS_public)
    3086              $C$DW$308       .dwtag  DW_TAG_member
    3087                      .dwattr $C$DW$308, DW_AT_type(*$C$DW$T$47)
    3088                      .dwattr $C$DW$308, DW_AT_name("bit")
    3089                      .dwattr $C$DW$308, DW_AT_TI_symbol_name("_bit")
    3090                      .dwattr $C$DW$308, DW_AT_data_member_location[DW_OP_plus_uconst 0x0]
    3091                      .dwattr $C$DW$308, DW_AT_accessibility(DW_ACCESS_public)
    3092                      .dwendtag $C$DW$T$48
    3093              
    3094              
    3095              $C$DW$T$49      .dwtag  DW_TAG_structure_type
    3096                      .dwattr $C$DW$T$49, DW_AT_name("PIEIER_BITS")
    3097                      .dwattr $C$DW$T$49, DW_AT_byte_size(0x01)
    3098              $C$DW$309       .dwtag  DW_TAG_member
    3099                      .dwattr $C$DW$309, DW_AT_type(*$C$DW$T$19)
    3100                      .dwattr $C$DW$309, DW_AT_name("INTx1")
    3101                      .dwattr $C$DW$309, DW_AT_TI_symbol_name("_INTx1")
    3102                      .dwattr $C$DW$309, DW_AT_bit_offset(0x0f), DW_AT_bit_size(0x01)
    3103                      .dwattr $C$DW$309, DW_AT_data_member_location[DW_OP_plus_uconst 0x0]
TMS320C2000 Assembler PC v6.2.7 Thu Jul 02 08:31:10 2015

Tools Copyright (c) 1996-2014 Texas Instruments Incorporated
C:\Users\Tester\AppData\Local\Temp\0600410                           PAGE   59

    3104                      .dwattr $C$DW$309, DW_AT_accessibility(DW_ACCESS_public)
    3105              $C$DW$310       .dwtag  DW_TAG_member
    3106                      .dwattr $C$DW$310, DW_AT_type(*$C$DW$T$19)
    3107                      .dwattr $C$DW$310, DW_AT_name("INTx2")
    3108                      .dwattr $C$DW$310, DW_AT_TI_symbol_name("_INTx2")
    3109                      .dwattr $C$DW$310, DW_AT_bit_offset(0x0e), DW_AT_bit_size(0x01)
    3110                      .dwattr $C$DW$310, DW_AT_data_member_location[DW_OP_plus_uconst 0x0]
    3111                      .dwattr $C$DW$310, DW_AT_accessibility(DW_ACCESS_public)
    3112              $C$DW$311       .dwtag  DW_TAG_member
    3113                      .dwattr $C$DW$311, DW_AT_type(*$C$DW$T$19)
    3114                      .dwattr $C$DW$311, DW_AT_name("INTx3")
    3115                      .dwattr $C$DW$311, DW_AT_TI_symbol_name("_INTx3")
    3116                      .dwattr $C$DW$311, DW_AT_bit_offset(0x0d), DW_AT_bit_size(0x01)
    3117                      .dwattr $C$DW$311, DW_AT_data_member_location[DW_OP_plus_uconst 0x0]
    3118                      .dwattr $C$DW$311, DW_AT_accessibility(DW_ACCESS_public)
    3119              $C$DW$312       .dwtag  DW_TAG_member
    3120                      .dwattr $C$DW$312, DW_AT_type(*$C$DW$T$19)
    3121                      .dwattr $C$DW$312, DW_AT_name("INTx4")
    3122                      .dwattr $C$DW$312, DW_AT_TI_symbol_name("_INTx4")
    3123                      .dwattr $C$DW$312, DW_AT_bit_offset(0x0c), DW_AT_bit_size(0x01)
    3124                      .dwattr $C$DW$312, DW_AT_data_member_location[DW_OP_plus_uconst 0x0]
    3125                      .dwattr $C$DW$312, DW_AT_accessibility(DW_ACCESS_public)
    3126              $C$DW$313       .dwtag  DW_TAG_member
    3127                      .dwattr $C$DW$313, DW_AT_type(*$C$DW$T$19)
    3128                      .dwattr $C$DW$313, DW_AT_name("INTx5")
    3129                      .dwattr $C$DW$313, DW_AT_TI_symbol_name("_INTx5")
    3130                      .dwattr $C$DW$313, DW_AT_bit_offset(0x0b), DW_AT_bit_size(0x01)
    3131                      .dwattr $C$DW$313, DW_AT_data_member_location[DW_OP_plus_uconst 0x0]
    3132                      .dwattr $C$DW$313, DW_AT_accessibility(DW_ACCESS_public)
    3133              $C$DW$314       .dwtag  DW_TAG_member
    3134                      .dwattr $C$DW$314, DW_AT_type(*$C$DW$T$19)
    3135                      .dwattr $C$DW$314, DW_AT_name("INTx6")
    3136                      .dwattr $C$DW$314, DW_AT_TI_symbol_name("_INTx6")
    3137                      .dwattr $C$DW$314, DW_AT_bit_offset(0x0a), DW_AT_bit_size(0x01)
    3138                      .dwattr $C$DW$314, DW_AT_data_member_location[DW_OP_plus_uconst 0x0]
    3139                      .dwattr $C$DW$314, DW_AT_accessibility(DW_ACCESS_public)
    3140              $C$DW$315       .dwtag  DW_TAG_member
    3141                      .dwattr $C$DW$315, DW_AT_type(*$C$DW$T$19)
    3142                      .dwattr $C$DW$315, DW_AT_name("INTx7")
    3143                      .dwattr $C$DW$315, DW_AT_TI_symbol_name("_INTx7")
    3144                      .dwattr $C$DW$315, DW_AT_bit_offset(0x09), DW_AT_bit_size(0x01)
    3145                      .dwattr $C$DW$315, DW_AT_data_member_location[DW_OP_plus_uconst 0x0]
    3146                      .dwattr $C$DW$315, DW_AT_accessibility(DW_ACCESS_public)
    3147              $C$DW$316       .dwtag  DW_TAG_member
    3148                      .dwattr $C$DW$316, DW_AT_type(*$C$DW$T$19)
    3149                      .dwattr $C$DW$316, DW_AT_name("INTx8")
    3150                      .dwattr $C$DW$316, DW_AT_TI_symbol_name("_INTx8")
    3151                      .dwattr $C$DW$316, DW_AT_bit_offset(0x08), DW_AT_bit_size(0x01)
    3152                      .dwattr $C$DW$316, DW_AT_data_member_location[DW_OP_plus_uconst 0x0]
    3153                      .dwattr $C$DW$316, DW_AT_accessibility(DW_ACCESS_public)
    3154              $C$DW$317       .dwtag  DW_TAG_member
    3155                      .dwattr $C$DW$317, DW_AT_type(*$C$DW$T$19)
    3156                      .dwattr $C$DW$317, DW_AT_name("rsvd")
    3157                      .dwattr $C$DW$317, DW_AT_TI_symbol_name("_rsvd")
    3158                      .dwattr $C$DW$317, DW_AT_bit_offset(0x00), DW_AT_bit_size(0x08)
TMS320C2000 Assembler PC v6.2.7 Thu Jul 02 08:31:10 2015

Tools Copyright (c) 1996-2014 Texas Instruments Incorporated
C:\Users\Tester\AppData\Local\Temp\0600410                           PAGE   60

    3159                      .dwattr $C$DW$317, DW_AT_data_member_location[DW_OP_plus_uconst 0x0]
    3160                      .dwattr $C$DW$317, DW_AT_accessibility(DW_ACCESS_public)
    3161                      .dwendtag $C$DW$T$49
    3162              
    3163              
    3164              $C$DW$T$50      .dwtag  DW_TAG_union_type
    3165                      .dwattr $C$DW$T$50, DW_AT_name("PIEIER_REG")
    3166                      .dwattr $C$DW$T$50, DW_AT_byte_size(0x01)
    3167              $C$DW$318       .dwtag  DW_TAG_member
    3168                      .dwattr $C$DW$318, DW_AT_type(*$C$DW$T$19)
    3169                      .dwattr $C$DW$318, DW_AT_name("all")
    3170                      .dwattr $C$DW$318, DW_AT_TI_symbol_name("_all")
    3171                      .dwattr $C$DW$318, DW_AT_data_member_location[DW_OP_plus_uconst 0x0]
    3172                      .dwattr $C$DW$318, DW_AT_accessibility(DW_ACCESS_public)
    3173              $C$DW$319       .dwtag  DW_TAG_member
    3174                      .dwattr $C$DW$319, DW_AT_type(*$C$DW$T$49)
    3175                      .dwattr $C$DW$319, DW_AT_name("bit")
    3176                      .dwattr $C$DW$319, DW_AT_TI_symbol_name("_bit")
    3177                      .dwattr $C$DW$319, DW_AT_data_member_location[DW_OP_plus_uconst 0x0]
    3178                      .dwattr $C$DW$319, DW_AT_accessibility(DW_ACCESS_public)
    3179                      .dwendtag $C$DW$T$50
    3180              
    3181              
    3182              $C$DW$T$51      .dwtag  DW_TAG_structure_type
    3183                      .dwattr $C$DW$T$51, DW_AT_name("PIEIFR_BITS")
    3184                      .dwattr $C$DW$T$51, DW_AT_byte_size(0x01)
    3185              $C$DW$320       .dwtag  DW_TAG_member
    3186                      .dwattr $C$DW$320, DW_AT_type(*$C$DW$T$19)
    3187                      .dwattr $C$DW$320, DW_AT_name("INTx1")
    3188                      .dwattr $C$DW$320, DW_AT_TI_symbol_name("_INTx1")
    3189                      .dwattr $C$DW$320, DW_AT_bit_offset(0x0f), DW_AT_bit_size(0x01)
    3190                      .dwattr $C$DW$320, DW_AT_data_member_location[DW_OP_plus_uconst 0x0]
    3191                      .dwattr $C$DW$320, DW_AT_accessibility(DW_ACCESS_public)
    3192              $C$DW$321       .dwtag  DW_TAG_member
    3193                      .dwattr $C$DW$321, DW_AT_type(*$C$DW$T$19)
    3194                      .dwattr $C$DW$321, DW_AT_name("INTx2")
